(dp0
S'cookies'
p1
(dp2
S'wxloadtime'
p3
S'1511489450'
p4
sS'webwx_data_ticket'
p5
S'gSdCcwO536P0nvXfM121Ebm0'
p6
sS'wxuin'
p7
S'2693546021'
p8
sS'login_frequency'
p9
S'2'
p10
sS'MM_WX_NOTIFY_STATE'
p11
S'1'
p12
sS'MM_WX_SOUND_STATE'
p13
g12
sS'webwx_auth_ticket'
p14
S'CIsBEJ79odwJGoABuumqgIRShFuIEqKX9A3+lQTFhWxHUz4m195O0BCQYwkBB/h72JmoXHJiOHWd0vuW5TDrjZDvERd5hlIIAF4VlPHivJb7IWHQMhwJg4Z497ji+GaqMW0/KkryZgZgo1E37z7sfPRPrhyCWhp5eA2VpJpRuNUCEOZJjNL8BJWUWm4='
p15
sS'last_wxuin'
p16
S'2693546021'
p17
sS'webwxuvid'
p18
S'a29028be717eaf2649178db4e0fd08cdc103f739d63e1eedafaf9b8408e1df49ced50a11f1ede9f1fb7826ed8a598de2'
p19
sS'wxpluginkey'
p20
S'1511419298'
p21
sS'wxsid'
p22
S'hvvqz0qEfoHO0F2J'
p23
sS'mm_lang'
p24
S'zh_CN'
p25
ssS'version'
p26
S'1.3.10'
p27
sS'storage'
p28
(dp29
S'userName'
p30
V@22425418b63ffb9518522a2dbefc84500f778e9e1f16d0d37f4f641784768b19
p31
sS'lastInputUserName'
p32
NsS'memberList'
p33
ccopy_reg
_reconstructor
p34
(citchat.storage.templates
ContactList
p35
c__builtin__
list
p36
(lp37
g34
(citchat.storage.templates
User
p38
c__builtin__
dict
p39
(dp40
S'UserName'
p41
V@22425418b63ffb9518522a2dbefc84500f778e9e1f16d0d37f4f641784768b19
p42
sS'City'
p43
V\u671d\u9633
p44
sS'DisplayName'
p45
S''
p46
sS'UniFriend'
p47
I0
sS'OwnerUin'
p48
I0
sS'MemberList'
p49
g34
(g35
g36
(lp50
tp51
Rp52
I1
bsS'PYQuanPin'
p53
Vkiwi
p54
sS'RemarkPYInitial'
p55
V
p56
sS'Uin'
p57
I2693546021
sS'AppAccountFlag'
p58
I0
sS'VerifyFlag'
p59
I0
sS'Province'
p60
V\u5317\u4eac
p61
sS'KeyWord'
p62
g46
sS'RemarkName'
p63
g56
sS'PYInitial'
p64
VKIWI
p65
sS'ChatRoomId'
p66
I0
sVIsOwner
p67
I0
sS'HideInputBarFlag'
p68
I0
sVHeadImgFlag
p69
I1
sS'EncryChatRoomId'
p70
g46
sS'AttrStatus'
p71
I98405
sS'SnsFlag'
p72
I17
sS'MemberCount'
p73
I0
sVWebWxPluginSwitch
p74
I0
sS'Alias'
p75
g46
sS'Signature'
p76
g56
sS'ContactFlag'
p77
I1
sS'NickName'
p78
Vkiwi
p79
sS'RemarkPYQuanPin'
p80
g56
sS'HeadImgUrl'
p81
V/cgi-bin/mmwebwx-bin/webwxgeticon?seq=500029&username=@22425418b63ffb9518522a2dbefc84500f778e9e1f16d0d37f4f641784768b19&skey=@crypt_9c3dea4c_f5700a142e41b2a86f3977c50c30a560
p82
sS'Sex'
p83
I1
sS'StarFriend'
p84
I0
sS'Statues'
p85
I0
stp86
Rp87
I1
bag34
(g38
g39
(dp88
VUserName
p89
V@1e3915f435209c51f9d6bde7ef084f1803b5de2175408153176ffd52b2329e1d
p90
sVCity
p91
g56
sVSnsFlag
p92
I17
sVDisplayName
p93
g56
sVUniFriend
p94
I0
sVMemberCount
p95
I0
sVOwnerUin
p96
I0
sVMemberList
p97
g52
sVAlias
p98
g56
sVPYQuanPin
p99
VBenYo
p100
sVSignature
p101
V\u96c6\u96e8\u6210\u955c \u5012\u6620\u6210\u62f1
p102
sVRemarkPYInitial
p103
VLYLH
p104
sVContactFlag
p105
I3
sVUin
p106
I0
sVNickName
p107
VBenYo
p108
sVAppAccountFlag
p109
I0
sVVerifyFlag
p110
I0
sVRemarkPYQuanPin
p111
Vlinyilihao
p112
sVHeadImgUrl
p113
V/cgi-bin/mmwebwx-bin/webwxgeticon?seq=662765466&username=@1e3915f435209c51f9d6bde7ef084f1803b5de2175408153176ffd52b2329e1d&skey=@crypt_9c3dea4c_f5700a142e41b2a86f3977c50c30a560
p114
sVKeyWord
p115
g56
sVProvince
p116
g56
sVPYInitial
p117
VBENYO
p118
sVRemarkName
p119
V\u4e34\u6c82-\u674e\u8c6a
p120
sVIsOwner
p121
I0
sVSex
p122
I0
sVStarFriend
p123
I0
sVHideInputBarFlag
p124
I0
sVChatRoomId
p125
I0
sVEncryChatRoomId
p126
g56
sVAttrStatus
p127
I247717
sVStatues
p128
I0
stp129
Rp130
I1
bag34
(g38
g39
(dp131
VUserName
p132
V@d212f4608c6fa39b76cb7533bf7d53efb4224d4508a122422b42836b96268d95
p133
sVCity
p134
g56
sVSnsFlag
p135
I1
sVDisplayName
p136
g56
sVUniFriend
p137
I0
sVMemberCount
p138
I0
sVOwnerUin
p139
I0
sVMemberList
p140
g52
sVAlias
p141
g56
sVPYQuanPin
p142
Vwangbaishitian
p143
sVSignature
p144
V\u5f97\u5230\u597d\u4e1c\u897f\u7684\u529e\u6cd5\uff0c\u5c31\u662f\u8ba9\u81ea\u5df1\u914d\u7684\u4e0a\u5b83\u3002
p145
sVRemarkPYInitial
p146
VXYTZB
p147
sVContactFlag
p148
I3
sVUin
p149
I0
sVNickName
p150
V\u738b\u767d\u77f3\u7530
p151
sVAppAccountFlag
p152
I0
sVVerifyFlag
p153
I0
sVRemarkPYQuanPin
p154
Vxiuyuantianzengbi
p155
sVHeadImgUrl
p156
V/cgi-bin/mmwebwx-bin/webwxgeticon?seq=662781118&username=@d212f4608c6fa39b76cb7533bf7d53efb4224d4508a122422b42836b96268d95&skey=@crypt_9c3dea4c_f5700a142e41b2a86f3977c50c30a560
p157
sVKeyWord
p158
g56
sVProvince
p159
V\u5317\u4eac
p160
sVPYInitial
p161
VWBST
p162
sVRemarkName
p163
V\u4fee\u9662-\u7530\u589e\u74a7
p164
sVIsOwner
p165
I0
sVSex
p166
I1
sVStarFriend
p167
I0
sVHideInputBarFlag
p168
I0
sVChatRoomId
p169
I0
sVEncryChatRoomId
p170
g56
sVAttrStatus
p171
I102501
sVStatues
p172
I0
stp173
Rp174
I1
bag34
(g38
g39
(dp175
VUserName
p176
V@08c97844d5694c5c0c9c2acbc9f60664840ef2870c15109d2c82987b17e4e64d
p177
sVCity
p178
V\u6e29\u5dde
p179
sVSnsFlag
p180
I17
sVDisplayName
p181
g56
sVUniFriend
p182
I0
sVMemberCount
p183
I0
sVOwnerUin
p184
I0
sVMemberList
p185
g52
sVAlias
p186
g56
sVPYQuanPin
p187
Vjiaxiaolan
p188
sVSignature
p189
V\u9002\u5408\u662f\u6700\u597d\u7684
p190
sVRemarkPYInitial
p191
VMTJXLCW
p192
sVContactFlag
p193
I3
sVUin
p194
I0
sVNickName
p195
V\u8d3e\u5c0f\u5170
p196
sVAppAccountFlag
p197
I0
sVVerifyFlag
p198
I0
sVRemarkPYQuanPin
p199
Vmaitianjiaxiaolancaiwu
p200
sVHeadImgUrl
p201
V/cgi-bin/mmwebwx-bin/webwxgeticon?seq=640120208&username=@08c97844d5694c5c0c9c2acbc9f60664840ef2870c15109d2c82987b17e4e64d&skey=@crypt_9c3dea4c_f5700a142e41b2a86f3977c50c30a560
p202
sVKeyWord
p203
g56
sVProvince
p204
V\u6d59\u6c5f
p205
sVPYInitial
p206
VJXL
p207
sVRemarkName
p208
V\u9ea6\u7530-\u8d3e\u5c0f\u5170--\u8d22\u52a1
p209
sVIsOwner
p210
I0
sVSex
p211
I2
sVStarFriend
p212
I0
sVHideInputBarFlag
p213
I0
sVChatRoomId
p214
I0
sVEncryChatRoomId
p215
g56
sVAttrStatus
p216
I104517
sVStatues
p217
I0
stp218
Rp219
I1
bag34
(g38
g39
(dp220
VUserName
p221
V@bf473a4647cb4f9f9da8f46e43fb9ec1
p222
sVCity
p223
V\u6dee\u5357
p224
sVSnsFlag
p225
I16
sVDisplayName
p226
g56
sVUniFriend
p227
I0
sVMemberCount
p228
I0
sVOwnerUin
p229
I0
sVMemberList
p230
g52
sVAlias
p231
g56
sVPYQuanPin
p232
VQuiet
p233
sVSignature
p234
g56
sVRemarkPYInitial
p235
VALLK
p236
sVContactFlag
p237
I3
sVUin
p238
I0
sVNickName
p239
VQuiet
p240
sVAppAccountFlag
p241
I0
sVVerifyFlag
p242
I0
sVRemarkPYQuanPin
p243
Vanliliukang
p244
sVHeadImgUrl
p245
V/cgi-bin/mmwebwx-bin/webwxgeticon?seq=620970157&username=@bf473a4647cb4f9f9da8f46e43fb9ec1&skey=@crypt_9c3dea4c_f5700a142e41b2a86f3977c50c30a560
p246
sVKeyWord
p247
VLK1
p248
sVProvince
p249
V\u5b89\u5fbd
p250
sVPYInitial
p251
VQUIET
p252
sVRemarkName
p253
V\u5b89\u7406-\u5218\u5eb7
p254
sVIsOwner
p255
I0
sVSex
p256
I1
sVStarFriend
p257
I0
sVHideInputBarFlag
p258
I0
sVChatRoomId
p259
I0
sVEncryChatRoomId
p260
g56
sVAttrStatus
p261
I4283
sVStatues
p262
I0
stp263
Rp264
I1
bag34
(g38
g39
(dp265
VUserName
p266
V@8f09b72aacd7a966bd5a6fa50e7040805d94d79953ba4fe53ccf91ae62d35e49
p267
sVCity
p268
V\u8861\u6c34
p269
sVSnsFlag
p270
I1
sVDisplayName
p271
g56
sVUniFriend
p272
I0
sVMemberCount
p273
I0
sVOwnerUin
p274
I0
sVMemberList
p275
g52
sVAlias
p276
g56
sVPYQuanPin
p277
Vzcy15503298217
p278
sVSignature
p279
V\u52aa\u529b\u594b\u6597\uff0c\u4ee5\u6700\u597d\u7684\u5fc3\u6001\u8fce\u63a5\u65b0\u4e00\u6bb5\u65f6\u95f4\u7684\u5de5\u4f5c\u3002
p280
sVRemarkPYInitial
p281
VYHXL
p282
sVContactFlag
p283
I3
sVUin
p284
I0
sVNickName
p285
Vzcy15503298217
p286
sVAppAccountFlag
p287
I0
sVVerifyFlag
p288
I0
sVRemarkPYQuanPin
p289
Vyihanxingliu
p290
sVHeadImgUrl
p291
V/cgi-bin/mmwebwx-bin/webwxgeticon?seq=647556546&username=@8f09b72aacd7a966bd5a6fa50e7040805d94d79953ba4fe53ccf91ae62d35e49&skey=@crypt_9c3dea4c_f5700a142e41b2a86f3977c50c30a560
p292
sVKeyWord
p293
g56
sVProvince
p294
V\u6cb3\u5317
p295
sVPYInitial
p296
VZCY15503298217
p297
sVRemarkName
p298
V\u4f0a-\u97e9\u674f\u67f3
p299
sVIsOwner
p300
I0
sVSex
p301
I2
sVStarFriend
p302
I0
sVHideInputBarFlag
p303
I0
sVChatRoomId
p304
I0
sVEncryChatRoomId
p305
g56
sVAttrStatus
p306
I135265
sVStatues
p307
I0
stp308
Rp309
I1
bag34
(g38
g39
(dp310
VUserName
p311
V@21fcdd72df947e41e8ee3d60e4454f919131bf2ffc9076863e00d6dd555586bf
p312
sVCity
p313
g56
sVSnsFlag
p314
I1
sVDisplayName
p315
g56
sVUniFriend
p316
I0
sVMemberCount
p317
I0
sVOwnerUin
p318
I0
sVMemberList
p319
g52
sVAlias
p320
g56
sVPYQuanPin
p321
Vbaihe
p322
sVSignature
p323
g56
sVRemarkPYInitial
p324
VYMHL
p325
sVContactFlag
p326
I3
sVUin
p327
I0
sVNickName
p328
V\u767e\u5408
p329
sVAppAccountFlag
p330
I0
sVVerifyFlag
p331
I0
sVRemarkPYQuanPin
p332
Vyimeihualing
p333
sVHeadImgUrl
p334
V/cgi-bin/mmwebwx-bin/webwxgeticon?seq=662690959&username=@21fcdd72df947e41e8ee3d60e4454f919131bf2ffc9076863e00d6dd555586bf&skey=@crypt_9c3dea4c_f5700a142e41b2a86f3977c50c30a560
p335
sVKeyWord
p336
g56
sVProvince
p337
g56
sVPYInitial
p338
VBH
p339
sVRemarkName
p340
V\u4f0a-\u6885\u82b1\u73b2
p341
sVIsOwner
p342
I0
sVSex
p343
I2
sVStarFriend
p344
I0
sVHideInputBarFlag
p345
I0
sVChatRoomId
p346
I0
sVEncryChatRoomId
p347
g56
sVAttrStatus
p348
I4133
sVStatues
p349
I0
stp350
Rp351
I1
bag34
(g38
g39
(dp352
VUserName
p353
V@7235f24469fe21752f39cf9f9cdcfd02a0f99006360e39ee139a5e8e0df3153d
p354
sVCity
p355
V\u6e29\u5dde
p356
sVSnsFlag
p357
I1
sVDisplayName
p358
g56
sVUniFriend
p359
I0
sVMemberCount
p360
I0
sVOwnerUin
p361
I0
sVMemberList
p362
g52
sVAlias
p363
g56
sVPYQuanPin
p364
Vdayinlaxiehuan
p365
sVSignature
p366
V\u6211\u662f\u6253\u5370\u5566\uff08dayinl.a\uff09\u7684\u8c22\u6b22
p367
sVRemarkPYInitial
p368
VMTXH
p369
sVContactFlag
p370
I3
sVUin
p371
I0
sVNickName
p372
V\u6253\u5370\u5566\u8c22\u6b22
p373
sVAppAccountFlag
p374
I0
sVVerifyFlag
p375
I0
sVRemarkPYQuanPin
p376
Vmaitianxiehuan
p377
sVHeadImgUrl
p378
V/cgi-bin/mmwebwx-bin/webwxgeticon?seq=640121875&username=@7235f24469fe21752f39cf9f9cdcfd02a0f99006360e39ee139a5e8e0df3153d&skey=@crypt_9c3dea4c_f5700a142e41b2a86f3977c50c30a560
p379
sVKeyWord
p380
g56
sVProvince
p381
V\u6d59\u6c5f
p382
sVPYInitial
p383
VDYLXH
p384
sVRemarkName
p385
V\u9ea6\u7530-\u8c22\u6b22-
p386
sVIsOwner
p387
I0
sVSex
p388
I2
sVStarFriend
p389
I0
sVHideInputBarFlag
p390
I0
sVChatRoomId
p391
I0
sVEncryChatRoomId
p392
g56
sVAttrStatus
p393
I233573
sVStatues
p394
I0
stp395
Rp396
I1
bag34
(g38
g39
(dp397
VUserName
p398
V@7380a94e1e902ab53644f58c4120b85a1c9840f3a35f69be4b4b19db052e5e99
p399
sVCity
p400
V\u6e29\u5dde
p401
sVSnsFlag
p402
I17
sVDisplayName
p403
g56
sVUniFriend
p404
I0
sVMemberCount
p405
I0
sVOwnerUin
p406
I0
sVMemberList
p407
g52
sVAlias
p408
g56
sVPYQuanPin
p409
Vspanclassemojiemoji2747span
p410
sVSignature
p411
g56
sVRemarkPYInitial
p412
VMTXLLCW
p413
sVContactFlag
p414
I3
sVUin
p415
I0
sVNickName
p416
V\u2747
p417
sVAppAccountFlag
p418
I0
sVVerifyFlag
p419
I0
sVRemarkPYQuanPin
p420
Vmaitianxielilicaiwu
p421
sVHeadImgUrl
p422
V/cgi-bin/mmwebwx-bin/webwxgeticon?seq=647548850&username=@7380a94e1e902ab53644f58c4120b85a1c9840f3a35f69be4b4b19db052e5e99&skey=@crypt_9c3dea4c_f5700a142e41b2a86f3977c50c30a560
p423
sVKeyWord
p424
g56
sVProvince
p425
V\u6d59\u6c5f
p426
sVPYInitial
p427
VSPANCLASSEMOJIEMOJI2747SPAN
p428
sVRemarkName
p429
V\u9ea6\u7530-\u8c22\u8389\u8389-\u8d22\u52a1
p430
sVIsOwner
p431
I0
sVSex
p432
I2
sVStarFriend
p433
I0
sVHideInputBarFlag
p434
I0
sVChatRoomId
p435
I0
sVEncryChatRoomId
p436
g56
sVAttrStatus
p437
I104487
sVStatues
p438
I0
stp439
Rp440
I1
bag34
(g38
g39
(dp441
VUserName
p442
V@0d87eee9db28c4e77ed1b280a53bbdf1
p443
sVCity
p444
V\u6e29\u5dde
p445
sVSnsFlag
p446
I49
sVDisplayName
p447
g56
sVUniFriend
p448
I0
sVMemberCount
p449
I0
sVOwnerUin
p450
I0
sVMemberList
p451
g52
sVAlias
p452
g56
sVPYQuanPin
p453
Vchenzhonghui?
p454
sVSignature
p455
g56
sVRemarkPYInitial
p456
VMTCZHDN
p457
sVContactFlag
p458
I3
sVUin
p459
I0
sVNickName
p460
V\u5c18\u4e2d\u7070\u2705
p461
sVAppAccountFlag
p462
I0
sVVerifyFlag
p463
I0
sVRemarkPYQuanPin
p464
Vmaitianchenzhonghuidaniu
p465
sVHeadImgUrl
p466
V/cgi-bin/mmwebwx-bin/webwxgeticon?seq=662704114&username=@0d87eee9db28c4e77ed1b280a53bbdf1&skey=@crypt_9c3dea4c_f5700a142e41b2a86f3977c50c30a560
p467
sVKeyWord
p468
Vahu
p469
sVProvince
p470
V\u6d59\u6c5f
p471
sVPYInitial
p472
VCZH?
p473
sVRemarkName
p474
V\u9ea6\u7530-\u9648\u5fe0\u8f89--\u5927\u725b
p475
sVIsOwner
p476
I0
sVSex
p477
I1
sVStarFriend
p478
I0
sVHideInputBarFlag
p479
I0
sVChatRoomId
p480
I0
sVEncryChatRoomId
p481
g56
sVAttrStatus
p482
I50440295
sVStatues
p483
I0
stp484
Rp485
I1
bag34
(g38
g39
(dp486
VUserName
p487
V@a126865f3455155e057b0a481311cc4e
p488
sVCity
p489
V\u7126\u4f5c
p490
sVSnsFlag
p491
I49
sVDisplayName
p492
g56
sVUniFriend
p493
I0
sVMemberCount
p494
I0
sVOwnerUin
p495
I0
sVMemberList
p496
g52
sVAlias
p497
g56
sVPYQuanPin
p498
Vdou
p499
sVSignature
p500
VAee\uff5e
p501
sVRemarkPYInitial
p502
VALZSJ
p503
sVContactFlag
p504
I3
sVUin
p505
I0
sVNickName
p506
V\u8c46\uff5e
p507
sVAppAccountFlag
p508
I0
sVVerifyFlag
p509
I0
sVRemarkPYQuanPin
p510
Vanlizhangshijun
p511
sVHeadImgUrl
p512
V/cgi-bin/mmwebwx-bin/webwxgeticon?seq=642360655&username=@a126865f3455155e057b0a481311cc4e&skey=@crypt_9c3dea4c_f5700a142e41b2a86f3977c50c30a560
p513
sVKeyWord
p514
Vvnd
p515
sVProvince
p516
V\u6cb3\u5357
p517
sVPYInitial
p518
VD
p519
sVRemarkName
p520
V\u5b89\u7406-\u5f20\u77f3\u541b
p521
sVIsOwner
p522
I0
sVSex
p523
I1
sVStarFriend
p524
I0
sVHideInputBarFlag
p525
I0
sVChatRoomId
p526
I0
sVEncryChatRoomId
p527
g56
sVAttrStatus
p528
I239551
sVStatues
p529
I0
stp530
Rp531
I1
bag34
(g38
g39
(dp532
VUserName
p533
V@b34fcd54bcca3ba3c3fd1387db41102a
p534
sVCity
p535
V\u5357\u4eac
p536
sVSnsFlag
p537
I17
sVDisplayName
p538
g56
sVUniFriend
p539
I0
sVMemberCount
p540
I0
sVOwnerUin
p541
I0
sVMemberList
p542
g52
sVAlias
p543
g56
sVPYQuanPin
p544
Vzifeiyu
p545
sVSignature
p546
g56
sVRemarkPYInitial
p547
VALCY
p548
sVContactFlag
p549
I3
sVUin
p550
I0
sVNickName
p551
V\u5b50\u975e\u9c7c
p552
sVAppAccountFlag
p553
I0
sVVerifyFlag
p554
I0
sVRemarkPYQuanPin
p555
Vanlichuyu
p556
sVHeadImgUrl
p557
V/cgi-bin/mmwebwx-bin/webwxgeticon?seq=647540927&username=@b34fcd54bcca3ba3c3fd1387db41102a&skey=@crypt_9c3dea4c_f5700a142e41b2a86f3977c50c30a560
p558
sVKeyWord
p559
Vyuc
p560
sVProvince
p561
V\u6c5f\u82cf
p562
sVPYInitial
p563
VZFY
p564
sVRemarkName
p565
V\u5b89\u7406-\u50a8\u6e1d
p566
sVIsOwner
p567
I0
sVSex
p568
I1
sVStarFriend
p569
I0
sVHideInputBarFlag
p570
I0
sVChatRoomId
p571
I0
sVEncryChatRoomId
p572
g56
sVAttrStatus
p573
I102499
sVStatues
p574
I0
stp575
Rp576
I1
bag34
(g38
g39
(dp577
VUserName
p578
V@b65e6da8bdfdf84f31142f35585109d9011962e4934d321be4a13fb549f51c7e
p579
sVCity
p580
V\u868c\u57e0
p581
sVSnsFlag
p582
I17
sVDisplayName
p583
g56
sVUniFriend
p584
I0
sVMemberCount
p585
I0
sVOwnerUin
p586
I0
sVMemberList
p587
g52
sVAlias
p588
g56
sVPYQuanPin
p589
Vqianyuan
p590
sVSignature
p591
V\u2026
p592
sVRemarkPYInitial
p593
VALQY
p594
sVContactFlag
p595
I3
sVUin
p596
I0
sVNickName
p597
V\u94b1\u6e90
p598
sVAppAccountFlag
p599
I0
sVVerifyFlag
p600
I0
sVRemarkPYQuanPin
p601
Vanliqianying
p602
sVHeadImgUrl
p603
V/cgi-bin/mmwebwx-bin/webwxgeticon?seq=620800091&username=@b65e6da8bdfdf84f31142f35585109d9011962e4934d321be4a13fb549f51c7e&skey=@crypt_9c3dea4c_f5700a142e41b2a86f3977c50c30a560
p604
sVKeyWord
p605
g56
sVProvince
p606
V\u5b89\u5fbd
p607
sVPYInitial
p608
VQY
p609
sVRemarkName
p610
V\u5b89\u7406-\u94b1\u83b9
p611
sVIsOwner
p612
I0
sVSex
p613
I1
sVStarFriend
p614
I0
sVHideInputBarFlag
p615
I0
sVChatRoomId
p616
I0
sVEncryChatRoomId
p617
g56
sVAttrStatus
p618
I16880673
sVStatues
p619
I0
stp620
Rp621
I1
bag34
(g38
g39
(dp622
VUserName
p623
V@20f673739f77b9db315c5c5ee3d44767be811737fbfafbcf64869be7b7941f8b
p624
sVCity
p625
V\u5408\u80a5
p626
sVSnsFlag
p627
I17
sVDisplayName
p628
g56
sVUniFriend
p629
I0
sVMemberCount
p630
I0
sVOwnerUin
p631
I0
sVMemberList
p632
g52
sVAlias
p633
g56
sVPYQuanPin
p634
Vzhanganan
p635
sVSignature
p636
VMan proposes,God disposes
p637
sVRemarkPYInitial
p638
VALZAA
p639
sVContactFlag
p640
I3
sVUin
p641
I0
sVNickName
p642
V\u5f20\u5b89\u5b89
p643
sVAppAccountFlag
p644
I0
sVVerifyFlag
p645
I0
sVRemarkPYQuanPin
p646
Vanlizhanganan
p647
sVHeadImgUrl
p648
V/cgi-bin/mmwebwx-bin/webwxgeticon?seq=662697362&username=@20f673739f77b9db315c5c5ee3d44767be811737fbfafbcf64869be7b7941f8b&skey=@crypt_9c3dea4c_f5700a142e41b2a86f3977c50c30a560
p649
sVKeyWord
p650
g56
sVProvince
p651
V\u5b89\u5fbd
p652
sVPYInitial
p653
VZAA
p654
sVRemarkName
p655
V\u5b89\u7406-\u5f20\u5b89\u5b89
p656
sVIsOwner
p657
I0
sVSex
p658
I1
sVStarFriend
p659
I0
sVHideInputBarFlag
p660
I0
sVChatRoomId
p661
I0
sVEncryChatRoomId
p662
g56
sVAttrStatus
p663
I103613
sVStatues
p664
I0
stp665
Rp666
I1
bag34
(g38
g39
(dp667
VUserName
p668
V@f2dc8162b751907213cb1956a602a64d
p669
sVCity
p670
g56
sVSnsFlag
p671
I17
sVDisplayName
p672
g56
sVUniFriend
p673
I0
sVMemberCount
p674
I0
sVOwnerUin
p675
I0
sVMemberList
p676
g52
sVAlias
p677
g56
sVPYQuanPin
p678
VxiPxi
p679
sVSignature
p680
V\u751f\u6d3b\u4e0d\u6b62\u773c\u524d\u7684\u82df\u4e14\uff0c\u8fd8\u6709\u8bfb\u4e0d\u61c2\u7684\u8bd7\u548c\u5230\u4e0d\u4e86\u7684\u8fdc\u65b9
p681
sVRemarkPYInitial
p682
VALCW
p683
sVContactFlag
p684
I3
sVUin
p685
I0
sVNickName
p686
V\u5e0cP\u60dc
p687
sVAppAccountFlag
p688
I0
sVVerifyFlag
p689
I0
sVRemarkPYQuanPin
p690
Vanlicuiwang
p691
sVHeadImgUrl
p692
V/cgi-bin/mmwebwx-bin/webwxgeticon?seq=625632466&username=@f2dc8162b751907213cb1956a602a64d&skey=@crypt_9c3dea4c_f5700a142e41b2a86f3977c50c30a560
p693
sVKeyWord
p694
Vcw6
p695
sVProvince
p696
g56
sVPYInitial
p697
VXPX
p698
sVRemarkName
p699
V\u5b89\u7406-\u50ac\u65fa
p700
sVIsOwner
p701
I0
sVSex
p702
I1
sVStarFriend
p703
I0
sVHideInputBarFlag
p704
I0
sVChatRoomId
p705
I0
sVEncryChatRoomId
p706
g56
sVAttrStatus
p707
I98343
sVStatues
p708
I0
stp709
Rp710
I1
bag34
(g38
g39
(dp711
VUserName
p712
V@d0bcd471739f390b39428cd699bba55a
p713
sVCity
p714
V\u5408\u80a5
p715
sVSnsFlag
p716
I145
sVDisplayName
p717
g56
sVUniFriend
p718
I0
sVMemberCount
p719
I0
sVOwnerUin
p720
I0
sVMemberList
p721
g52
sVAlias
p722
g56
sVPYQuanPin
p723
VZLM
p724
sVSignature
p725
V\u8bb0\u5f97\u90a3\u65f6\u5e74\u7eaa\u5c0f\uff0c\u4f60\u7231\u8c08\u5929\u6211\u7231\u7b11\u3002
p726
sVRemarkPYInitial
p727
VALZLM
p728
sVContactFlag
p729
I3
sVUin
p730
I0
sVNickName
p731
VZLM
p732
sVAppAccountFlag
p733
I0
sVVerifyFlag
p734
I0
sVRemarkPYQuanPin
p735
Vanlizhanglimin
p736
sVHeadImgUrl
p737
V/cgi-bin/mmwebwx-bin/webwxgeticon?seq=631380420&username=@d0bcd471739f390b39428cd699bba55a&skey=@crypt_9c3dea4c_f5700a142e41b2a86f3977c50c30a560
p738
sVKeyWord
p739
Vzha
p740
sVProvince
p741
V\u5b89\u5fbd
p742
sVPYInitial
p743
VZLM
p744
sVRemarkName
p745
V\u5b89\u7406-\u5f20\u5229\u6c11
p746
sVIsOwner
p747
I0
sVSex
p748
I1
sVStarFriend
p749
I0
sVHideInputBarFlag
p750
I0
sVChatRoomId
p751
I0
sVEncryChatRoomId
p752
g56
sVAttrStatus
p753
I16889959
sVStatues
p754
I0
stp755
Rp756
I1
bag34
(g38
g39
(dp757
VUserName
p758
V@f5b345ec178005fd2b0ced18f7bec38ca81fdc1439b84874786139bd20edc4bc
p759
sVCity
p760
g56
sVSnsFlag
p761
I17
sVDisplayName
p762
g56
sVUniFriend
p763
I0
sVMemberCount
p764
I0
sVOwnerUin
p765
I0
sVMemberList
p766
g52
sVAlias
p767
g56
sVPYQuanPin
p768
Vxiaoshizi
p769
sVSignature
p770
V\u505a\u4e2a\u81ea\u5df1\u4e0d\u8ba8\u538c\u7684\u660e\u5a9a\u7684\u5973\u5b50\uff01\u54c8\u54c8<span class="emoji emoji1f604"></span>\u6602\u626c\u7684\u59ff\u6001\u8fce\u63a5\u6bcf\u4e00\u5929\uff01
p771
sVRemarkPYInitial
p772
VALSAP
p773
sVContactFlag
p774
I3
sVUin
p775
I0
sVNickName
p776
V\u5c0f\u5e08\u5b50
p777
sVAppAccountFlag
p778
I0
sVVerifyFlag
p779
I0
sVRemarkPYQuanPin
p780
Vanlishiaiping
p781
sVHeadImgUrl
p782
V/cgi-bin/mmwebwx-bin/webwxgeticon?seq=662715418&username=@f5b345ec178005fd2b0ced18f7bec38ca81fdc1439b84874786139bd20edc4bc&skey=@crypt_9c3dea4c_f5700a142e41b2a86f3977c50c30a560
p783
sVKeyWord
p784
g56
sVProvince
p785
V\u5929\u6d25
p786
sVPYInitial
p787
VXSZ
p788
sVRemarkName
p789
V\u5b89\u7406-\u5e08\u7231\u5e73
p790
sVIsOwner
p791
I0
sVSex
p792
I2
sVStarFriend
p793
I0
sVHideInputBarFlag
p794
I0
sVChatRoomId
p795
I0
sVEncryChatRoomId
p796
g56
sVAttrStatus
p797
I230437
sVStatues
p798
I0
stp799
Rp800
I1
bag34
(g38
g39
(dp801
VUserName
p802
V@1a533041f0110ef86d555caf837999de6f16940b5dcf087da13af1e52669257d
p803
sVCity
p804
VSan Francisco
p805
sVSnsFlag
p806
I17
sVDisplayName
p807
g56
sVUniFriend
p808
I0
sVMemberCount
p809
I0
sVOwnerUin
p810
I0
sVMemberList
p811
g52
sVAlias
p812
g56
sVPYQuanPin
p813
Vduiyixiananjifenpian
p814
sVSignature
p815
V\u73cd\u60dc\u4e00\u5207\uff0c\u5927\u6b65\u5411\u524d\uff0c\u62e5\u62b1\u672a\u6765\u3002
p816
sVRemarkPYInitial
p817
VALZQM
p818
sVContactFlag
p819
I3
sVUin
p820
I0
sVNickName
p821
V\u5bf9\u4e59\u9170\u6c28\u57fa\u915a\u7247
p822
sVAppAccountFlag
p823
I0
sVVerifyFlag
p824
I0
sVRemarkPYQuanPin
p825
Vanlizhangqiming
p826
sVHeadImgUrl
p827
V/cgi-bin/mmwebwx-bin/webwxgeticon?seq=625180693&username=@1a533041f0110ef86d555caf837999de6f16940b5dcf087da13af1e52669257d&skey=@crypt_9c3dea4c_f5700a142e41b2a86f3977c50c30a560
p828
sVKeyWord
p829
g56
sVProvince
p830
VCalifornia
p831
sVPYInitial
p832
VDYXAJFP
p833
sVRemarkName
p834
V\u5b89\u7406-\u5f20\u542f\u660e
p835
sVIsOwner
p836
I0
sVSex
p837
I1
sVStarFriend
p838
I0
sVHideInputBarFlag
p839
I0
sVChatRoomId
p840
I0
sVEncryChatRoomId
p841
g56
sVAttrStatus
p842
I136487
sVStatues
p843
I0
stp844
Rp845
I1
bag34
(g38
g39
(dp846
VUserName
p847
V@0f447c589a483fe27f7126762394a583
p848
sVCity
p849
V\u5609\u5174
p850
sVSnsFlag
p851
I17
sVDisplayName
p852
g56
sVUniFriend
p853
I0
sVMemberCount
p854
I0
sVOwnerUin
p855
I0
sVMemberList
p856
g52
sVAlias
p857
g56
sVPYQuanPin
p858
V?sihunqishi
p859
sVSignature
p860
g56
sVRemarkPYInitial
p861
VALCJHELM
p862
sVContactFlag
p863
I3
sVUin
p864
I0
sVNickName
p865
V\U0001f990\u6b7b\u9b42\u9a91\u58eb
p866
sVAppAccountFlag
p867
I0
sVVerifyFlag
p868
I0
sVRemarkPYQuanPin
p869
Vanlicaojiahuielema
p870
sVHeadImgUrl
p871
V/cgi-bin/mmwebwx-bin/webwxgeticon?seq=661610344&username=@0f447c589a483fe27f7126762394a583&skey=@crypt_9c3dea4c_f5700a142e41b2a86f3977c50c30a560
p872
sVKeyWord
p873
Vshq
p874
sVProvince
p875
V\u6d59\u6c5f
p876
sVPYInitial
p877
V?SHQS
p878
sVRemarkName
p879
V\u5b89\u7406-\u66f9\u4f73\u6656-\u997f\u4e86\u5417
p880
sVIsOwner
p881
I0
sVSex
p882
I1
sVStarFriend
p883
I0
sVHideInputBarFlag
p884
I0
sVChatRoomId
p885
I0
sVEncryChatRoomId
p886
g56
sVAttrStatus
p887
I241767
sVStatues
p888
I0
stp889
Rp890
I1
bag34
(g38
g39
(dp891
VUserName
p892
V@6dab9dd5717d825919f4783da837a9d2
p893
sVCity
p894
V\u6d77\u6dc0
p895
sVSnsFlag
p896
I17
sVDisplayName
p897
g56
sVUniFriend
p898
I0
sVMemberCount
p899
I0
sVOwnerUin
p900
I0
sVMemberList
p901
g52
sVAlias
p902
g56
sVPYQuanPin
p903
Vwendaoxiangdewoniu
p904
sVSignature
p905
V\u4e00\u7b11\u98ce\u96e8\u4efb\u5e73\u751f
p906
sVRemarkPYInitial
p907
VHKZHCS
p908
sVContactFlag
p909
I3
sVUin
p910
I0
sVNickName
p911
V\u95fb\u7a3b\u9999\u7684\u8717\u725b
p912
sVAppAccountFlag
p913
I0
sVVerifyFlag
p914
I0
sVRemarkPYQuanPin
p915
Vhaikezhanghuiceshi
p916
sVHeadImgUrl
p917
V/cgi-bin/mmwebwx-bin/webwxgeticon?seq=662717680&username=@6dab9dd5717d825919f4783da837a9d2&skey=@crypt_9c3dea4c_f5700a142e41b2a86f3977c50c30a560
p918
sVKeyWord
p919
Vcar
p920
sVProvince
p921
V\u5317\u4eac
p922
sVPYInitial
p923
VWDXDWN
p924
sVRemarkName
p925
V\u6c26\u6c2a-\u5f20\u6167-\u6d4b\u8bd5
p926
sVIsOwner
p927
I0
sVSex
p928
I2
sVStarFriend
p929
I0
sVHideInputBarFlag
p930
I0
sVChatRoomId
p931
I0
sVEncryChatRoomId
p932
g56
sVAttrStatus
p933
I102503
sVStatues
p934
I0
stp935
Rp936
I1
bag34
(g38
g39
(dp937
VUserName
p938
V@a17b8665ef02525d04165414234121d4
p939
sVCity
p940
V\u8861\u6c34
p941
sVSnsFlag
p942
I17
sVDisplayName
p943
g56
sVUniFriend
p944
I0
sVMemberCount
p945
I0
sVOwnerUin
p946
I0
sVMemberList
p947
g52
sVAlias
p948
g56
sVPYQuanPin
p949
Vbingdi
p950
sVSignature
p951
V\u9760\u9760\u9760\u9760\u2026\u2029\u2029\u2029\u81ea\u5df1\u52aa\u529b
p952
sVRemarkPYInitial
p953
VXYFTL
p954
sVContactFlag
p955
I3
sVUin
p956
I0
sVNickName
p957
V\u51b0\u6ef4
p958
sVAppAccountFlag
p959
I0
sVVerifyFlag
p960
I0
sVRemarkPYQuanPin
p961
Vxiuyuanfutianlu
p962
sVHeadImgUrl
p963
V/cgi-bin/mmwebwx-bin/webwxgeticon?seq=662696031&username=@a17b8665ef02525d04165414234121d4&skey=@crypt_9c3dea4c_f5700a142e41b2a86f3977c50c30a560
p964
sVKeyWord
p965
Vfug
p966
sVProvince
p967
V\u6cb3\u5317
p968
sVPYInitial
p969
VBD
p970
sVRemarkName
p971
V\u4fee\u9662-\u5085\u5929\u8def
p972
sVIsOwner
p973
I0
sVSex
p974
I1
sVStarFriend
p975
I0
sVHideInputBarFlag
p976
I0
sVChatRoomId
p977
I0
sVEncryChatRoomId
p978
g56
sVAttrStatus
p979
I102437
sVStatues
p980
I0
stp981
Rp982
I1
bag34
(g38
g39
(dp983
VUserName
p984
V@cfdcd003ff48924f18785f8a46ffa45a0eb3c7af99b6b3b46bb0439939009847
p985
sVCity
p986
g56
sVSnsFlag
p987
I0
sVDisplayName
p988
g56
sVUniFriend
p989
I0
sVMemberCount
p990
I0
sVOwnerUin
p991
I0
sVMemberList
p992
g52
sVAlias
p993
g56
sVPYQuanPin
p994
VGio
p995
sVSignature
p996
g56
sVRemarkPYInitial
p997
VXYWCL
p998
sVContactFlag
p999
I3
sVUin
p1000
I0
sVNickName
p1001
VGio
p1002
sVAppAccountFlag
p1003
I0
sVVerifyFlag
p1004
I0
sVRemarkPYQuanPin
p1005
Vxiuyuanwangchangliang
p1006
sVHeadImgUrl
p1007
V/cgi-bin/mmwebwx-bin/webwxgeticon?seq=662693979&username=@cfdcd003ff48924f18785f8a46ffa45a0eb3c7af99b6b3b46bb0439939009847&skey=@crypt_9c3dea4c_f5700a142e41b2a86f3977c50c30a560
p1008
sVKeyWord
p1009
g56
sVProvince
p1010
VPisa
p1011
sVPYInitial
p1012
VGIO
p1013
sVRemarkName
p1014
V\u4fee\u9662-\u738b\u5e38\u4eae
p1015
sVIsOwner
p1016
I0
sVSex
p1017
I1
sVStarFriend
p1018
I0
sVHideInputBarFlag
p1019
I0
sVChatRoomId
p1020
I0
sVEncryChatRoomId
p1021
g56
sVAttrStatus
p1022
I233573
sVStatues
p1023
I0
stp1024
Rp1025
I1
bag34
(g38
g39
(dp1026
VUserName
p1027
V@1431e76074a99c7a47a0523802fbba7e85307f142f73a6715c6aa394fe2ce63e
p1028
sVCity
p1029
g56
sVSnsFlag
p1030
I1
sVDisplayName
p1031
g56
sVUniFriend
p1032
I0
sVMemberCount
p1033
I0
sVOwnerUin
p1034
I0
sVMemberList
p1035
g52
sVAlias
p1036
g56
sVPYQuanPin
p1037
VDanny
p1038
sVSignature
p1039
V\u4e00\u5207\u5e73\u5e38\u5fc3
p1040
sVRemarkPYInitial
p1041
VHDANNYJDGL
p1042
sVContactFlag
p1043
I3
sVUin
p1044
I0
sVNickName
p1045
VDanny
p1046
sVAppAccountFlag
p1047
I0
sVVerifyFlag
p1048
I0
sVRemarkPYQuanPin
p1049
VhangDannyjiudianguanli
p1050
sVHeadImgUrl
p1051
V/cgi-bin/mmwebwx-bin/webwxgeticon?seq=662702742&username=@1431e76074a99c7a47a0523802fbba7e85307f142f73a6715c6aa394fe2ce63e&skey=@crypt_9c3dea4c_f5700a142e41b2a86f3977c50c30a560
p1052
sVKeyWord
p1053
g56
sVProvince
p1054
V\u6fb3\u95e8
p1055
sVPYInitial
p1056
VDANNY
p1057
sVRemarkName
p1058
V\u676d-Danny-\u9152\u5e97\u7ba1\u7406
p1059
sVIsOwner
p1060
I0
sVSex
p1061
I1
sVStarFriend
p1062
I0
sVHideInputBarFlag
p1063
I0
sVChatRoomId
p1064
I0
sVEncryChatRoomId
p1065
g56
sVAttrStatus
p1066
I33820677
sVStatues
p1067
I0
stp1068
Rp1069
I1
bag34
(g38
g39
(dp1070
VUserName
p1071
V@c675c5377594388a7b270b7251aac00f7b8a4cb01ffb9bd3b464c66b50b35fcb
p1072
sVCity
p1073
V\u6210\u90fd
p1074
sVSnsFlag
p1075
I49
sVDisplayName
p1076
g56
sVUniFriend
p1077
I0
sVMemberCount
p1078
I0
sVOwnerUin
p1079
I0
sVMemberList
p1080
g52
sVAlias
p1081
g56
sVPYQuanPin
p1082
Vqisicaizonggongsi
p1083
sVSignature
p1084
V\U0001f46a<span class="emoji emoji1f487"></span>
p1085
sVRemarkPYInitial
p1086
VYWZYJJCD
p1087
sVContactFlag
p1088
I3
sVUin
p1089
I0
sVNickName
p1090
V\u4e03\u4e1d\u5f69\u603b\u516c\u53f8
p1091
sVAppAccountFlag
p1092
I0
sVVerifyFlag
p1093
I0
sVRemarkPYQuanPin
p1094
Vyiwangzhiyongjiajuchengdu
p1095
sVHeadImgUrl
p1096
V/cgi-bin/mmwebwx-bin/webwxgeticon?seq=642362303&username=@c675c5377594388a7b270b7251aac00f7b8a4cb01ffb9bd3b464c66b50b35fcb&skey=@crypt_9c3dea4c_f5700a142e41b2a86f3977c50c30a560
p1097
sVKeyWord
p1098
g56
sVProvince
p1099
V\u56db\u5ddd
p1100
sVPYInitial
p1101
VQSCZGS
p1102
sVRemarkName
p1103
V\u4f0a-\u738b\u5fd7\u52c7-\u5bb6\u5177-\u6210\u90fd
p1104
sVIsOwner
p1105
I0
sVSex
p1106
I1
sVStarFriend
p1107
I0
sVHideInputBarFlag
p1108
I0
sVChatRoomId
p1109
I0
sVEncryChatRoomId
p1110
g56
sVAttrStatus
p1111
I105375
sVStatues
p1112
I0
stp1113
Rp1114
I1
bag34
(g38
g39
(dp1115
VUserName
p1116
V@252faecb2e50806fa3dbcb5193350986
p1117
sVCity
p1118
V\u90af\u90f8
p1119
sVSnsFlag
p1120
I49
sVDisplayName
p1121
g56
sVUniFriend
p1122
I0
sVMemberCount
p1123
I0
sVOwnerUin
p1124
I0
sVMemberList
p1125
g52
sVAlias
p1126
g56
sVPYQuanPin
p1127
Vhuishichao
p1128
sVSignature
p1129
V\u9003\u907f\u81ea\u5df1\u5230\u4f55\u65f6
p1130
sVRemarkPYInitial
p1131
VWZHSCTX
p1132
sVContactFlag
p1133
I3
sVUin
p1134
I0
sVNickName
p1135
Vhuishichao
p1136
sVAppAccountFlag
p1137
I0
sVVerifyFlag
p1138
I0
sVRemarkPYQuanPin
p1139
Vwuzhonghuishichaotongxin
p1140
sVHeadImgUrl
p1141
V/cgi-bin/mmwebwx-bin/webwxgeticon?seq=620580582&username=@252faecb2e50806fa3dbcb5193350986&skey=@crypt_9c3dea4c_f5700a142e41b2a86f3977c50c30a560
p1142
sVKeyWord
p1143
Vhui
p1144
sVProvince
p1145
V\u6cb3\u5317
p1146
sVPYInitial
p1147
VHUISHICHAO
p1148
sVRemarkName
p1149
V\u6b66\u4e2d-\u60e0\u4e16\u8d85-\u901a\u4fe1
p1150
sVIsOwner
p1151
I0
sVSex
p1152
I1
sVStarFriend
p1153
I0
sVHideInputBarFlag
p1154
I0
sVChatRoomId
p1155
I0
sVEncryChatRoomId
p1156
g56
sVAttrStatus
p1157
I102435
sVStatues
p1158
I0
stp1159
Rp1160
I1
bag34
(g38
g39
(dp1161
VUserName
p1162
V@cc68bd70d6c551aa468e1c56da43d73e
p1163
sVCity
p1164
V\u77f3\u5bb6\u5e84
p1165
sVSnsFlag
p1166
I17
sVDisplayName
p1167
g56
sVUniFriend
p1168
I0
sVMemberCount
p1169
I0
sVOwnerUin
p1170
I0
sVMemberList
p1171
g52
sVAlias
p1172
g56
sVPYQuanPin
p1173
Vhanfeizi
p1174
sVSignature
p1175
V\u6e05\u5fc3\u5be1\u6b32 \u6e05\u51c0\u65e0\u4e3a
p1176
sVRemarkPYInitial
p1177
VWZHFZTJ
p1178
sVContactFlag
p1179
I3
sVUin
p1180
I0
sVNickName
p1181
V\u97e9\u98de\u5b50
p1182
sVAppAccountFlag
p1183
I0
sVVerifyFlag
p1184
I0
sVRemarkPYQuanPin
p1185
Vwuzhonghanfeizhongtiejian
p1186
sVHeadImgUrl
p1187
V/cgi-bin/mmwebwx-bin/webwxgeticon?seq=662541113&username=@cc68bd70d6c551aa468e1c56da43d73e&skey=@crypt_9c3dea4c_f5700a142e41b2a86f3977c50c30a560
p1188
sVKeyWord
p1189
Vhan
p1190
sVProvince
p1191
V\u6cb3\u5317
p1192
sVPYInitial
p1193
VHFZ
p1194
sVRemarkName
p1195
V\u6b66\u4e2d-\u97e9\u975e-\u4e2d\u94c1\u5efa
p1196
sVIsOwner
p1197
I0
sVSex
p1198
I1
sVStarFriend
p1199
I0
sVHideInputBarFlag
p1200
I0
sVChatRoomId
p1201
I0
sVEncryChatRoomId
p1202
g56
sVAttrStatus
p1203
I71783
sVStatues
p1204
I0
stp1205
Rp1206
I1
bag34
(g38
g39
(dp1207
VUserName
p1208
V@588c884fab8314f970e02096fd38decd
p1209
sVCity
p1210
g56
sVSnsFlag
p1211
I49
sVDisplayName
p1212
g56
sVUniFriend
p1213
I0
sVMemberCount
p1214
I0
sVOwnerUin
p1215
I0
sVMemberList
p1216
g52
sVAlias
p1217
g56
sVPYQuanPin
p1218
Vtong
p1219
sVSignature
p1220
V\u4e0d\u77e5\u9053\u4e0d\u660e\u4e86\u4e0d\u60f3\u8981 \u4e3a\u4ec0\u4e48\u6211\u7684\u5fc3\uff0c\u660e\u660e\u662f\u60f3\u9760\u8fd1\uff0c\u5374\u5b64\u5355\u5230\u9ece\u660e
p1221
sVRemarkPYInitial
p1222
VMTTZYPHP
p1223
sVContactFlag
p1224
I3
sVUin
p1225
I0
sVNickName
p1226
V\u7ae5
p1227
sVAppAccountFlag
p1228
I0
sVVerifyFlag
p1229
I0
sVRemarkPYQuanPin
p1230
VmaitiantongzongyanPHP
p1231
sVHeadImgUrl
p1232
V/cgi-bin/mmwebwx-bin/webwxgeticon?seq=628760251&username=@588c884fab8314f970e02096fd38decd&skey=@crypt_9c3dea4c_f5700a142e41b2a86f3977c50c30a560
p1233
sVKeyWord
p1234
Vton
p1235
sVProvince
p1236
g56
sVPYInitial
p1237
VT
p1238
sVRemarkName
p1239
V\u9ea6\u7530-\u7ae5\u5b97\u5ef6-PHP
p1240
sVIsOwner
p1241
I0
sVSex
p1242
I1
sVStarFriend
p1243
I0
sVHideInputBarFlag
p1244
I0
sVChatRoomId
p1245
I0
sVEncryChatRoomId
p1246
g56
sVAttrStatus
p1247
I129383
sVStatues
p1248
I0
stp1249
Rp1250
I1
bag34
(g38
g39
(dp1251
VUserName
p1252
V@98424380bfe1475302d7635c5e67d29c
p1253
sVCity
p1254
V\u82cf\u5dde
p1255
sVSnsFlag
p1256
I17
sVDisplayName
p1257
g56
sVUniFriend
p1258
I0
sVMemberCount
p1259
I0
sVOwnerUin
p1260
I0
sVMemberList
p1261
g52
sVAlias
p1262
g56
sVPYQuanPin
p1263
Vanjing
p1264
sVSignature
p1265
V\u5b89\u9759
p1266
sVRemarkPYInitial
p1267
VALLXY
p1268
sVContactFlag
p1269
I3
sVUin
p1270
I0
sVNickName
p1271
V\u5b89\u9759
p1272
sVAppAccountFlag
p1273
I0
sVVerifyFlag
p1274
I0
sVRemarkPYQuanPin
p1275
Vanliliuxiangyin
p1276
sVHeadImgUrl
p1277
V/cgi-bin/mmwebwx-bin/webwxgeticon?seq=662731738&username=@98424380bfe1475302d7635c5e67d29c&skey=@crypt_9c3dea4c_f5700a142e41b2a86f3977c50c30a560
p1278
sVKeyWord
p1279
VA13
p1280
sVProvince
p1281
V\u6c5f\u82cf
p1282
sVPYInitial
p1283
VAJ
p1284
sVRemarkName
p1285
V\u5b89\u7406-\u5218\u7fd4\u97f3
p1286
sVIsOwner
p1287
I0
sVSex
p1288
I1
sVStarFriend
p1289
I0
sVHideInputBarFlag
p1290
I0
sVChatRoomId
p1291
I0
sVEncryChatRoomId
p1292
g56
sVAttrStatus
p1293
I102439
sVStatues
p1294
I0
stp1295
Rp1296
I1
bag34
(g38
g39
(dp1297
VUserName
p1298
V@de84b08308f07a922c0186bda172da53d8a8e0acec655c03db3b1927d61ffff9
p1299
sVCity
p1300
g56
sVSnsFlag
p1301
I17
sVDisplayName
p1302
g56
sVUniFriend
p1303
I0
sVMemberCount
p1304
I0
sVOwnerUin
p1305
I0
sVMemberList
p1306
g52
sVAlias
p1307
g56
sVPYQuanPin
p1308
Vbaishuo
p1309
sVSignature
p1310
V\u552f\u6709\u5320\u5fc3\uff0c\u4e0d\u8d1f\u5149\u9634
p1311
sVRemarkPYInitial
p1312
VWZYJM
p1313
sVContactFlag
p1314
I3
sVUin
p1315
I0
sVNickName
p1316
V\u767d\u8bf4
p1317
sVAppAccountFlag
p1318
I0
sVVerifyFlag
p1319
I0
sVRemarkPYQuanPin
p1320
Vwuzhongyangjinming
p1321
sVHeadImgUrl
p1322
V/cgi-bin/mmwebwx-bin/webwxgeticon?seq=647544245&username=@de84b08308f07a922c0186bda172da53d8a8e0acec655c03db3b1927d61ffff9&skey=@crypt_9c3dea4c_f5700a142e41b2a86f3977c50c30a560
p1323
sVKeyWord
p1324
g56
sVProvince
p1325
V\u9752\u6d77
p1326
sVPYInitial
p1327
VBS
p1328
sVRemarkName
p1329
V\u6b66\u4e2d-\u6768\u91d1\u94ed
p1330
sVIsOwner
p1331
I0
sVSex
p1332
I1
sVStarFriend
p1333
I0
sVHideInputBarFlag
p1334
I0
sVChatRoomId
p1335
I0
sVEncryChatRoomId
p1336
g56
sVAttrStatus
p1337
I111717
sVStatues
p1338
I0
stp1339
Rp1340
I1
bag34
(g38
g39
(dp1341
VUserName
p1342
V@639cc52fcccc7aaeee54e5294c82d114a51be9a593e37589261e754cbd7df70a
p1343
sVCity
p1344
V\u6dee\u5357
p1345
sVSnsFlag
p1346
I17
sVDisplayName
p1347
g56
sVUniFriend
p1348
I0
sVMemberCount
p1349
I0
sVOwnerUin
p1350
I0
sVMemberList
p1351
g52
sVAlias
p1352
g56
sVPYQuanPin
p1353
Vxiaohui
p1354
sVSignature
p1355
V\u81ea\u4fe1\u7684\u5973\u5b69\u6700\u7f8e\uff01
p1356
sVRemarkPYInitial
p1357
VALCXH
p1358
sVContactFlag
p1359
I3
sVUin
p1360
I0
sVNickName
p1361
V\u5c0f\u60e0
p1362
sVAppAccountFlag
p1363
I0
sVVerifyFlag
p1364
I0
sVRemarkPYQuanPin
p1365
Vanlichenxihui
p1366
sVHeadImgUrl
p1367
V/cgi-bin/mmwebwx-bin/webwxgeticon?seq=647548201&username=@639cc52fcccc7aaeee54e5294c82d114a51be9a593e37589261e754cbd7df70a&skey=@crypt_9c3dea4c_f5700a142e41b2a86f3977c50c30a560
p1368
sVKeyWord
p1369
g56
sVProvince
p1370
V\u5b89\u5fbd
p1371
sVPYInitial
p1372
VXH
p1373
sVRemarkName
p1374
V\u5b89\u7406-\u9648\u7199\u60e0
p1375
sVIsOwner
p1376
I0
sVSex
p1377
I2
sVStarFriend
p1378
I0
sVHideInputBarFlag
p1379
I0
sVChatRoomId
p1380
I0
sVEncryChatRoomId
p1381
g56
sVAttrStatus
p1382
I131429
sVStatues
p1383
I0
stp1384
Rp1385
I1
bag34
(g38
g39
(dp1386
VUserName
p1387
V@64c2f430de40f941ea338f4679e9a20ffa71a9b7ddda88a1e797e138a2d9e65e
p1388
sVCity
p1389
V\u6f5c\u6c5f
p1390
sVSnsFlag
p1391
I17
sVDisplayName
p1392
g56
sVUniFriend
p1393
I0
sVMemberCount
p1394
I0
sVOwnerUin
p1395
I0
sVMemberList
p1396
g52
sVAlias
p1397
g56
sVPYQuanPin
p1398
VDmy
p1399
sVSignature
p1400
g56
sVRemarkPYInitial
p1401
VHKDMYUI
p1402
sVContactFlag
p1403
I3
sVUin
p1404
I0
sVNickName
p1405
VDmy
p1406
sVAppAccountFlag
p1407
I0
sVVerifyFlag
p1408
I0
sVRemarkPYQuanPin
p1409
VhaikedengmengyingUI
p1410
sVHeadImgUrl
p1411
V/cgi-bin/mmwebwx-bin/webwxgeticon?seq=662738719&username=@64c2f430de40f941ea338f4679e9a20ffa71a9b7ddda88a1e797e138a2d9e65e&skey=@crypt_9c3dea4c_f5700a142e41b2a86f3977c50c30a560
p1412
sVKeyWord
p1413
g56
sVProvince
p1414
V\u6e56\u5317
p1415
sVPYInitial
p1416
VDMY
p1417
sVRemarkName
p1418
V\u6c26\u6c2a-\u9093\u68a6\u83b9-UI
p1419
sVIsOwner
p1420
I0
sVSex
p1421
I2
sVStarFriend
p1422
I0
sVHideInputBarFlag
p1423
I0
sVChatRoomId
p1424
I0
sVEncryChatRoomId
p1425
g56
sVAttrStatus
p1426
I103207
sVStatues
p1427
I0
stp1428
Rp1429
I1
bag34
(g38
g39
(dp1430
VUserName
p1431
V@a921eed3faabfbd2386f41c1e6337692358ffc2cda3f4a3ab4e7c30d50bb5a6a
p1432
sVCity
p1433
V\u6d66\u4e1c\u65b0\u533a
p1434
sVSnsFlag
p1435
I17
sVDisplayName
p1436
g56
sVUniFriend
p1437
I0
sVMemberCount
p1438
I0
sVOwnerUin
p1439
I0
sVMemberList
p1440
g52
sVAlias
p1441
g56
sVPYQuanPin
p1442
VCherryZhao
p1443
sVSignature
p1444
g56
sVRemarkPYInitial
p1445
VYZXXSH
p1446
sVContactFlag
p1447
I3
sVUin
p1448
I0
sVNickName
p1449
VCherry Zhao
p1450
sVAppAccountFlag
p1451
I0
sVVerifyFlag
p1452
I0
sVRemarkPYQuanPin
p1453
Vyizhaoxiaoxiashanghai
p1454
sVHeadImgUrl
p1455
V/cgi-bin/mmwebwx-bin/webwxgeticon?seq=662740908&username=@a921eed3faabfbd2386f41c1e6337692358ffc2cda3f4a3ab4e7c30d50bb5a6a&skey=@crypt_9c3dea4c_f5700a142e41b2a86f3977c50c30a560
p1456
sVKeyWord
p1457
Vsho
p1458
sVProvince
p1459
V\u4e0a\u6d77
p1460
sVPYInitial
p1461
VCHERRYZHAO
p1462
sVRemarkName
p1463
V\u4f0a-\u8d75\u6653\u971e-\u4e0a\u6d77
p1464
sVIsOwner
p1465
I0
sVSex
p1466
I2
sVStarFriend
p1467
I0
sVHideInputBarFlag
p1468
I0
sVChatRoomId
p1469
I0
sVEncryChatRoomId
p1470
g56
sVAttrStatus
p1471
I103719
sVStatues
p1472
I0
stp1473
Rp1474
I1
bag34
(g38
g39
(dp1475
VUserName
p1476
V@03a84a63a45f7fd54f18400a7bcaccd4
p1477
sVCity
p1478
V\u8861\u6c34
p1479
sVSnsFlag
p1480
I17
sVDisplayName
p1481
g56
sVUniFriend
p1482
I0
sVMemberCount
p1483
I0
sVOwnerUin
p1484
I0
sVMemberList
p1485
g52
sVAlias
p1486
g56
sVPYQuanPin
p1487
Vqigongzi
p1488
sVSignature
p1489
g56
sVRemarkPYInitial
p1490
VYMBTJJ
p1491
sVContactFlag
p1492
I3
sVUin
p1493
I0
sVNickName
p1494
V\u4e03\u516c\u5b50
p1495
sVAppAccountFlag
p1496
I0
sVVerifyFlag
p1497
I0
sVRemarkPYQuanPin
p1498
Vyimeibutianjijian
p1499
sVHeadImgUrl
p1500
V/cgi-bin/mmwebwx-bin/webwxgeticon?seq=662741304&username=@03a84a63a45f7fd54f18400a7bcaccd4&skey=@crypt_9c3dea4c_f5700a142e41b2a86f3977c50c30a560
p1501
sVKeyWord
p1502
Vmmc
p1503
sVProvince
p1504
V\u6cb3\u5317
p1505
sVPYInitial
p1506
VQGZ
p1507
sVRemarkName
p1508
V\u4f0a-\u6885\u5e03\u5929-\u57fa\u5efa
p1509
sVIsOwner
p1510
I0
sVSex
p1511
I1
sVStarFriend
p1512
I0
sVHideInputBarFlag
p1513
I0
sVChatRoomId
p1514
I0
sVEncryChatRoomId
p1515
g56
sVAttrStatus
p1516
I4135
sVStatues
p1517
I0
stp1518
Rp1519
I1
bag34
(g38
g39
(dp1520
VUserName
p1521
V@bb68e8ab6a1ce42a2120b244244f1dcac959ab45ee1c4a19e5b4f9fd220b075d
p1522
sVCity
p1523
V\u5408\u80a5
p1524
sVSnsFlag
p1525
I17
sVDisplayName
p1526
g56
sVUniFriend
p1527
I0
sVMemberCount
p1528
I0
sVOwnerUin
p1529
I0
sVMemberList
p1530
g52
sVAlias
p1531
g56
sVPYQuanPin
p1532
Vkjzy
p1533
sVSignature
p1534
VStay Hungry, Stay Foolish
p1535
sVRemarkPYInitial
p1536
VALSJ
p1537
sVContactFlag
p1538
I3
sVUin
p1539
I0
sVNickName
p1540
Vkjzy
p1541
sVAppAccountFlag
p1542
I0
sVVerifyFlag
p1543
I0
sVRemarkPYQuanPin
p1544
Vanlisongjian
p1545
sVHeadImgUrl
p1546
V/cgi-bin/mmwebwx-bin/webwxgeticon?seq=662694445&username=@bb68e8ab6a1ce42a2120b244244f1dcac959ab45ee1c4a19e5b4f9fd220b075d&skey=@crypt_9c3dea4c_f5700a142e41b2a86f3977c50c30a560
p1547
sVKeyWord
p1548
g56
sVProvince
p1549
V\u5b89\u5fbd
p1550
sVPYInitial
p1551
VKJZY
p1552
sVRemarkName
p1553
V\u5b89\u7406-\u5b8b\u5065
p1554
sVIsOwner
p1555
I0
sVSex
p1556
I1
sVStarFriend
p1557
I0
sVHideInputBarFlag
p1558
I0
sVChatRoomId
p1559
I0
sVEncryChatRoomId
p1560
g56
sVAttrStatus
p1561
I17006599
sVStatues
p1562
I0
stp1563
Rp1564
I1
bag34
(g38
g39
(dp1565
VUserName
p1566
V@cef46c35bb7701c5c38be3fa0f3e19ac626e133bba4df235157e15202dbc73e3
p1567
sVCity
p1568
g56
sVSnsFlag
p1569
I145
sVDisplayName
p1570
g56
sVUniFriend
p1571
I0
sVMemberCount
p1572
I0
sVOwnerUin
p1573
I0
sVMemberList
p1574
g52
sVAlias
p1575
g56
sVPYQuanPin
p1576
Vyushi
p1577
sVSignature
p1578
V\u51b2\u51b2\u51b2\u000a\u505a\u6211\u81ea\u5df1\u7684\u82f1\u96c4\u000a\u4e16\u754c\u5728\u6211\u9762\u524d\u000a\u672a\u6765\u5728\u6211\u773c\u4e2d
p1579
sVRemarkPYInitial
p1580
VALYC
p1581
sVContactFlag
p1582
I3
sVUin
p1583
I0
sVNickName
p1584
V\u4e8e\u662f
p1585
sVAppAccountFlag
p1586
I0
sVVerifyFlag
p1587
I0
sVRemarkPYQuanPin
p1588
Vanliyuchong
p1589
sVHeadImgUrl
p1590
V/cgi-bin/mmwebwx-bin/webwxgeticon?seq=662753050&username=@cef46c35bb7701c5c38be3fa0f3e19ac626e133bba4df235157e15202dbc73e3&skey=@crypt_9c3dea4c_f5700a142e41b2a86f3977c50c30a560
p1591
sVKeyWord
p1592
g56
sVProvince
p1593
g56
sVPYInitial
p1594
VYS
p1595
sVRemarkName
p1596
V\u5b89\u7406-\u4e8e\u51b2
p1597
sVIsOwner
p1598
I0
sVSex
p1599
I1
sVStarFriend
p1600
I0
sVHideInputBarFlag
p1601
I0
sVChatRoomId
p1602
I0
sVEncryChatRoomId
p1603
g56
sVAttrStatus
p1604
I110693
sVStatues
p1605
I0
stp1606
Rp1607
I1
bag34
(g38
g39
(dp1608
VUserName
p1609
V@26defabdeb5e2a6f7ab120f3ee2207df22846cf505231e1f12f5af3128dc8df9
p1610
sVCity
p1611
V\u79e6\u7687\u5c9b
p1612
sVSnsFlag
p1613
I17
sVDisplayName
p1614
g56
sVUniFriend
p1615
I0
sVMemberCount
p1616
I0
sVOwnerUin
p1617
I0
sVMemberList
p1618
g52
sVAlias
p1619
g56
sVPYQuanPin
p1620
Vwangshilei
p1621
sVSignature
p1622
V\u4f60\u731c
p1623
sVRemarkPYInitial
p1624
VWZWSLSJWJ
p1625
sVContactFlag
p1626
I3
sVUin
p1627
I0
sVNickName
p1628
V\u738b\u77f3\u78ca
p1629
sVAppAccountFlag
p1630
I0
sVVerifyFlag
p1631
I0
sVRemarkPYQuanPin
p1632
Vwuzhongwangshileishujuwajue
p1633
sVHeadImgUrl
p1634
V/cgi-bin/mmwebwx-bin/webwxgeticon?seq=662753192&username=@26defabdeb5e2a6f7ab120f3ee2207df22846cf505231e1f12f5af3128dc8df9&skey=@crypt_9c3dea4c_f5700a142e41b2a86f3977c50c30a560
p1635
sVKeyWord
p1636
g56
sVProvince
p1637
V\u6cb3\u5317
p1638
sVPYInitial
p1639
VWSL
p1640
sVRemarkName
p1641
V\u6b66\u4e2d-\u738b\u77f3\u78ca-\u6570\u636e\u6316\u6398
p1642
sVIsOwner
p1643
I0
sVSex
p1644
I1
sVStarFriend
p1645
I0
sVHideInputBarFlag
p1646
I0
sVChatRoomId
p1647
I0
sVEncryChatRoomId
p1648
g56
sVAttrStatus
p1649
I102949
sVStatues
p1650
I0
stp1651
Rp1652
I1
bag34
(g38
g39
(dp1653
VUserName
p1654
V@59c6c92a3793ea3ec4a001ab09b2252d
p1655
sVCity
p1656
V\u6ca7\u5dde
p1657
sVSnsFlag
p1658
I49
sVDisplayName
p1659
g56
sVUniFriend
p1660
I0
sVMemberCount
p1661
I0
sVOwnerUin
p1662
I0
sVMemberList
p1663
g52
sVAlias
p1664
g56
sVPYQuanPin
p1665
Vzhangxiwang
p1666
sVSignature
p1667
V\u54c8\u54c8\u54c8\u54c8
p1668
sVRemarkPYInitial
p1669
VXYZXWJJ
p1670
sVContactFlag
p1671
I3
sVUin
p1672
I0
sVNickName
p1673
V\u5f20\u5e0c\u671b
p1674
sVAppAccountFlag
p1675
I0
sVVerifyFlag
p1676
I0
sVRemarkPYQuanPin
p1677
Vxiuyuanzhangxiwangjijian
p1678
sVHeadImgUrl
p1679
V/cgi-bin/mmwebwx-bin/webwxgeticon?seq=662719291&username=@59c6c92a3793ea3ec4a001ab09b2252d&skey=@crypt_9c3dea4c_f5700a142e41b2a86f3977c50c30a560
p1680
sVKeyWord
p1681
Vzha
p1682
sVProvince
p1683
V\u6cb3\u5317
p1684
sVPYInitial
p1685
VZXW
p1686
sVRemarkName
p1687
V\u4fee\u9662-\u5f20\u5e0c\u671b-\u57fa\u5efa
p1688
sVIsOwner
p1689
I0
sVSex
p1690
I1
sVStarFriend
p1691
I0
sVHideInputBarFlag
p1692
I0
sVChatRoomId
p1693
I0
sVEncryChatRoomId
p1694
g56
sVAttrStatus
p1695
I102435
sVStatues
p1696
I0
stp1697
Rp1698
I1
bag34
(g38
g39
(dp1699
VUserName
p1700
V@47196b5fd0f5d0d635a9f75b168467415fef54458feefba808dda304d359f815
p1701
sVCity
p1702
VLos Angeles
p1703
sVSnsFlag
p1704
I177
sVDisplayName
p1705
g56
sVUniFriend
p1706
I0
sVMemberCount
p1707
I0
sVOwnerUin
p1708
I0
sVMemberList
p1709
g52
sVAlias
p1710
g56
sVPYQuanPin
p1711
VMagicD
p1712
sVSignature
p1713
V<span class="emoji emoji1f64f"></span><span class="emoji emoji1f64f"></span><span class="emoji emoji1f64f"></span>
p1714
sVRemarkPYInitial
p1715
VALBDRLX
p1716
sVContactFlag
p1717
I3
sVUin
p1718
I0
sVNickName
p1719
VMagic. D
p1720
sVAppAccountFlag
p1721
I0
sVVerifyFlag
p1722
I0
sVRemarkPYQuanPin
p1723
Vanlibaidianrangliuxue
p1724
sVHeadImgUrl
p1725
V/cgi-bin/mmwebwx-bin/webwxgeticon?seq=662714444&username=@47196b5fd0f5d0d635a9f75b168467415fef54458feefba808dda304d359f815&skey=@crypt_9c3dea4c_f5700a142e41b2a86f3977c50c30a560
p1726
sVKeyWord
p1727
g56
sVProvince
p1728
VCalifornia
p1729
sVPYInitial
p1730
VMAGICD
p1731
sVRemarkName
p1732
V\u5b89\u7406-\u767d\u5178\u8ba9-\u7559\u5b66
p1733
sVIsOwner
p1734
I0
sVSex
p1735
I2
sVStarFriend
p1736
I0
sVHideInputBarFlag
p1737
I0
sVChatRoomId
p1738
I0
sVEncryChatRoomId
p1739
g56
sVAttrStatus
p1740
I4296309
sVStatues
p1741
I0
stp1742
Rp1743
I1
bag34
(g38
g39
(dp1744
VUserName
p1745
V@21ca05014eb8ff48827449d7cf9642af
p1746
sVCity
p1747
V\u901a\u5dde
p1748
sVSnsFlag
p1749
I17
sVDisplayName
p1750
g56
sVUniFriend
p1751
I0
sVMemberCount
p1752
I0
sVOwnerUin
p1753
I0
sVMemberList
p1754
g52
sVAlias
p1755
g56
sVPYQuanPin
p1756
Vtianyi
p1757
sVSignature
p1758
V\u770b\u522b\u4eba\u4e0d\u987a\u773c\uff0c\u662f\u81ea\u5df1\u7684\u4fee\u517b\u4e0d\u591f
p1759
sVRemarkPYInitial
p1760
VXYWTY
p1761
sVContactFlag
p1762
I3
sVUin
p1763
I0
sVNickName
p1764
V\u5929\u4e00
p1765
sVAppAccountFlag
p1766
I0
sVVerifyFlag
p1767
I0
sVRemarkPYQuanPin
p1768
Vxiuyuanwangtianyi
p1769
sVHeadImgUrl
p1770
V/cgi-bin/mmwebwx-bin/webwxgeticon?seq=662762469&username=@21ca05014eb8ff48827449d7cf9642af&skey=@crypt_9c3dea4c_f5700a142e41b2a86f3977c50c30a560
p1771
sVKeyWord
p1772
Vtia
p1773
sVProvince
p1774
V\u5317\u4eac
p1775
sVPYInitial
p1776
VTY
p1777
sVRemarkName
p1778
V\u4fee\u9662-\u738b\u5929\u4e00
p1779
sVIsOwner
p1780
I0
sVSex
p1781
I1
sVStarFriend
p1782
I0
sVHideInputBarFlag
p1783
I0
sVChatRoomId
p1784
I0
sVEncryChatRoomId
p1785
g56
sVAttrStatus
p1786
I12415
sVStatues
p1787
I0
stp1788
Rp1789
I1
bag34
(g38
g39
(dp1790
VUserName
p1791
V@89a9c9ed7907d8be33e24b3bc480c9cfa779092743f91ad642120f268111bccc
p1792
sVCity
p1793
V\u6e29\u5dde
p1794
sVSnsFlag
p1795
I17
sVDisplayName
p1796
g56
sVUniFriend
p1797
I0
sVMemberCount
p1798
I0
sVOwnerUin
p1799
I0
sVMemberList
p1800
g52
sVAlias
p1801
g56
sVPYQuanPin
p1802
VRealyore
p1803
sVSignature
p1804
VWe sat and drank with the sun on our shoulders
p1805
sVRemarkPYInitial
p1806
VMTGRY3DMX
p1807
sVContactFlag
p1808
I3
sVUin
p1809
I0
sVNickName
p1810
VReal yore
p1811
sVAppAccountFlag
p1812
I0
sVVerifyFlag
p1813
I0
sVRemarkPYQuanPin
p1814
Vmaitiangaoruiyao3Dmoxing
p1815
sVHeadImgUrl
p1816
V/cgi-bin/mmwebwx-bin/webwxgeticon?seq=662762473&username=@89a9c9ed7907d8be33e24b3bc480c9cfa779092743f91ad642120f268111bccc&skey=@crypt_9c3dea4c_f5700a142e41b2a86f3977c50c30a560
p1817
sVKeyWord
p1818
g56
sVProvince
p1819
V\u6d59\u6c5f
p1820
sVPYInitial
p1821
VREALYORE
p1822
sVRemarkName
p1823
V\u9ea6\u7530-\u9ad8\u745e\u7476-3D\u6a21\u578b
p1824
sVIsOwner
p1825
I0
sVSex
p1826
I1
sVStarFriend
p1827
I0
sVHideInputBarFlag
p1828
I0
sVChatRoomId
p1829
I0
sVEncryChatRoomId
p1830
g56
sVAttrStatus
p1831
I33558951
sVStatues
p1832
I0
stp1833
Rp1834
I1
bag34
(g38
g39
(dp1835
VUserName
p1836
V@8ac94d4d954217ab94b5550015c12622d117f9c5acb44adf27a91b6d0e4e2e0c
p1837
sVCity
p1838
V\u8861\u6c34
p1839
sVSnsFlag
p1840
I1
sVDisplayName
p1841
g56
sVUniFriend
p1842
I0
sVMemberCount
p1843
I0
sVOwnerUin
p1844
I0
sVMemberList
p1845
g52
sVAlias
p1846
g56
sVPYQuanPin
p1847
Vaizhichengshang
p1848
sVSignature
p1849
V\u6ca1\u6709\u6700\u597d\u7684\uff0c\u53ea\u6709\u66f4\u597d\u7684\uff01
p1850
sVRemarkPYInitial
p1851
VXYLXY
p1852
sVContactFlag
p1853
I3
sVUin
p1854
I0
sVNickName
p1855
V\u7231\u81f3\u6210\u4f24
p1856
sVAppAccountFlag
p1857
I0
sVVerifyFlag
p1858
I0
sVRemarkPYQuanPin
p1859
Vxiuyuanliuxueyang
p1860
sVHeadImgUrl
p1861
V/cgi-bin/mmwebwx-bin/webwxgeticon?seq=627100900&username=@8ac94d4d954217ab94b5550015c12622d117f9c5acb44adf27a91b6d0e4e2e0c&skey=@crypt_9c3dea4c_f5700a142e41b2a86f3977c50c30a560
p1862
sVKeyWord
p1863
g56
sVProvince
p1864
V\u6cb3\u5317
p1865
sVPYInitial
p1866
VAZCS
p1867
sVRemarkName
p1868
V\u4fee\u9662-\u5218\u5b66\u9633
p1869
sVIsOwner
p1870
I0
sVSex
p1871
I1
sVStarFriend
p1872
I0
sVHideInputBarFlag
p1873
I0
sVChatRoomId
p1874
I0
sVEncryChatRoomId
p1875
g56
sVAttrStatus
p1876
I103037
sVStatues
p1877
I0
stp1878
Rp1879
I1
bag34
(g38
g39
(dp1880
VUserName
p1881
V@89a8b88f66d8cf73e150a68a262f3fe75a02d2bfb9b484c6214b4d97f40f77af
p1882
sVCity
p1883
V\u5357\u901a
p1884
sVSnsFlag
p1885
I17
sVDisplayName
p1886
g56
sVUniFriend
p1887
I0
sVMemberCount
p1888
I0
sVOwnerUin
p1889
I0
sVMemberList
p1890
g52
sVAlias
p1891
g56
sVPYQuanPin
p1892
Vspanclassemojiemoji1f33espanwuyuanyuanspanclassemojiemoji1f490span
p1893
sVSignature
p1894
V\u53ef\u53ef\u9999\u5948\u513f
p1895
sVRemarkPYInitial
p1896
VALWYYSK
p1897
sVContactFlag
p1898
I3
sVUin
p1899
I0
sVNickName
p1900
V\U0001f33e \u5434\u5a9b\u5a9b\U0001f490
p1901
sVAppAccountFlag
p1902
I0
sVVerifyFlag
p1903
I0
sVRemarkPYQuanPin
p1904
Vanliwuyuanyuanshuke
p1905
sVHeadImgUrl
p1906
V/cgi-bin/mmwebwx-bin/webwxgeticon?seq=662765563&username=@89a8b88f66d8cf73e150a68a262f3fe75a02d2bfb9b484c6214b4d97f40f77af&skey=@crypt_9c3dea4c_f5700a142e41b2a86f3977c50c30a560
p1907
sVKeyWord
p1908
g56
sVProvince
p1909
V\u6c5f\u82cf
p1910
sVPYInitial
p1911
VSPANCLASSEMOJIEMOJI1F33ESPANWYYSPANCLASSEMOJIEMOJI1F490SPAN
p1912
sVRemarkName
p1913
V\u5b89\u7406-\u5434\u5a9b\u5a9b-\u8212\u5ba2
p1914
sVIsOwner
p1915
I0
sVSex
p1916
I2
sVStarFriend
p1917
I0
sVHideInputBarFlag
p1918
I0
sVChatRoomId
p1919
I0
sVEncryChatRoomId
p1920
g56
sVAttrStatus
p1921
I33656869
sVStatues
p1922
I0
stp1923
Rp1924
I1
bag34
(g38
g39
(dp1925
VUserName
p1926
V@0d15d2c0b097d995a0937e334297a9f8c9dd549b76fc5207b796d9d4a453afac
p1927
sVCity
p1928
V\u4e34\u6c82
p1929
sVSnsFlag
p1930
I1
sVDisplayName
p1931
g56
sVUniFriend
p1932
I0
sVMemberCount
p1933
I0
sVOwnerUin
p1934
I0
sVMemberList
p1935
g52
sVAlias
p1936
g56
sVPYQuanPin
p1937
Vhuayidianqi13173092903
p1938
sVSignature
p1939
V\u845b\u7eea\u73cd
p1940
sVRemarkPYInitial
p1941
VLYGGLHMM
p1942
sVContactFlag
p1943
I3
sVUin
p1944
I0
sVNickName
p1945
V\u534e\u4ebf\u7535\u566813173092903
p1946
sVAppAccountFlag
p1947
I0
sVVerifyFlag
p1948
I0
sVRemarkPYQuanPin
p1949
Vlinyigegulihaomama
p1950
sVHeadImgUrl
p1951
V/cgi-bin/mmwebwx-bin/webwxgeticon?seq=662764245&username=@0d15d2c0b097d995a0937e334297a9f8c9dd549b76fc5207b796d9d4a453afac&skey=@crypt_9c3dea4c_f5700a142e41b2a86f3977c50c30a560
p1952
sVKeyWord
p1953
g56
sVProvince
p1954
V\u5c71\u4e1c
p1955
sVPYInitial
p1956
VHYDQ13173092903
p1957
sVRemarkName
p1958
V\u4e34\u6c82-\u845b\u59d1-\u674e\u8c6a\u5988\u5988
p1959
sVIsOwner
p1960
I0
sVSex
p1961
I2
sVStarFriend
p1962
I0
sVHideInputBarFlag
p1963
I0
sVChatRoomId
p1964
I0
sVEncryChatRoomId
p1965
g56
sVAttrStatus
p1966
I135173
sVStatues
p1967
I0
stp1968
Rp1969
I1
bag34
(g38
g39
(dp1970
VUserName
p1971
V@89d6652c3920d1ca55bd1497f152fc66
p1972
sVCity
p1973
V\u8861\u6c34
p1974
sVSnsFlag
p1975
I1
sVDisplayName
p1976
g56
sVUniFriend
p1977
I0
sVMemberCount
p1978
I0
sVOwnerUin
p1979
I0
sVMemberList
p1980
g52
sVAlias
p1981
g56
sVPYQuanPin
p1982
Vxingfuyijia
p1983
sVSignature
p1984
V\u8d70\u81ea\u5df1\u7684\u8def\u8ba9\u522b\u4eba\u8bf4\u53bb\u5427
p1985
sVRemarkPYInitial
p1986
VYTHYSL
p1987
sVContactFlag
p1988
I3
sVUin
p1989
I0
sVNickName
p1990
V\u5e78\u798f\u4e00\u5bb6
p1991
sVAppAccountFlag
p1992
I0
sVVerifyFlag
p1993
I0
sVRemarkPYQuanPin
p1994
Vyitianhaiyanshoulou
p1995
sVHeadImgUrl
p1996
V/cgi-bin/mmwebwx-bin/webwxgeticon?seq=662718400&username=@89d6652c3920d1ca55bd1497f152fc66&skey=@crypt_9c3dea4c_f5700a142e41b2a86f3977c50c30a560
p1997
sVKeyWord
p1998
Vtia
p1999
sVProvince
p2000
V\u6cb3\u5317
p2001
sVPYInitial
p2002
VXFYJ
p2003
sVRemarkName
p2004
V\u4f0a-\u7530\u6d77\u71d5-\u552e\u697c
p2005
sVIsOwner
p2006
I0
sVSex
p2007
I2
sVStarFriend
p2008
I0
sVHideInputBarFlag
p2009
I0
sVChatRoomId
p2010
I0
sVEncryChatRoomId
p2011
g56
sVAttrStatus
p2012
I4735
sVStatues
p2013
I0
stp2014
Rp2015
I1
bag34
(g38
g39
(dp2016
VUserName
p2017
V@70737651fdab0cfd55a4eb4064e61476fc472e74fd3b5e56a954fa583592103d
p2018
sVCity
p2019
V\u676d\u5dde
p2020
sVSnsFlag
p2021
I145
sVDisplayName
p2022
g56
sVUniFriend
p2023
I0
sVMemberCount
p2024
I0
sVOwnerUin
p2025
I0
sVMemberList
p2026
g52
sVAlias
p2027
g56
sVPYQuanPin
p2028
Vrenzhendelei
p2029
sVSignature
p2030
g56
sVRemarkPYInitial
p2031
VHSXRC
p2032
sVContactFlag
p2033
I3
sVUin
p2034
I0
sVNickName
p2035
V\u8ba4\u771f\u7684\u6cea
p2036
sVAppAccountFlag
p2037
I0
sVVerifyFlag
p2038
I0
sVRemarkPYQuanPin
p2039
VhangsuxiaoriC
p2040
sVHeadImgUrl
p2041
V/cgi-bin/mmwebwx-bin/webwxgeticon?seq=647560959&username=@70737651fdab0cfd55a4eb4064e61476fc472e74fd3b5e56a954fa583592103d&skey=@crypt_9c3dea4c_f5700a142e41b2a86f3977c50c30a560
p2042
sVKeyWord
p2043
g56
sVProvince
p2044
V\u6d59\u6c5f
p2045
sVPYInitial
p2046
VRZDL
p2047
sVRemarkName
p2048
V\u676d-\u82cf\u5c0f\u65e5-C++
p2049
sVIsOwner
p2050
I0
sVSex
p2051
I1
sVStarFriend
p2052
I0
sVHideInputBarFlag
p2053
I0
sVChatRoomId
p2054
I0
sVEncryChatRoomId
p2055
g56
sVAttrStatus
p2056
I112741
sVStatues
p2057
I0
stp2058
Rp2059
I1
bag34
(g38
g39
(dp2060
VUserName
p2061
V@f293012670d690ba37585cc15d510557eace78873db2b6d5527fb3c0cf2479f2
p2062
sVCity
p2063
V\u671d\u9633
p2064
sVSnsFlag
p2065
I17
sVDisplayName
p2066
g56
sVUniFriend
p2067
I0
sVMemberCount
p2068
I0
sVOwnerUin
p2069
I0
sVMemberList
p2070
g52
sVAlias
p2071
g56
sVPYQuanPin
p2072
Vwanlinggu
p2073
sVSignature
p2074
V\u4e0a\u4e2a\u5c0f\u73ed\u513f\uff0c\u6323\u4e2a\u5c0f\u94b1\u513f
p2075
sVRemarkPYInitial
p2076
VBJSQM
p2077
sVContactFlag
p2078
I3
sVUin
p2079
I0
sVNickName
p2080
V\u665a\u7075\u8c37
p2081
sVAppAccountFlag
p2082
I0
sVVerifyFlag
p2083
I0
sVRemarkPYQuanPin
p2084
Vbeijingshangqiaomei
p2085
sVHeadImgUrl
p2086
V/cgi-bin/mmwebwx-bin/webwxgeticon?seq=662701595&username=@f293012670d690ba37585cc15d510557eace78873db2b6d5527fb3c0cf2479f2&skey=@crypt_9c3dea4c_f5700a142e41b2a86f3977c50c30a560
p2087
sVKeyWord
p2088
g56
sVProvince
p2089
V\u5317\u4eac
p2090
sVPYInitial
p2091
VWLG
p2092
sVRemarkName
p2093
V\u5317\u4eac-\u5c1a\u5de7\u59b9-
p2094
sVIsOwner
p2095
I0
sVSex
p2096
I2
sVStarFriend
p2097
I0
sVHideInputBarFlag
p2098
I0
sVChatRoomId
p2099
I0
sVEncryChatRoomId
p2100
g56
sVAttrStatus
p2101
I102439
sVStatues
p2102
I0
stp2103
Rp2104
I1
bag34
(g38
g39
(dp2105
VUserName
p2106
V@e422ec2ff2d71120959d7da03f56d0d3a0fca33876719639ae09d37182162676
p2107
sVCity
p2108
V\u5408\u80a5
p2109
sVSnsFlag
p2110
I17
sVDisplayName
p2111
g56
sVUniFriend
p2112
I0
sVMemberCount
p2113
I0
sVOwnerUin
p2114
I0
sVMemberList
p2115
g52
sVAlias
p2116
g56
sVPYQuanPin
p2117
Vlingxiner
p2118
sVSignature
p2119
V\u6709\u6240\u51fa\u624d\u6709\u6240\u5f97\uff0ccome on!!!
p2120
sVRemarkPYInitial
p2121
VALCF
p2122
sVContactFlag
p2123
I3
sVUin
p2124
I0
sVNickName
p2125
V\u51cc\u99a8\u513f
p2126
sVAppAccountFlag
p2127
I0
sVVerifyFlag
p2128
I0
sVRemarkPYQuanPin
p2129
Vanlichenfei
p2130
sVHeadImgUrl
p2131
V/cgi-bin/mmwebwx-bin/webwxgeticon?seq=662739904&username=@e422ec2ff2d71120959d7da03f56d0d3a0fca33876719639ae09d37182162676&skey=@crypt_9c3dea4c_f5700a142e41b2a86f3977c50c30a560
p2132
sVKeyWord
p2133
g56
sVProvince
p2134
V\u5b89\u5fbd
p2135
sVPYInitial
p2136
VLXE
p2137
sVRemarkName
p2138
V\u5b89\u7406-\u9648\u83f2
p2139
sVIsOwner
p2140
I0
sVSex
p2141
I2
sVStarFriend
p2142
I0
sVHideInputBarFlag
p2143
I0
sVChatRoomId
p2144
I0
sVEncryChatRoomId
p2145
g56
sVAttrStatus
p2146
I102501
sVStatues
p2147
I0
stp2148
Rp2149
I1
bag34
(g38
g39
(dp2150
VUserName
p2151
V@63366c62557e5fbabaf920720845602d65e06ab280d89667aa8827601b7125bf
p2152
sVCity
p2153
V\u676d\u5dde
p2154
sVSnsFlag
p2155
I49
sVDisplayName
p2156
g56
sVUniFriend
p2157
I0
sVMemberCount
p2158
I0
sVOwnerUin
p2159
I0
sVMemberList
p2160
g52
sVAlias
p2161
g56
sVPYQuanPin
p2162
VMIKEY3D
p2163
sVSignature
p2164
VWhat goes around comes around 
p2165
sVRemarkPYInitial
p2166
VMTMIKEYYL
p2167
sVContactFlag
p2168
I1
sVUin
p2169
I0
sVNickName
p2170
VM I K E Y 3 D
p2171
sVAppAccountFlag
p2172
I0
sVVerifyFlag
p2173
I0
sVRemarkPYQuanPin
p2174
Vmaitianmikeyyilang
p2175
sVHeadImgUrl
p2176
V/cgi-bin/mmwebwx-bin/webwxgeticon?seq=662760269&username=@63366c62557e5fbabaf920720845602d65e06ab280d89667aa8827601b7125bf&skey=@crypt_9c3dea4c_f5700a142e41b2a86f3977c50c30a560
p2177
sVKeyWord
p2178
g56
sVProvince
p2179
V\u6d59\u6c5f
p2180
sVPYInitial
p2181
VMIKEY3D
p2182
sVRemarkName
p2183
V\u9ea6\u7530-mikey-\u4f0a\u6717
p2184
sVIsOwner
p2185
I0
sVSex
p2186
I1
sVStarFriend
p2187
I0
sVHideInputBarFlag
p2188
I0
sVChatRoomId
p2189
I0
sVEncryChatRoomId
p2190
g56
sVAttrStatus
p2191
I37851751
sVStatues
p2192
I0
stp2193
Rp2194
I1
bag34
(g38
g39
(dp2195
VUserName
p2196
V@d3fb55b25a6eb6a1c14c636fccffdeaa
p2197
sVCity
p2198
V\u6e29\u5dde
p2199
sVSnsFlag
p2200
I17
sVDisplayName
p2201
g56
sVUniFriend
p2202
I0
sVMemberCount
p2203
I0
sVOwnerUin
p2204
I0
sVMemberList
p2205
g52
sVAlias
p2206
g56
sVPYQuanPin
p2207
Vwuti
p2208
sVSignature
p2209
V\u7eb5\u6709\u75be\u98ce\u8d77\uff0c\u4eba\u751f\u4e0d\u8a00\u5f03
p2210
sVRemarkPYInitial
p2211
VMTWGMDN
p2212
sVContactFlag
p2213
I1
sVUin
p2214
I0
sVNickName
p2215
V\u5434\u9898
p2216
sVAppAccountFlag
p2217
I0
sVVerifyFlag
p2218
I0
sVRemarkPYQuanPin
p2219
Vmaitianwuguangmandaniu
p2220
sVHeadImgUrl
p2221
V/cgi-bin/mmwebwx-bin/webwxgeticon?seq=633050519&username=@d3fb55b25a6eb6a1c14c636fccffdeaa&skey=@crypt_9c3dea4c_f5700a142e41b2a86f3977c50c30a560
p2222
sVKeyWord
p2223
Veti
p2224
sVProvince
p2225
V\u6d59\u6c5f
p2226
sVPYInitial
p2227
VWT
p2228
sVRemarkName
p2229
V\u9ea6\u7530-\u5434\u5149\u6ee1-\u5927\u725b
p2230
sVIsOwner
p2231
I0
sVSex
p2232
I1
sVStarFriend
p2233
I0
sVHideInputBarFlag
p2234
I0
sVChatRoomId
p2235
I0
sVEncryChatRoomId
p2236
g56
sVAttrStatus
p2237
I118183
sVStatues
p2238
I0
stp2239
Rp2240
I1
bag34
(g38
g39
(dp2241
VUserName
p2242
V@3166d36776d0ff4f0ccc477537253289215fef1fce75f460a5758bc0f4b9b1c6
p2243
sVCity
p2244
V\u671d\u9633
p2245
sVSnsFlag
p2246
I17
sVDisplayName
p2247
g56
sVUniFriend
p2248
I0
sVMemberCount
p2249
I0
sVOwnerUin
p2250
I0
sVMemberList
p2251
g52
sVAlias
p2252
g56
sVPYQuanPin
p2253
Vzhangwenjie
p2254
sVSignature
p2255
V\u60c5\u4e0d\u77e5\u6240\u8d77 \u4e00\u5f80\u800c\u6df1 18611551264
p2256
sVRemarkPYInitial
p2257
VBHZWJ06
p2258
sVContactFlag
p2259
I3
sVUin
p2260
I0
sVNickName
p2261
V\u5f20\u6587\u6770
p2262
sVAppAccountFlag
p2263
I0
sVVerifyFlag
p2264
I0
sVRemarkPYQuanPin
p2265
Vbinhezhangwenjie06
p2266
sVHeadImgUrl
p2267
V/cgi-bin/mmwebwx-bin/webwxgeticon?seq=662768312&username=@3166d36776d0ff4f0ccc477537253289215fef1fce75f460a5758bc0f4b9b1c6&skey=@crypt_9c3dea4c_f5700a142e41b2a86f3977c50c30a560
p2268
sVKeyWord
p2269
Vzha
p2270
sVProvince
p2271
V\u5317\u4eac
p2272
sVPYInitial
p2273
VZWJ
p2274
sVRemarkName
p2275
V\u6ee8\u6cb3-\u5f20\u6587\u6770-06
p2276
sVIsOwner
p2277
I0
sVSex
p2278
I1
sVStarFriend
p2279
I0
sVHideInputBarFlag
p2280
I0
sVChatRoomId
p2281
I0
sVEncryChatRoomId
p2282
g56
sVAttrStatus
p2283
I4199
sVStatues
p2284
I0
stp2285
Rp2286
I1
bag34
(g38
g39
(dp2287
VUserName
p2288
V@91558d99073693745b77817db8d9cc15
p2289
sVCity
p2290
V\u6d77\u6dc0
p2291
sVSnsFlag
p2292
I17
sVDisplayName
p2293
g56
sVUniFriend
p2294
I0
sVMemberCount
p2295
I0
sVOwnerUin
p2296
I0
sVMemberList
p2297
g52
sVAlias
p2298
g56
sVPYQuanPin
p2299
Vmiaoqimiao
p2300
sVSignature
p2301
V\u5fc3\u6709\u731b\u864e\uff0c\u7ec6\u55c5\u8537\u8587
p2302
sVRemarkPYInitial
p2303
VRRZTMXM
p2304
sVContactFlag
p2305
I3
sVUin
p2306
I0
sVNickName
p2307
V\u55b5\u4e03\u79d2
p2308
sVAppAccountFlag
p2309
I0
sVVerifyFlag
p2310
I0
sVRemarkPYQuanPin
p2311
Vrenrenzhaotianmengxiangmu
p2312
sVHeadImgUrl
p2313
V/cgi-bin/mmwebwx-bin/webwxgeticon?seq=662769365&username=@91558d99073693745b77817db8d9cc15&skey=@crypt_9c3dea4c_f5700a142e41b2a86f3977c50c30a560
p2314
sVKeyWord
p2315
Vshe
p2316
sVProvince
p2317
V\u5317\u4eac
p2318
sVPYInitial
p2319
VMQM
p2320
sVRemarkName
p2321
V\u4eba\u4eba-\u8d75\u5929\u68a6-\u9879\u76ee
p2322
sVIsOwner
p2323
I0
sVSex
p2324
I2
sVStarFriend
p2325
I0
sVHideInputBarFlag
p2326
I0
sVChatRoomId
p2327
I0
sVEncryChatRoomId
p2328
g56
sVAttrStatus
p2329
I101503
sVStatues
p2330
I0
stp2331
Rp2332
I1
bag34
(g38
g39
(dp2333
VUserName
p2334
V@1bb8c09f9611eca410cc0171d6b8ad30
p2335
sVCity
p2336
V\u897f\u57ce
p2337
sVSnsFlag
p2338
I17
sVDisplayName
p2339
g56
sVUniFriend
p2340
I0
sVMemberCount
p2341
I0
sVOwnerUin
p2342
I0
sVMemberList
p2343
g52
sVAlias
p2344
g56
sVPYQuanPin
p2345
V???????????????
p2346
sVSignature
p2347
V\u60ef\u7740\u6211\u7684\u4eba\u624d\u6709\u8d44\u683c\u7ba1\u6211
p2348
sVRemarkPYInitial
p2349
VRRWYSSJ
p2350
sVContactFlag
p2351
I3
sVUin
p2352
I0
sVNickName
p2353
V\u0f04\u0f05\u0f02\u0f07\u2081\u2085\u2088\u2080\u2081\u2083\u2080\u2082\u2088\u2088\u2080
p2354
sVAppAccountFlag
p2355
I0
sVVerifyFlag
p2356
I0
sVRemarkPYQuanPin
p2357
Vrenrenwuyashusheji
p2358
sVHeadImgUrl
p2359
V/cgi-bin/mmwebwx-bin/webwxgeticon?seq=662769395&username=@1bb8c09f9611eca410cc0171d6b8ad30&skey=@crypt_9c3dea4c_f5700a142e41b2a86f3977c50c30a560
p2360
sVKeyWord
p2361
Vwuy
p2362
sVProvince
p2363
V\u5317\u4eac
p2364
sVPYInitial
p2365
V???????????????
p2366
sVRemarkName
p2367
V\u4eba\u4eba-\u6b66\u96c5\u59dd-\u8bbe\u8ba1
p2368
sVIsOwner
p2369
I0
sVSex
p2370
I2
sVStarFriend
p2371
I0
sVHideInputBarFlag
p2372
I0
sVChatRoomId
p2373
I0
sVEncryChatRoomId
p2374
g56
sVAttrStatus
p2375
I2147588287
sVStatues
p2376
I0
stp2377
Rp2378
I1
bag34
(g38
g39
(dp2379
VUserName
p2380
V@6ebe21e946ca2680a29f4ce4f189517502a5e1e4b4343006030b34a14c7ef943
p2381
sVCity
p2382
g56
sVSnsFlag
p2383
I17
sVDisplayName
p2384
g56
sVUniFriend
p2385
I0
sVMemberCount
p2386
I0
sVOwnerUin
p2387
I0
sVMemberList
p2388
g52
sVAlias
p2389
g56
sVPYQuanPin
p2390
Vyuanlairuci17090045019
p2391
sVSignature
p2392
V\u541b\u5b50\u4ee5\u8bda\u4e3a\u672c\uff0c\u4e8b\u4e1a\u56e0\u4fe1\u800c\u76db\u3002
p2393
sVRemarkPYInitial
p2394
VBHJYMDZYFFD
p2395
sVContactFlag
p2396
I3
sVUin
p2397
I0
sVNickName
p2398
V\u7f18\u6765\u5982\u6b6417090045019
p2399
sVAppAccountFlag
p2400
I0
sVVerifyFlag
p2401
I0
sVRemarkPYQuanPin
p2402
Vbinhejiayuemeidezhangyunfengfangdong
p2403
sVHeadImgUrl
p2404
V/cgi-bin/mmwebwx-bin/webwxgeticon?seq=662767042&username=@6ebe21e946ca2680a29f4ce4f189517502a5e1e4b4343006030b34a14c7ef943&skey=@crypt_9c3dea4c_f5700a142e41b2a86f3977c50c30a560
p2405
sVKeyWord
p2406
g56
sVProvince
p2407
g56
sVPYInitial
p2408
VYLRC17090045019
p2409
sVRemarkName
p2410
V\u6ee8\u6cb3-\u5bb6\u4e50\u7f8e\u5730-\u5f20\u4e91\u5cf0-\u623f\u4e1c
p2411
sVIsOwner
p2412
I0
sVSex
p2413
I1
sVStarFriend
p2414
I0
sVHideInputBarFlag
p2415
I0
sVChatRoomId
p2416
I0
sVEncryChatRoomId
p2417
g56
sVAttrStatus
p2418
I36965
sVStatues
p2419
I0
stp2420
Rp2421
I1
bag34
(g38
g39
(dp2422
VUserName
p2423
V@b946172462c481b02f7fe46baf8bbde37dbda70ae51f9378ceeeb5b1947802a2
p2424
sVCity
p2425
V\u8861\u6c34
p2426
sVSnsFlag
p2427
I17
sVDisplayName
p2428
g56
sVUniFriend
p2429
I0
sVMemberCount
p2430
I0
sVOwnerUin
p2431
I0
sVMemberList
p2432
g52
sVAlias
p2433
g56
sVPYQuanPin
p2434
Vsmile
p2435
sVSignature
p2436
g56
sVRemarkPYInitial
p2437
VYZWXHSBJ
p2438
sVContactFlag
p2439
I3
sVUin
p2440
I0
sVNickName
p2441
Vsmile
p2442
sVAppAccountFlag
p2443
I0
sVVerifyFlag
p2444
I0
sVRemarkPYQuanPin
p2445
Vyizhangweixiaohushibeijing
p2446
sVHeadImgUrl
p2447
V/cgi-bin/mmwebwx-bin/webwxgeticon?seq=625630533&username=@b946172462c481b02f7fe46baf8bbde37dbda70ae51f9378ceeeb5b1947802a2&skey=@crypt_9c3dea4c_f5700a142e41b2a86f3977c50c30a560
p2448
sVKeyWord
p2449
g56
sVProvince
p2450
V\u6cb3\u5317
p2451
sVPYInitial
p2452
VSMILE
p2453
sVRemarkName
p2454
V\u4f0a-\u5f20\u7ef4\u6653-\u62a4\u58eb-\u5317\u4eac
p2455
sVIsOwner
p2456
I0
sVSex
p2457
I2
sVStarFriend
p2458
I0
sVHideInputBarFlag
p2459
I0
sVChatRoomId
p2460
I0
sVEncryChatRoomId
p2461
g56
sVAttrStatus
p2462
I106341
sVStatues
p2463
I0
stp2464
Rp2465
I1
bag34
(g38
g39
(dp2466
VUserName
p2467
V@14126416c28b3524abc0fc96135c81fc
p2468
sVCity
p2469
V\u6e29\u5dde
p2470
sVSnsFlag
p2471
I49
sVDisplayName
p2472
g56
sVUniFriend
p2473
I0
sVMemberCount
p2474
I0
sVOwnerUin
p2475
I0
sVMemberList
p2476
g52
sVAlias
p2477
g56
sVPYQuanPin
p2478
Vwuzhe
p2479
sVSignature
p2480
V\u6ca1\u6709\u4ec0\u4e48\u9053\u8def\u53ef\u4ee5\u901a\u5411\u771f\u8bda\uff0c\u771f\u8bda\u672c\u8eab\u5c31\u662f\u9053\u8def\uff01
p2481
sVRemarkPYInitial
p2482
VMTWZCYZ
p2483
sVContactFlag
p2484
I3
sVUin
p2485
I0
sVNickName
p2486
V\u5434\u54f2
p2487
sVAppAccountFlag
p2488
I0
sVVerifyFlag
p2489
I0
sVRemarkPYQuanPin
p2490
Vmaitianwuzhechuangyezhe
p2491
sVHeadImgUrl
p2492
V/cgi-bin/mmwebwx-bin/webwxgeticon?seq=647549344&username=@14126416c28b3524abc0fc96135c81fc&skey=@crypt_9c3dea4c_f5700a142e41b2a86f3977c50c30a560
p2493
sVKeyWord
p2494
Vkel
p2495
sVProvince
p2496
V\u6d59\u6c5f
p2497
sVPYInitial
p2498
VWZ
p2499
sVRemarkName
p2500
V\u9ea6\u7530-\u5434\u54f2-\u521b\u4e1a\u8005
p2501
sVIsOwner
p2502
I0
sVSex
p2503
I1
sVStarFriend
p2504
I0
sVHideInputBarFlag
p2505
I0
sVChatRoomId
p2506
I0
sVEncryChatRoomId
p2507
g56
sVAttrStatus
p2508
I4300903
sVStatues
p2509
I0
stp2510
Rp2511
I1
bag34
(g38
g39
(dp2512
VUserName
p2513
V@45e796cd1b33c4b264de424a08ff1849
p2514
sVCity
p2515
V\u77f3\u5bb6\u5e84
p2516
sVSnsFlag
p2517
I17
sVDisplayName
p2518
g56
sVUniFriend
p2519
I0
sVMemberCount
p2520
I0
sVOwnerUin
p2521
I0
sVMemberList
p2522
g52
sVAlias
p2523
g56
sVPYQuanPin
p2524
Vyouweiqingnian
p2525
sVSignature
p2526
V\u65b0\u2022\u7f8e\u53d1\u7f8e\u7532\u6c99\u9f99 \u4e07\u8fbe\u4f4f\u5b85\u5c0f\u533aB2\u5357\u533a4-1-903 \u7535\u8bdd15200016579
p2527
sVRemarkPYInitial
p2528
VXYWFMFSJZ
p2529
sVContactFlag
p2530
I3
sVUin
p2531
I0
sVNickName
p2532
V\u6709\u4e3a\u9752\u5e74
p2533
sVAppAccountFlag
p2534
I0
sVVerifyFlag
p2535
I0
sVRemarkPYQuanPin
p2536
Vxiuyuanweifeimeifashijiazhuang
p2537
sVHeadImgUrl
p2538
V/cgi-bin/mmwebwx-bin/webwxgeticon?seq=662773845&username=@45e796cd1b33c4b264de424a08ff1849&skey=@crypt_9c3dea4c_f5700a142e41b2a86f3977c50c30a560
p2539
sVKeyWord
p2540
VFF6
p2541
sVProvince
p2542
V\u6cb3\u5317
p2543
sVPYInitial
p2544
VYWQN
p2545
sVRemarkName
p2546
V\u4fee\u9662-\u9b4f\u98de-\u7f8e\u53d1-\u77f3\u5bb6\u5e84
p2547
sVIsOwner
p2548
I0
sVSex
p2549
I1
sVStarFriend
p2550
I0
sVHideInputBarFlag
p2551
I0
sVChatRoomId
p2552
I0
sVEncryChatRoomId
p2553
g56
sVAttrStatus
p2554
I71783
sVStatues
p2555
I0
stp2556
Rp2557
I1
bag34
(g38
g39
(dp2558
VUserName
p2559
V@4bfa4e60217a01708a298b5fd8ddfd4b80060f27b506aef0ea31cf74172ef32a
p2560
sVCity
p2561
V\u829c\u6e56
p2562
sVSnsFlag
p2563
I17
sVDisplayName
p2564
g56
sVUniFriend
p2565
I0
sVMemberCount
p2566
I0
sVOwnerUin
p2567
I0
sVMemberList
p2568
g52
sVAlias
p2569
g56
sVPYQuanPin
p2570
Vfeiyu
p2571
sVSignature
p2572
V15206127573
p2573
sVRemarkPYInitial
p2574
VALYZY
p2575
sVContactFlag
p2576
I3
sVUin
p2577
I0
sVNickName
p2578
V\u98de\u96e8
p2579
sVAppAccountFlag
p2580
I0
sVVerifyFlag
p2581
I0
sVRemarkPYQuanPin
p2582
Vanliyanzhenyu
p2583
sVHeadImgUrl
p2584
V/cgi-bin/mmwebwx-bin/webwxgeticon?seq=662715849&username=@4bfa4e60217a01708a298b5fd8ddfd4b80060f27b506aef0ea31cf74172ef32a&skey=@crypt_9c3dea4c_f5700a142e41b2a86f3977c50c30a560
p2585
sVKeyWord
p2586
g56
sVProvince
p2587
V\u5b89\u5fbd
p2588
sVPYInitial
p2589
VFY
p2590
sVRemarkName
p2591
V\u5b89\u7406-\u989c\u632f\u5b87
p2592
sVIsOwner
p2593
I0
sVSex
p2594
I1
sVStarFriend
p2595
I0
sVHideInputBarFlag
p2596
I0
sVChatRoomId
p2597
I0
sVEncryChatRoomId
p2598
g56
sVAttrStatus
p2599
I69733
sVStatues
p2600
I0
stp2601
Rp2602
I1
bag34
(g38
g39
(dp2603
VUserName
p2604
V@55c289c7ffbd2018d198fd32116ee2b555e64e8485a90a617382a372ce23de6c
p2605
sVCity
p2606
V\u671d\u9633
p2607
sVSnsFlag
p2608
I49
sVDisplayName
p2609
g56
sVUniFriend
p2610
I0
sVMemberCount
p2611
I0
sVOwnerUin
p2612
I0
sVMemberList
p2613
g52
sVAlias
p2614
g56
sVPYQuanPin
p2615
VChris
p2616
sVSignature
p2617
g56
sVRemarkPYInitial
p2618
VBJCZHTSG
p2619
sVContactFlag
p2620
I3
sVUin
p2621
I0
sVNickName
p2622
VChris
p2623
sVAppAccountFlag
p2624
I0
sVVerifyFlag
p2625
I0
sVRemarkPYQuanPin
p2626
Vbeijingchenzhihaotushuguan
p2627
sVHeadImgUrl
p2628
V/cgi-bin/mmwebwx-bin/webwxgeticon?seq=662710144&username=@55c289c7ffbd2018d198fd32116ee2b555e64e8485a90a617382a372ce23de6c&skey=@crypt_9c3dea4c_f5700a142e41b2a86f3977c50c30a560
p2629
sVKeyWord
p2630
Vche
p2631
sVProvince
p2632
V\u5317\u4eac
p2633
sVPYInitial
p2634
VCHRIS
p2635
sVRemarkName
p2636
V\u5317\u4eac-\u9648\u5fd7\u6d69-\u56fe\u4e66\u9986
p2637
sVIsOwner
p2638
I0
sVSex
p2639
I1
sVStarFriend
p2640
I0
sVHideInputBarFlag
p2641
I0
sVChatRoomId
p2642
I0
sVEncryChatRoomId
p2643
g56
sVAttrStatus
p2644
I67213607
sVStatues
p2645
I0
stp2646
Rp2647
I1
bag34
(g38
g39
(dp2648
VUserName
p2649
V@6951c7b9d7172e863e42092a1f77551c6204d11583268ad0e4889cd1da046223
p2650
sVCity
p2651
V\u9759\u6d77
p2652
sVSnsFlag
p2653
I49
sVDisplayName
p2654
g56
sVUniFriend
p2655
I0
sVMemberCount
p2656
I0
sVOwnerUin
p2657
I0
sVMemberList
p2658
g52
sVAlias
p2659
g56
sVPYQuanPin
p2660
Vxiaoxiaoyun
p2661
sVSignature
p2662
g56
sVRemarkPYInitial
p2663
VMTXSR
p2664
sVContactFlag
p2665
I1
sVUin
p2666
I0
sVNickName
p2667
V\u5c0f\u5c0f\u4e91
p2668
sVAppAccountFlag
p2669
I0
sVVerifyFlag
p2670
I0
sVRemarkPYQuanPin
p2671
Vmaitianxusairu
p2672
sVHeadImgUrl
p2673
V/cgi-bin/mmwebwx-bin/webwxgeticon?seq=662696620&username=@6951c7b9d7172e863e42092a1f77551c6204d11583268ad0e4889cd1da046223&skey=@crypt_9c3dea4c_f5700a142e41b2a86f3977c50c30a560
p2674
sVKeyWord
p2675
g56
sVProvince
p2676
V\u5929\u6d25
p2677
sVPYInitial
p2678
VXXY
p2679
sVRemarkName
p2680
V\u9ea6\u7530-\u8bb8\u601d\u6c5d
p2681
sVIsOwner
p2682
I0
sVSex
p2683
I2
sVStarFriend
p2684
I0
sVHideInputBarFlag
p2685
I0
sVChatRoomId
p2686
I0
sVEncryChatRoomId
p2687
g56
sVAttrStatus
p2688
I231461
sVStatues
p2689
I0
stp2690
Rp2691
I1
bag34
(g38
g39
(dp2692
VUserName
p2693
V@f7f21d025fbf9f075ce536895e7337d1b39e34d16ca2e3ef26daa16c377a6d8c
p2694
sVCity
p2695
g56
sVSnsFlag
p2696
I1
sVDisplayName
p2697
g56
sVUniFriend
p2698
I0
sVMemberCount
p2699
I0
sVOwnerUin
p2700
I0
sVMemberList
p2701
g52
sVAlias
p2702
g56
sVPYQuanPin
p2703
VbeibeiBlair
p2704
sVSignature
p2705
g56
sVRemarkPYInitial
p2706
VALZBB
p2707
sVContactFlag
p2708
I3
sVUin
p2709
I0
sVNickName
p2710
V\u84d3\u84d3 Blair
p2711
sVAppAccountFlag
p2712
I0
sVVerifyFlag
p2713
I0
sVRemarkPYQuanPin
p2714
Vanlizhaobeibei
p2715
sVHeadImgUrl
p2716
V/cgi-bin/mmwebwx-bin/webwxgeticon?seq=662775851&username=@f7f21d025fbf9f075ce536895e7337d1b39e34d16ca2e3ef26daa16c377a6d8c&skey=@crypt_9c3dea4c_f5700a142e41b2a86f3977c50c30a560
p2717
sVKeyWord
p2718
g56
sVProvince
p2719
g56
sVPYInitial
p2720
VBBBLAIR
p2721
sVRemarkName
p2722
V\u5b89\u7406-\u8d75\u84d3\u84d3
p2723
sVIsOwner
p2724
I0
sVSex
p2725
I2
sVStarFriend
p2726
I0
sVHideInputBarFlag
p2727
I0
sVChatRoomId
p2728
I0
sVEncryChatRoomId
p2729
g56
sVAttrStatus
p2730
I103521
sVStatues
p2731
I0
stp2732
Rp2733
I1
bag34
(g38
g39
(dp2734
VUserName
p2735
V@669569ca073db1bf0ebd52836f7982887a55768b4dbb1ba60ad13fd1fb246e45
p2736
sVCity
p2737
g56
sVSnsFlag
p2738
I145
sVDisplayName
p2739
g56
sVUniFriend
p2740
I0
sVMemberCount
p2741
I0
sVOwnerUin
p2742
I0
sVMemberList
p2743
g52
sVAlias
p2744
g56
sVPYQuanPin
p2745
Vmiaodadayuwangxingren
p2746
sVSignature
p2747
VI Do
p2748
sVRemarkPYInitial
p2749
VALFYPSNZX
p2750
sVContactFlag
p2751
I3
sVUin
p2752
I0
sVNickName
p2753
V\u55b5\u5927\u5927\u4e0e\u6c6a\u661f\u4eba
p2754
sVAppAccountFlag
p2755
I0
sVVerifyFlag
p2756
I0
sVRemarkPYQuanPin
p2757
Vanlifangyapingshineizhuangxiu
p2758
sVHeadImgUrl
p2759
V/cgi-bin/mmwebwx-bin/webwxgeticon?seq=662775879&username=@669569ca073db1bf0ebd52836f7982887a55768b4dbb1ba60ad13fd1fb246e45&skey=@crypt_9c3dea4c_f5700a142e41b2a86f3977c50c30a560
p2760
sVKeyWord
p2761
Vfan
p2762
sVProvince
p2763
V\u4e0a\u6d77
p2764
sVPYInitial
p2765
VMDDYWXR
p2766
sVRemarkName
p2767
V\u5b89\u7406-\u65b9\u4e9a\u840d-\u5ba4\u5185\u88c5\u4fee
p2768
sVIsOwner
p2769
I0
sVSex
p2770
I1
sVStarFriend
p2771
I0
sVHideInputBarFlag
p2772
I0
sVChatRoomId
p2773
I0
sVEncryChatRoomId
p2774
g56
sVAttrStatus
p2775
I102439
sVStatues
p2776
I0
stp2777
Rp2778
I1
bag34
(g38
g39
(dp2779
VUserName
p2780
V@872a5ca19b7075f8f21842e9e00ccad4ac9fdf83e94ab6ae64e0bb06a2d7ff57
p2781
sVCity
p2782
V\u77f3\u5bb6\u5e84
p2783
sVSnsFlag
p2784
I17
sVDisplayName
p2785
g56
sVUniFriend
p2786
I0
sVMemberCount
p2787
I0
sVOwnerUin
p2788
I0
sVMemberList
p2789
g52
sVAlias
p2790
g56
sVPYQuanPin
p2791
VAtianyaspanclassemojiemoji1f60aspan
p2792
sVSignature
p2793
V\u7231\u8981\u5766\u8361\u8361\uff01^O^\u2605:)\u2606*^_^*
p2794
sVRemarkPYInitial
p2795
VXYWTY
p2796
sVContactFlag
p2797
I3
sVUin
p2798
I0
sVNickName
p2799
VA\u5929\u4e9a\U0001f60a
p2800
sVAppAccountFlag
p2801
I0
sVVerifyFlag
p2802
I0
sVRemarkPYQuanPin
p2803
Vxiuyuanwangtianya
p2804
sVHeadImgUrl
p2805
V/cgi-bin/mmwebwx-bin/webwxgeticon?seq=662697096&username=@872a5ca19b7075f8f21842e9e00ccad4ac9fdf83e94ab6ae64e0bb06a2d7ff57&skey=@crypt_9c3dea4c_f5700a142e41b2a86f3977c50c30a560
p2806
sVKeyWord
p2807
Vwan
p2808
sVProvince
p2809
V\u6cb3\u5317
p2810
sVPYInitial
p2811
VATYSPANCLASSEMOJIEMOJI1F60ASPAN
p2812
sVRemarkName
p2813
V\u4fee\u9662-\u738b\u5929\u4e9a
p2814
sVIsOwner
p2815
I0
sVSex
p2816
I1
sVStarFriend
p2817
I0
sVHideInputBarFlag
p2818
I0
sVChatRoomId
p2819
I0
sVEncryChatRoomId
p2820
g56
sVAttrStatus
p2821
I118887
sVStatues
p2822
I0
stp2823
Rp2824
I1
bag34
(g38
g39
(dp2825
VUserName
p2826
V@9d2bcb7570b6171b062a5caf946ee4c63fd0105ccac47b7d0161a08c2fe9efb9
p2827
sVCity
p2828
V\u897f\u57ce
p2829
sVSnsFlag
p2830
I1
sVDisplayName
p2831
g56
sVUniFriend
p2832
I0
sVMemberCount
p2833
I0
sVOwnerUin
p2834
I0
sVMemberList
p2835
g52
sVAlias
p2836
g56
sVPYQuanPin
p2837
Vpino
p2838
sVSignature
p2839
V\u4e00\u676f\u656c\u81ea\u7531\u3001\u4e00\u676f\u656c\u6b7b\u4ea1
p2840
sVRemarkPYInitial
p2841
VSCTYSNSJ
p2842
sVContactFlag
p2843
I3
sVUin
p2844
I0
sVNickName
p2845
Vpino
p2846
sVAppAccountFlag
p2847
I0
sVVerifyFlag
p2848
I0
sVRemarkPYQuanPin
p2849
Vshicaotianyushineisheji
p2850
sVHeadImgUrl
p2851
V/cgi-bin/mmwebwx-bin/webwxgeticon?seq=662776745&username=@9d2bcb7570b6171b062a5caf946ee4c63fd0105ccac47b7d0161a08c2fe9efb9&skey=@crypt_9c3dea4c_f5700a142e41b2a86f3977c50c30a560
p2852
sVKeyWord
p2853
g56
sVProvince
p2854
V\u5317\u4eac
p2855
sVPYInitial
p2856
VPINO
p2857
sVRemarkName
p2858
V\u77f3-\u66f9\u5929\u5b87-\u5ba4\u5185\u8bbe\u8ba1
p2859
sVIsOwner
p2860
I0
sVSex
p2861
I1
sVStarFriend
p2862
I0
sVHideInputBarFlag
p2863
I0
sVChatRoomId
p2864
I0
sVEncryChatRoomId
p2865
g56
sVAttrStatus
p2866
I105061
sVStatues
p2867
I0
stp2868
Rp2869
I1
bag34
(g38
g39
(dp2870
VUserName
p2871
V@810bfac7d46d33ae900ab81818feaad7e03a44801ab39788a337133b300fe8fb
p2872
sVCity
p2873
V\u4fdd\u5b9a
p2874
sVSnsFlag
p2875
I17
sVDisplayName
p2876
g56
sVUniFriend
p2877
I0
sVMemberCount
p2878
I0
sVOwnerUin
p2879
I0
sVMemberList
p2880
g52
sVAlias
p2881
g56
sVPYQuanPin
p2882
Vwangkaiqiang
p2883
sVSignature
p2884
V\u597d\u597d\u8fc7
p2885
sVRemarkPYInitial
p2886
VWZWKQDL
p2887
sVContactFlag
p2888
I3
sVUin
p2889
I0
sVNickName
p2890
V\u738b\u51ef\u5f3a
p2891
sVAppAccountFlag
p2892
I0
sVVerifyFlag
p2893
I0
sVRemarkPYQuanPin
p2894
Vwuzhongwangkaiqiangdianli
p2895
sVHeadImgUrl
p2896
V/cgi-bin/mmwebwx-bin/webwxgeticon?seq=662776921&username=@810bfac7d46d33ae900ab81818feaad7e03a44801ab39788a337133b300fe8fb&skey=@crypt_9c3dea4c_f5700a142e41b2a86f3977c50c30a560
p2897
sVKeyWord
p2898
g56
sVProvince
p2899
V\u6cb3\u5317
p2900
sVPYInitial
p2901
VWKQ
p2902
sVRemarkName
p2903
V\u6b66\u4e2d-\u738b\u51ef\u5f3a-\u7535\u529b
p2904
sVIsOwner
p2905
I0
sVSex
p2906
I1
sVStarFriend
p2907
I0
sVHideInputBarFlag
p2908
I0
sVChatRoomId
p2909
I0
sVEncryChatRoomId
p2910
g56
sVAttrStatus
p2911
I233511
sVStatues
p2912
I0
stp2913
Rp2914
I1
bag34
(g38
g39
(dp2915
VUserName
p2916
V@bfba9008fd797f0517f2870fefb03369347108c63edefeb5bd0a7e0f81c56dde
p2917
sVCity
p2918
V\u5357\u901a
p2919
sVSnsFlag
p2920
I49
sVDisplayName
p2921
g56
sVUniFriend
p2922
I0
sVMemberCount
p2923
I0
sVOwnerUin
p2924
I0
sVMemberList
p2925
g52
sVAlias
p2926
g56
sVPYQuanPin
p2927
Vzhidousanlang
p2928
sVSignature
p2929
VTrust The Process
p2930
sVRemarkPYInitial
p2931
VALXEN
p2932
sVContactFlag
p2933
I3
sVUin
p2934
I0
sVNickName
p2935
V\u667a\u9017\u4e09\u90ce
p2936
sVAppAccountFlag
p2937
I0
sVVerifyFlag
p2938
I0
sVRemarkPYQuanPin
p2939
Vanlixieernong
p2940
sVHeadImgUrl
p2941
V/cgi-bin/mmwebwx-bin/webwxgeticon?seq=647571564&username=@bfba9008fd797f0517f2870fefb03369347108c63edefeb5bd0a7e0f81c56dde&skey=@crypt_9c3dea4c_f5700a142e41b2a86f3977c50c30a560
p2942
sVKeyWord
p2943
Vxie
p2944
sVProvince
p2945
V\u6c5f\u82cf
p2946
sVPYInitial
p2947
VZDSL
p2948
sVRemarkName
p2949
V\u5b89\u7406-\u8c22\u5c14\u519c
p2950
sVIsOwner
p2951
I0
sVSex
p2952
I1
sVStarFriend
p2953
I0
sVHideInputBarFlag
p2954
I0
sVChatRoomId
p2955
I0
sVEncryChatRoomId
p2956
g56
sVAttrStatus
p2957
I241767
sVStatues
p2958
I0
stp2959
Rp2960
I1
bag34
(g38
g39
(dp2961
VUserName
p2962
V@1d2caefc2602a297c3e68971899c46e28b7e3c3e2951bb1f19d6482d588695b2
p2963
sVCity
p2964
V\u8bb8\u660c
p2965
sVSnsFlag
p2966
I17
sVDisplayName
p2967
g56
sVUniFriend
p2968
I0
sVMemberCount
p2969
I0
sVOwnerUin
p2970
I0
sVMemberList
p2971
g52
sVAlias
p2972
g56
sVPYQuanPin
p2973
Vqiaolongfei
p2974
sVSignature
p2975
V\u5171\u8d62\u643a\u624b\u672a\u6765\uff0c\u60f3\u60f3\u4f60\u5c31\u884c\uff0c\u884c\u52a8\u4f60\u5c31\u8d62\u3002
p2976
sVRemarkPYInitial
p2977
VBHQLF08
p2978
sVContactFlag
p2979
I3
sVUin
p2980
I0
sVNickName
p2981
V\u4e54\u9f99\u98de
p2982
sVAppAccountFlag
p2983
I0
sVVerifyFlag
p2984
I0
sVRemarkPYQuanPin
p2985
Vbinheqiaolongfei08
p2986
sVHeadImgUrl
p2987
V/cgi-bin/mmwebwx-bin/webwxgeticon?seq=662768165&username=@1d2caefc2602a297c3e68971899c46e28b7e3c3e2951bb1f19d6482d588695b2&skey=@crypt_9c3dea4c_f5700a142e41b2a86f3977c50c30a560
p2988
sVKeyWord
p2989
g56
sVProvince
p2990
V\u6cb3\u5357
p2991
sVPYInitial
p2992
VQLF
p2993
sVRemarkName
p2994
V\u6ee8\u6cb3-\u4e54\u9f99\u98de-08
p2995
sVIsOwner
p2996
I0
sVSex
p2997
I1
sVStarFriend
p2998
I0
sVHideInputBarFlag
p2999
I0
sVChatRoomId
p3000
I0
sVEncryChatRoomId
p3001
g56
sVAttrStatus
p3002
I102433
sVStatues
p3003
I0
stp3004
Rp3005
I1
bag34
(g38
g39
(dp3006
VUserName
p3007
V@53ebda12b4535387761cd5c680715c0289f657df28c4fb3e005e0b5b440faf4e
p3008
sVCity
p3009
V\u676d\u5dde
p3010
sVSnsFlag
p3011
I1
sVDisplayName
p3012
g56
sVUniFriend
p3013
I0
sVMemberCount
p3014
I0
sVOwnerUin
p3015
I0
sVMemberList
p3016
g52
sVAlias
p3017
g56
sVPYQuanPin
p3018
Vtangyuwuyingyu
p3019
sVSignature
p3020
g56
sVRemarkPYInitial
p3021
VHWXHYY
p3022
sVContactFlag
p3023
I3
sVUin
p3024
I0
sVNickName
p3025
V\u7cd6\u8bed\u5c4b\u82f1\u8bed
p3026
sVAppAccountFlag
p3027
I0
sVVerifyFlag
p3028
I0
sVRemarkPYQuanPin
p3029
Vhangwangxiaohuiyingyu
p3030
sVHeadImgUrl
p3031
V/cgi-bin/mmwebwx-bin/webwxgeticon?seq=662744762&username=@53ebda12b4535387761cd5c680715c0289f657df28c4fb3e005e0b5b440faf4e&skey=@crypt_9c3dea4c_f5700a142e41b2a86f3977c50c30a560
p3032
sVKeyWord
p3033
g56
sVProvince
p3034
V\u6d59\u6c5f
p3035
sVPYInitial
p3036
VTYWYY
p3037
sVRemarkName
p3038
V\u676d-\u738b\u5c0f\u6167-\u82f1\u8bed
p3039
sVIsOwner
p3040
I0
sVSex
p3041
I2
sVStarFriend
p3042
I0
sVHideInputBarFlag
p3043
I0
sVChatRoomId
p3044
I0
sVEncryChatRoomId
p3045
g56
sVAttrStatus
p3046
I102501
sVStatues
p3047
I0
stp3048
Rp3049
I1
bag34
(g38
g39
(dp3050
VUserName
p3051
V@30d5d9e432b1056f9fe413af79fc75ef
p3052
sVCity
p3053
V\u6d77\u6dc0
p3054
sVSnsFlag
p3055
I49
sVDisplayName
p3056
g56
sVUniFriend
p3057
I0
sVMemberCount
p3058
I0
sVOwnerUin
p3059
I0
sVMemberList
p3060
g52
sVAlias
p3061
g56
sVPYQuanPin
p3062
g56
sVSignature
p3063
V\u4e0d\u4e70\u80a1\u7968\uff0c\u4e0d\u7406\u8d22\uff0c\u4e0d\u8d37\u6b3e\uff0c\u4e0d\u529e\u5361\uff0c\u4e0d\u8981\u4f18\u60e0\u5238\uff0c\u4e0d\u7ea6\uff01
p3064
sVRemarkPYInitial
p3065
VLYLKYIT
p3066
sVContactFlag
p3067
I3
sVUin
p3068
I0
sVNickName
p3069
V\uff5e~\uff5e
p3070
sVAppAccountFlag
p3071
I0
sVVerifyFlag
p3072
I0
sVRemarkPYQuanPin
p3073
VlinyilikaiyuanIT
p3074
sVHeadImgUrl
p3075
V/cgi-bin/mmwebwx-bin/webwxgeticon?seq=662765476&username=@30d5d9e432b1056f9fe413af79fc75ef&skey=@crypt_9c3dea4c_f5700a142e41b2a86f3977c50c30a560
p3076
sVKeyWord
p3077
Vzho
p3078
sVProvince
p3079
V\u5317\u4eac
p3080
sVPYInitial
p3081
g56
sVRemarkName
p3082
V\u4e34\u6c82-\u674e\u5f00\u5143-IT
p3083
sVIsOwner
p3084
I0
sVSex
p3085
I1
sVStarFriend
p3086
I0
sVHideInputBarFlag
p3087
I0
sVChatRoomId
p3088
I0
sVEncryChatRoomId
p3089
g56
sVAttrStatus
p3090
I74149
sVStatues
p3091
I0
stp3092
Rp3093
I1
bag34
(g38
g39
(dp3094
VUserName
p3095
V@473c57911809fd5d9955d4f22c8c65b194d08fb129bdca3307b59102fb2b72cd
p3096
sVCity
p3097
V\u5eca\u574a
p3098
sVSnsFlag
p3099
I17
sVDisplayName
p3100
g56
sVUniFriend
p3101
I0
sVMemberCount
p3102
I0
sVOwnerUin
p3103
I0
sVMemberList
p3104
g52
sVAlias
p3105
g56
sVPYQuanPin
p3106
VIDo
p3107
sVSignature
p3108
V\u6c38\u8fdc\u90fd\u4e0d\u4f1a\u665a\uff01
p3109
sVRemarkPYInitial
p3110
VWZSSXF
p3111
sVContactFlag
p3112
I3
sVUin
p3113
I0
sVNickName
p3114
VI   Do
p3115
sVAppAccountFlag
p3116
I0
sVVerifyFlag
p3117
I0
sVRemarkPYQuanPin
p3118
Vwuzhongsunshuoxiaofang
p3119
sVHeadImgUrl
p3120
V/cgi-bin/mmwebwx-bin/webwxgeticon?seq=662697566&username=@473c57911809fd5d9955d4f22c8c65b194d08fb129bdca3307b59102fb2b72cd&skey=@crypt_9c3dea4c_f5700a142e41b2a86f3977c50c30a560
p3121
sVKeyWord
p3122
g56
sVProvince
p3123
V\u6cb3\u5317
p3124
sVPYInitial
p3125
VIDO
p3126
sVRemarkName
p3127
V\u6b66\u4e2d-\u5b59\u7855-\u6d88\u9632
p3128
sVIsOwner
p3129
I0
sVSex
p3130
I1
sVStarFriend
p3131
I0
sVHideInputBarFlag
p3132
I0
sVChatRoomId
p3133
I0
sVEncryChatRoomId
p3134
g56
sVAttrStatus
p3135
I200869
sVStatues
p3136
I0
stp3137
Rp3138
I1
bag34
(g38
g39
(dp3139
VUserName
p3140
V@a24dee896411f2a97582f67456067087
p3141
sVCity
p3142
V\u8861\u6c34
p3143
sVSnsFlag
p3144
I17
sVDisplayName
p3145
g56
sVUniFriend
p3146
I0
sVMemberCount
p3147
I0
sVOwnerUin
p3148
I0
sVMemberList
p3149
g52
sVAlias
p3150
g56
sVPYQuanPin
p3151
Vshoufengshuangmiannedayishougongwaifa
p3152
sVSignature
p3153
V13582481757
p3154
sVRemarkPYInitial
p3155
VXYWL
p3156
sVContactFlag
p3157
I3
sVUin
p3158
I0
sVNickName
p3159
V\u624b\u7f1d\u53cc\u9762\u5462\u5927\u8863\u624b\u5de5\u5916\u53d1
p3160
sVAppAccountFlag
p3161
I0
sVVerifyFlag
p3162
I0
sVRemarkPYQuanPin
p3163
Vxiuyuanwanglu
p3164
sVHeadImgUrl
p3165
V/cgi-bin/mmwebwx-bin/webwxgeticon?seq=620580112&username=@a24dee896411f2a97582f67456067087&skey=@crypt_9c3dea4c_f5700a142e41b2a86f3977c50c30a560
p3166
sVKeyWord
p3167
Vlua
p3168
sVProvince
p3169
V\u6cb3\u5317
p3170
sVPYInitial
p3171
VSFSMNDYSGWF
p3172
sVRemarkName
p3173
V\u4fee\u9662-\u738b\u8def
p3174
sVIsOwner
p3175
I0
sVSex
p3176
I1
sVStarFriend
p3177
I0
sVHideInputBarFlag
p3178
I0
sVChatRoomId
p3179
I0
sVEncryChatRoomId
p3180
g56
sVAttrStatus
p3181
I8259
sVStatues
p3182
I0
stp3183
Rp3184
I1
bag34
(g38
g39
(dp3185
VUserName
p3186
V@4e18d0fe887e1ea62f04ca147fc1bb138e07cf6f00cb75f21996f73497cf6620
p3187
sVCity
p3188
V\u676d\u5dde
p3189
sVSnsFlag
p3190
I49
sVDisplayName
p3191
g56
sVUniFriend
p3192
I0
sVMemberCount
p3193
I0
sVOwnerUin
p3194
I0
sVMemberList
p3195
g52
sVAlias
p3196
g56
sVPYQuanPin
p3197
Vlizeyang
p3198
sVSignature
p3199
Vstay hungry
p3200
sVRemarkPYInitial
p3201
VHKLZYYD
p3202
sVContactFlag
p3203
I3
sVUin
p3204
I0
sVNickName
p3205
V\u674e\u6cfd\u9633
p3206
sVAppAccountFlag
p3207
I0
sVVerifyFlag
p3208
I0
sVRemarkPYQuanPin
p3209
Vhaikelizeyangyunduan
p3210
sVHeadImgUrl
p3211
V/cgi-bin/mmwebwx-bin/webwxgeticon?seq=662695000&username=@4e18d0fe887e1ea62f04ca147fc1bb138e07cf6f00cb75f21996f73497cf6620&skey=@crypt_9c3dea4c_f5700a142e41b2a86f3977c50c30a560
p3212
sVKeyWord
p3213
g56
sVProvince
p3214
V\u6d59\u6c5f
p3215
sVPYInitial
p3216
VLZY
p3217
sVRemarkName
p3218
V\u6c26\u6c2a-\u674e\u6cfd\u6d0b-\u4e91\u7aef
p3219
sVIsOwner
p3220
I0
sVSex
p3221
I1
sVStarFriend
p3222
I0
sVHideInputBarFlag
p3223
I0
sVChatRoomId
p3224
I0
sVEncryChatRoomId
p3225
g56
sVAttrStatus
p3226
I2147586151
sVStatues
p3227
I0
stp3228
Rp3229
I1
bag34
(g38
g39
(dp3230
VUserName
p3231
V@0f6236bd88f0e9e6df67a01318ee6b89
p3232
sVCity
p3233
V\u8861\u6c34
p3234
sVSnsFlag
p3235
I1
sVDisplayName
p3236
g56
sVUniFriend
p3237
I0
sVMemberCount
p3238
I0
sVOwnerUin
p3239
I0
sVMemberList
p3240
g52
sVAlias
p3241
g56
sVPYQuanPin
p3242
Vbiandian
p3243
sVSignature
p3244
V\u6c38\u8fdc\u5fc3\u6000\u656c\u754f\uff0c\u6c38\u8fdc\u4fdd\u6301\u63a2\u7d22\u3002
p3245
sVRemarkPYInitial
p3246
VWZCPZTJ
p3247
sVContactFlag
p3248
I3
sVUin
p3249
I0
sVNickName
p3250
V\u5f7c\u5cb8\u4e36
p3251
sVAppAccountFlag
p3252
I0
sVVerifyFlag
p3253
I0
sVRemarkPYQuanPin
p3254
Vwuzhongchangpengzhongtiejian
p3255
sVHeadImgUrl
p3256
V/cgi-bin/mmwebwx-bin/webwxgeticon?seq=631386061&username=@0f6236bd88f0e9e6df67a01318ee6b89&skey=@crypt_9c3dea4c_f5700a142e41b2a86f3977c50c30a560
p3257
sVKeyWord
p3258
Vcp2
p3259
sVProvince
p3260
V\u6cb3\u5317
p3261
sVPYInitial
p3262
VBAD
p3263
sVRemarkName
p3264
V\u6b66\u4e2d-\u5e38\u9e4f-\u4e2d\u94c1\u5efa
p3265
sVIsOwner
p3266
I0
sVSex
p3267
I1
sVStarFriend
p3268
I0
sVHideInputBarFlag
p3269
I0
sVChatRoomId
p3270
I0
sVEncryChatRoomId
p3271
g56
sVAttrStatus
p3272
I17007015
sVStatues
p3273
I0
stp3274
Rp3275
I1
bag34
(g38
g39
(dp3276
VUserName
p3277
V@f1a13377e466192ba8955920b1b158a0
p3278
sVCity
p3279
V\u676d\u5dde
p3280
sVSnsFlag
p3281
I49
sVDisplayName
p3282
g56
sVUniFriend
p3283
I0
sVMemberCount
p3284
I0
sVOwnerUin
p3285
I0
sVMemberList
p3286
g52
sVAlias
p3287
g56
sVPYQuanPin
p3288
VKamisama
p3289
sVSignature
p3290
VFarewell, good hunter.
p3291
sVRemarkPYInitial
p3292
VHKSTQD
p3293
sVContactFlag
p3294
I3
sVUin
p3295
I0
sVNickName
p3296
VKamisama
p3297
sVAppAccountFlag
p3298
I0
sVVerifyFlag
p3299
I0
sVRemarkPYQuanPin
p3300
Vhaikeshentingqianduan
p3301
sVHeadImgUrl
p3302
V/cgi-bin/mmwebwx-bin/webwxgeticon?seq=647563022&username=@f1a13377e466192ba8955920b1b158a0&skey=@crypt_9c3dea4c_f5700a142e41b2a86f3977c50c30a560
p3303
sVKeyWord
p3304
Vpci
p3305
sVProvince
p3306
V\u6d59\u6c5f
p3307
sVPYInitial
p3308
VKAMISAMA
p3309
sVRemarkName
p3310
V\u6c26\u6c2a-\u6c88\u633a-\u524d\u7aef
p3311
sVIsOwner
p3312
I0
sVSex
p3313
I1
sVStarFriend
p3314
I0
sVHideInputBarFlag
p3315
I0
sVChatRoomId
p3316
I0
sVEncryChatRoomId
p3317
g56
sVAttrStatus
p3318
I33784127
sVStatues
p3319
I0
stp3320
Rp3321
I1
bag34
(g38
g39
(dp3322
VUserName
p3323
V@f97ba0b1f2ebb868818cc1d6fb5745d2952f1aa05159fe5944ccae225ffa3755
p3324
sVCity
p3325
V\u676d\u5dde
p3326
sVSnsFlag
p3327
I17
sVDisplayName
p3328
g56
sVUniFriend
p3329
I0
sVMemberCount
p3330
I0
sVOwnerUin
p3331
I0
sVMemberList
p3332
g52
sVAlias
p3333
g56
sVPYQuanPin
p3334
VDream
p3335
sVSignature
p3336
g56
sVRemarkPYInitial
p3337
VMTCJH
p3338
sVContactFlag
p3339
I1
sVUin
p3340
I0
sVNickName
p3341
VDream
p3342
sVAppAccountFlag
p3343
I0
sVVerifyFlag
p3344
I0
sVRemarkPYQuanPin
p3345
Vmaitianchenjiahui
p3346
sVHeadImgUrl
p3347
V/cgi-bin/mmwebwx-bin/webwxgeticon?seq=661613474&username=@f97ba0b1f2ebb868818cc1d6fb5745d2952f1aa05159fe5944ccae225ffa3755&skey=@crypt_9c3dea4c_f5700a142e41b2a86f3977c50c30a560
p3348
sVKeyWord
p3349
Vche
p3350
sVProvince
p3351
V\u6d59\u6c5f
p3352
sVPYInitial
p3353
VDREAM
p3354
sVRemarkName
p3355
V\u9ea6\u7530-\u9648\u4f73\u8f89-
p3356
sVIsOwner
p3357
I0
sVSex
p3358
I1
sVStarFriend
p3359
I0
sVHideInputBarFlag
p3360
I0
sVChatRoomId
p3361
I0
sVEncryChatRoomId
p3362
g56
sVAttrStatus
p3363
I33667175
sVStatues
p3364
I0
stp3365
Rp3366
I1
bag34
(g38
g39
(dp3367
VUserName
p3368
V@74d1d1f87b5d10036d51bb43badefd07b316b521de305da3e844280fc814b549
p3369
sVCity
p3370
V\u77f3\u5bb6\u5e84
p3371
sVSnsFlag
p3372
I17
sVDisplayName
p3373
g56
sVUniFriend
p3374
I0
sVMemberCount
p3375
I0
sVOwnerUin
p3376
I0
sVMemberList
p3377
g52
sVAlias
p3378
g56
sVPYQuanPin
p3379
Vxuan
p3380
sVSignature
p3381
g56
sVRemarkPYInitial
p3382
VSDWJXPYTHONSJZ
p3383
sVContactFlag
p3384
I3
sVUin
p3385
I0
sVNickName
p3386
V\u8f69
p3387
sVAppAccountFlag
p3388
I0
sVVerifyFlag
p3389
I0
sVRemarkPYQuanPin
p3390
Vsandawangjingxuanpythonshijiazhuang
p3391
sVHeadImgUrl
p3392
V/cgi-bin/mmwebwx-bin/webwxgeticon?seq=662734977&username=@74d1d1f87b5d10036d51bb43badefd07b316b521de305da3e844280fc814b549&skey=@crypt_9c3dea4c_f5700a142e41b2a86f3977c50c30a560
p3393
sVKeyWord
p3394
g56
sVProvince
p3395
V\u6cb3\u5317
p3396
sVPYInitial
p3397
VX
p3398
sVRemarkName
p3399
V\u4e09\u5927-\u738b\u656c\u8f69-python-\u77f3\u5bb6\u5e84
p3400
sVIsOwner
p3401
I0
sVSex
p3402
I2
sVStarFriend
p3403
I0
sVHideInputBarFlag
p3404
I0
sVChatRoomId
p3405
I0
sVEncryChatRoomId
p3406
g56
sVAttrStatus
p3407
I99781
sVStatues
p3408
I0
stp3409
Rp3410
I1
bag34
(g38
g39
(dp3411
VUserName
p3412
V@153e2e6a706ed2b42e8778193f95151700f219f83a0002cb521724b47567ed61
p3413
sVCity
p3414
V\u8861\u6c34
p3415
sVSnsFlag
p3416
I1
sVDisplayName
p3417
g56
sVUniFriend
p3418
I0
sVMemberCount
p3419
I0
sVOwnerUin
p3420
I0
sVMemberList
p3421
g52
sVAlias
p3422
g56
sVPYQuanPin
p3423
Vdixiao
p3424
sVSignature
p3425
V\u62fc\u6211\u60f3\u8981\u7684\uff0c\u6323\u6211\u6ca1\u6709\u7684\uff01
p3426
sVRemarkPYInitial
p3427
VWZLDXXJS
p3428
sVContactFlag
p3429
I3
sVUin
p3430
I0
sVNickName
p3431
V\u7b1b\u7b71
p3432
sVAppAccountFlag
p3433
I0
sVVerifyFlag
p3434
I0
sVRemarkPYQuanPin
p3435
Vwuzhongliudanxiaoxuejiaoshi
p3436
sVHeadImgUrl
p3437
V/cgi-bin/mmwebwx-bin/webwxgeticon?seq=647553265&username=@153e2e6a706ed2b42e8778193f95151700f219f83a0002cb521724b47567ed61&skey=@crypt_9c3dea4c_f5700a142e41b2a86f3977c50c30a560
p3438
sVKeyWord
p3439
g56
sVProvince
p3440
V\u6cb3\u5317
p3441
sVPYInitial
p3442
VDX
p3443
sVRemarkName
p3444
V\u6b66\u4e2d-\u5218\u4e39--\u5c0f\u5b66\u6559\u5e08
p3445
sVIsOwner
p3446
I0
sVSex
p3447
I2
sVStarFriend
p3448
I0
sVHideInputBarFlag
p3449
I0
sVChatRoomId
p3450
I0
sVEncryChatRoomId
p3451
g56
sVAttrStatus
p3452
I5093
sVStatues
p3453
I0
stp3454
Rp3455
I1
bag34
(g38
g39
(dp3456
VUserName
p3457
V@89833988a1d9621eb6cc3047d5559f59622f985627e369f3f910f986d71dc30d
p3458
sVCity
p3459
V\u5927\u8fde
p3460
sVSnsFlag
p3461
I17
sVDisplayName
p3462
g56
sVUniFriend
p3463
I0
sVMemberCount
p3464
I0
sVOwnerUin
p3465
I0
sVMemberList
p3466
g52
sVAlias
p3467
g56
sVPYQuanPin
p3468
Vdouchongchong
p3469
sVSignature
p3470
V\u7231\u751f\u6d3b\uff0c\u7231\u81ea\u5df1\uff0c\u7231\u4e16\u754c\uff0c\u7231\u5927\u5bb6\uff01
p3471
sVRemarkPYInitial
p3472
VWZFWQYX
p3473
sVContactFlag
p3474
I3
sVUin
p3475
I0
sVNickName
p3476
V\u9017\u866b\u866b
p3477
sVAppAccountFlag
p3478
I0
sVVerifyFlag
p3479
I0
sVRemarkPYQuanPin
p3480
Vwuzhongfengwenqiuyixue
p3481
sVHeadImgUrl
p3482
V/cgi-bin/mmwebwx-bin/webwxgeticon?seq=662707289&username=@89833988a1d9621eb6cc3047d5559f59622f985627e369f3f910f986d71dc30d&skey=@crypt_9c3dea4c_f5700a142e41b2a86f3977c50c30a560
p3483
sVKeyWord
p3484
g56
sVProvince
p3485
V\u8fbd\u5b81
p3486
sVPYInitial
p3487
VDCC
p3488
sVRemarkName
p3489
V\u6b66\u4e2d-\u51af\u6587\u79cb-\u533b\u5b66
p3490
sVIsOwner
p3491
I0
sVSex
p3492
I2
sVStarFriend
p3493
I0
sVHideInputBarFlag
p3494
I0
sVChatRoomId
p3495
I0
sVEncryChatRoomId
p3496
g56
sVAttrStatus
p3497
I33654885
sVStatues
p3498
I0
stp3499
Rp3500
I1
bag34
(g38
g39
(dp3501
VUserName
p3502
V@c5aef0532d2b03061045b559608aad55b07da42106fded421245803bcce6ae58
p3503
sVCity
p3504
V\u671d\u9633
p3505
sVSnsFlag
p3506
I49
sVDisplayName
p3507
g56
sVUniFriend
p3508
I0
sVMemberCount
p3509
I0
sVOwnerUin
p3510
I0
sVMemberList
p3511
g52
sVAlias
p3512
g56
sVPYQuanPin
p3513
Vwoyaojianjiankangkang
p3514
sVSignature
p3515
g56
sVRemarkPYInitial
p3516
VWZXQQ
p3517
sVContactFlag
p3518
I3
sVUin
p3519
I0
sVNickName
p3520
V\u6211\u8981\u5065\u5065\u5eb7\u5eb7
p3521
sVAppAccountFlag
p3522
I0
sVVerifyFlag
p3523
I0
sVRemarkPYQuanPin
p3524
Vwuzhongxieqianqian
p3525
sVHeadImgUrl
p3526
V/cgi-bin/mmwebwx-bin/webwxgeticon?seq=662787575&username=@c5aef0532d2b03061045b559608aad55b07da42106fded421245803bcce6ae58&skey=@crypt_9c3dea4c_f5700a142e41b2a86f3977c50c30a560
p3527
sVKeyWord
p3528
g56
sVProvince
p3529
V\u5317\u4eac
p3530
sVPYInitial
p3531
VWYJJKK
p3532
sVRemarkName
p3533
V\u6b66\u4e2d-\u89e3\u831c\u831c
p3534
sVIsOwner
p3535
I0
sVSex
p3536
I2
sVStarFriend
p3537
I0
sVHideInputBarFlag
p3538
I0
sVChatRoomId
p3539
I0
sVEncryChatRoomId
p3540
g56
sVAttrStatus
p3541
I234917
sVStatues
p3542
I0
stp3543
Rp3544
I1
bag34
(g38
g39
(dp3545
VUserName
p3546
V@d3bf8bc7e74f770dd21c9dbf7f23e54c
p3547
sVCity
p3548
V\u676d\u5dde
p3549
sVSnsFlag
p3550
I49
sVDisplayName
p3551
g56
sVUniFriend
p3552
I0
sVMemberCount
p3553
I0
sVOwnerUin
p3554
I0
sVMemberList
p3555
g52
sVAlias
p3556
g56
sVPYQuanPin
p3557
g519
sVSignature
p3558
V\u4e91\u4e2d\u98de\u8d3a \u5fc3\u95f4\u85cf\u68a6 \u547d\u91cc\u5ba0\u5a07
p3559
sVRemarkPYInitial
p3560
VHKYMHWEBQD
p3561
sVContactFlag
p3562
I3
sVUin
p3563
I0
sVNickName
p3564
VD\u3002
p3565
sVAppAccountFlag
p3566
I0
sVVerifyFlag
p3567
I0
sVRemarkPYQuanPin
p3568
Vhaikeyumenghuiwebqianduan
p3569
sVHeadImgUrl
p3570
V/cgi-bin/mmwebwx-bin/webwxgeticon?seq=662748359&username=@d3bf8bc7e74f770dd21c9dbf7f23e54c&skey=@crypt_9c3dea4c_f5700a142e41b2a86f3977c50c30a560
p3571
sVKeyWord
p3572
Vymh
p3573
sVProvince
p3574
V\u6d59\u6c5f
p3575
sVPYInitial
p3576
g519
sVRemarkName
p3577
V\u6c26\u6c2a-\u4fde\u5b5f\u8f89-web\u524d\u7aef
p3578
sVIsOwner
p3579
I0
sVSex
p3580
I1
sVStarFriend
p3581
I0
sVHideInputBarFlag
p3582
I0
sVChatRoomId
p3583
I0
sVEncryChatRoomId
p3584
g56
sVAttrStatus
p3585
I112935
sVStatues
p3586
I0
stp3587
Rp3588
I1
bag34
(g38
g39
(dp3589
VUserName
p3590
V@f09e5f4d109a2b06c79ffa551133b4fb7811f4bb875d759f74c661aeb7390f00
p3591
sVCity
p3592
g56
sVSnsFlag
p3593
I1
sVDisplayName
p3594
g56
sVUniFriend
p3595
I0
sVMemberCount
p3596
I0
sVOwnerUin
p3597
I0
sVMemberList
p3598
g52
sVAlias
p3599
g56
sVPYQuanPin
p3600
V???chengjianspanclassemojiemoji1f451spanzhengjian???
p3601
sVSignature
p3602
V\u672c\u516c\u53f8  \u4e13\u4e1a \u529e\u7406 \u5404\u79cd \u8bc1\u4ef6\u2705\u516c\u7ae0\uff0c\u6b22\u8fce\u54a8\u8be2 <span class="emoji emoji2648"></span>\ufe0fbanzheng122
p3603
sVRemarkPYInitial
p3604
VGNBZCS
p3605
sVContactFlag
p3606
I3
sVUin
p3607
I0
sVNickName
p3608
V\ua9c1\uaade \u2112\u8bda\u4ef6\U0001f451\u8bc1\u4ef6\u2112 \uaade\ua9c2
p3609
sVAppAccountFlag
p3610
I0
sVVerifyFlag
p3611
I0
sVRemarkPYQuanPin
p3612
Vgongnengbanzhengchangsha
p3613
sVHeadImgUrl
p3614
V/cgi-bin/mmwebwx-bin/webwxgeticon?seq=662721517&username=@f09e5f4d109a2b06c79ffa551133b4fb7811f4bb875d759f74c661aeb7390f00&skey=@crypt_9c3dea4c_f5700a142e41b2a86f3977c50c30a560
p3615
sVKeyWord
p3616
g56
sVProvince
p3617
g56
sVPYInitial
p3618
V???CJSPANCLASSEMOJIEMOJI1F451SPANZJ???
p3619
sVRemarkName
p3620
V\u529f\u80fd-\u529e\u8bc1-\u957f\u6c99
p3621
sVIsOwner
p3622
I0
sVSex
p3623
I2
sVStarFriend
p3624
I0
sVHideInputBarFlag
p3625
I0
sVChatRoomId
p3626
I0
sVEncryChatRoomId
p3627
g56
sVAttrStatus
p3628
I103013
sVStatues
p3629
I0
stp3630
Rp3631
I1
bag34
(g38
g39
(dp3632
VUserName
p3633
V@7bedcc7788f5c79e525ddc973d1d34de
p3634
sVCity
p3635
V\u676d\u5dde
p3636
sVSnsFlag
p3637
I49
sVDisplayName
p3638
g56
sVUniFriend
p3639
I0
sVMemberCount
p3640
I0
sVOwnerUin
p3641
I0
sVMemberList
p3642
g52
sVAlias
p3643
g56
sVPYQuanPin
p3644
Vcaimeiyounameku
p3645
sVSignature
p3646
V\u6587\u827a\u7684\u76ee\u7684\u5c31\u662f\u627e\u4e2a\u7406\u7531\u7231\u4e0a\u67af\u71e5\u7684\u751f\u6d3b\u4ee5\u53ca\u4e0d\u582a\u7684\u81ea\u5df1
p3647
sVRemarkPYInitial
p3648
VHKLXFQD
p3649
sVContactFlag
p3650
I3
sVUin
p3651
I0
sVNickName
p3652
V@\u624d\u6ca1\u6709\u90a3\u4e48\u9177
p3653
sVAppAccountFlag
p3654
I0
sVVerifyFlag
p3655
I0
sVRemarkPYQuanPin
p3656
Vhaikelixiaofengqianduan
p3657
sVHeadImgUrl
p3658
V/cgi-bin/mmwebwx-bin/webwxgeticon?seq=647563025&username=@7bedcc7788f5c79e525ddc973d1d34de&skey=@crypt_9c3dea4c_f5700a142e41b2a86f3977c50c30a560
p3659
sVKeyWord
p3660
Vkev
p3661
sVProvince
p3662
V\u6d59\u6c5f
p3663
sVPYInitial
p3664
VCMYNMK
p3665
sVRemarkName
p3666
V\u6c26\u6c2a-\u674e\u6653\u5cf0-\u524d\u7aef
p3667
sVIsOwner
p3668
I0
sVSex
p3669
I1
sVStarFriend
p3670
I0
sVHideInputBarFlag
p3671
I0
sVChatRoomId
p3672
I0
sVEncryChatRoomId
p3673
g56
sVAttrStatus
p3674
I111735
sVStatues
p3675
I0
stp3676
Rp3677
I1
bag34
(g38
g39
(dp3678
VUserName
p3679
V@0d40db519dcdf9ca300dafd5820b3436b60f1e06d8b30a8e22c09c08af5b177d
p3680
sVCity
p3681
V\u676d\u5dde
p3682
sVSnsFlag
p3683
I17
sVDisplayName
p3684
g56
sVUniFriend
p3685
I0
sVMemberCount
p3686
I0
sVOwnerUin
p3687
I0
sVMemberList
p3688
g52
sVAlias
p3689
g56
sVPYQuanPin
p3690
Vchunniunai
p3691
sVSignature
p3692
V\u4f60\u82e5\u5b89\u597d\uff0c\u4fbf\u662f\u6674\u5929\u3002
p3693
sVRemarkPYInitial
p3694
VALLGELM
p3695
sVContactFlag
p3696
I3
sVUin
p3697
I0
sVNickName
p3698
V\u7eaf\u725b\u5976
p3699
sVAppAccountFlag
p3700
I0
sVVerifyFlag
p3701
I0
sVRemarkPYQuanPin
p3702
Vanliliugangeleme
p3703
sVHeadImgUrl
p3704
V/cgi-bin/mmwebwx-bin/webwxgeticon?seq=662788394&username=@0d40db519dcdf9ca300dafd5820b3436b60f1e06d8b30a8e22c09c08af5b177d&skey=@crypt_9c3dea4c_f5700a142e41b2a86f3977c50c30a560
p3705
sVKeyWord
p3706
Vw33
p3707
sVProvince
p3708
V\u6d59\u6c5f
p3709
sVPYInitial
p3710
VCNN
p3711
sVRemarkName
p3712
V\u5b89\u7406-\u5218\u521a--\u997f\u4e86\u4e48
p3713
sVIsOwner
p3714
I0
sVSex
p3715
I1
sVStarFriend
p3716
I0
sVHideInputBarFlag
p3717
I0
sVChatRoomId
p3718
I0
sVEncryChatRoomId
p3719
g56
sVAttrStatus
p3720
I112103
sVStatues
p3721
I0
stp3722
Rp3723
I1
bag34
(g38
g39
(dp3724
VUserName
p3725
V@eabb982959fc58d7e6d0121e379d378b74735cec8598be7da9c59a79f50de7e2
p3726
sVCity
p3727
V\u90af\u90f8
p3728
sVSnsFlag
p3729
I17
sVDisplayName
p3730
g56
sVUniFriend
p3731
I0
sVMemberCount
p3732
I0
sVOwnerUin
p3733
I0
sVMemberList
p3734
g52
sVAlias
p3735
g56
sVPYQuanPin
p3736
Vtuxiaoleng
p3737
sVSignature
p3738
V\u4e0d\u629b\u5f03\uff0c\u4e0d\u653e\u5f03\uff01
p3739
sVRemarkPYInitial
p3740
VSDSTQD
p3741
sVContactFlag
p3742
I3
sVUin
p3743
I0
sVNickName
p3744
V\u5154\u5c0f\u51b7
p3745
sVAppAccountFlag
p3746
I0
sVVerifyFlag
p3747
I0
sVRemarkPYQuanPin
p3748
Vshidushitouqianduan
p3749
sVHeadImgUrl
p3750
V/cgi-bin/mmwebwx-bin/webwxgeticon?seq=662789110&username=@eabb982959fc58d7e6d0121e379d378b74735cec8598be7da9c59a79f50de7e2&skey=@crypt_9c3dea4c_f5700a142e41b2a86f3977c50c30a560
p3751
sVKeyWord
p3752
g56
sVProvince
p3753
V\u6cb3\u5317
p3754
sVPYInitial
p3755
VTXL
p3756
sVRemarkName
p3757
V\u77f3-\u675c\u77f3\u5934-\u524d\u7aef
p3758
sVIsOwner
p3759
I0
sVSex
p3760
I1
sVStarFriend
p3761
I0
sVHideInputBarFlag
p3762
I0
sVChatRoomId
p3763
I0
sVEncryChatRoomId
p3764
g56
sVAttrStatus
p3765
I135269
sVStatues
p3766
I0
stp3767
Rp3768
I1
bag34
(g38
g39
(dp3769
VUserName
p3770
V@af01dbb4285886eac3a28dd18aa11741f493a341095f2d9373224a8b3636cbc0
p3771
sVCity
p3772
V\u8861\u6c34
p3773
sVSnsFlag
p3774
I17
sVDisplayName
p3775
g56
sVUniFriend
p3776
I0
sVMemberCount
p3777
I0
sVOwnerUin
p3778
I0
sVMemberList
p3779
g52
sVAlias
p3780
g56
sVPYQuanPin
p3781
VzhuzaiTardis
p3782
sVSignature
p3783
V\u6211\u662f\u771f\u6ca1\u6709
p3784
sVRemarkPYInitial
p3785
VSDWFTXTJ
p3786
sVContactFlag
p3787
I3
sVUin
p3788
I0
sVNickName
p3789
V\u4f4f\u5728Tardis
p3790
sVAppAccountFlag
p3791
I0
sVVerifyFlag
p3792
I0
sVRemarkPYQuanPin
p3793
Vsandawangfeitongxintianjin
p3794
sVHeadImgUrl
p3795
V/cgi-bin/mmwebwx-bin/webwxgeticon?seq=662789184&username=@af01dbb4285886eac3a28dd18aa11741f493a341095f2d9373224a8b3636cbc0&skey=@crypt_9c3dea4c_f5700a142e41b2a86f3977c50c30a560
p3796
sVKeyWord
p3797
g56
sVProvince
p3798
V\u6cb3\u5317
p3799
sVPYInitial
p3800
VZZTARDIS
p3801
sVRemarkName
p3802
V\u4e09\u5927-\u738b\u98de-\u901a\u4fe1-\u5929\u6d25
p3803
sVIsOwner
p3804
I0
sVSex
p3805
I1
sVStarFriend
p3806
I0
sVHideInputBarFlag
p3807
I0
sVChatRoomId
p3808
I0
sVEncryChatRoomId
p3809
g56
sVAttrStatus
p3810
I4133
sVStatues
p3811
I0
stp3812
Rp3813
I1
bag34
(g38
g39
(dp3814
VUserName
p3815
V@3daca4f08f1bb2d9429bb9cc70e11ae9140fcb1b5413757ad2fa0b1556df9c77
p3816
sVCity
p3817
V\u70df\u53f0
p3818
sVSnsFlag
p3819
I17
sVDisplayName
p3820
g56
sVUniFriend
p3821
I0
sVMemberCount
p3822
I0
sVOwnerUin
p3823
I0
sVMemberList
p3824
g52
sVAlias
p3825
g56
sVPYQuanPin
p3826
Vyingxue
p3827
sVSignature
p3828
V\u4e3b\u5185\u5e73\u5b89\uff01
p3829
sVRemarkPYInitial
p3830
VYWZXYT
p3831
sVContactFlag
p3832
I3
sVUin
p3833
I0
sVNickName
p3834
V\u6620\u96ea
p3835
sVAppAccountFlag
p3836
I0
sVVerifyFlag
p3837
I0
sVRemarkPYQuanPin
p3838
Vyiwangzhixianyantai
p3839
sVHeadImgUrl
p3840
V/cgi-bin/mmwebwx-bin/webwxgeticon?seq=620802226&username=@3daca4f08f1bb2d9429bb9cc70e11ae9140fcb1b5413757ad2fa0b1556df9c77&skey=@crypt_9c3dea4c_f5700a142e41b2a86f3977c50c30a560
p3841
sVKeyWord
p3842
g56
sVProvince
p3843
V\u5c71\u4e1c
p3844
sVPYInitial
p3845
VYX
p3846
sVRemarkName
p3847
V\u4f0a-\u738b\u5fd7\u8d24-\u70df\u53f0
p3848
sVIsOwner
p3849
I0
sVSex
p3850
I2
sVStarFriend
p3851
I0
sVHideInputBarFlag
p3852
I0
sVChatRoomId
p3853
I0
sVEncryChatRoomId
p3854
g56
sVAttrStatus
p3855
I36901
sVStatues
p3856
I0
stp3857
Rp3858
I1
bag34
(g38
g39
(dp3859
VUserName
p3860
V@d05306508a925753d0462b8b6f9fe712
p3861
sVCity
p3862
V\u8861\u6c34
p3863
sVSnsFlag
p3864
I17
sVDisplayName
p3865
g56
sVUniFriend
p3866
I0
sVMemberCount
p3867
I0
sVOwnerUin
p3868
I0
sVMemberList
p3869
g52
sVAlias
p3870
g56
sVPYQuanPin
p3871
Vaijiasheying15030824925
p3872
sVSignature
p3873
g56
sVRemarkPYInitial
p3874
VXYLY
p3875
sVContactFlag
p3876
I1
sVUin
p3877
I0
sVNickName
p3878
V\u7231\u5bb6\u6444\u5f7115030824925
p3879
sVAppAccountFlag
p3880
I0
sVVerifyFlag
p3881
I0
sVRemarkPYQuanPin
p3882
Vxiuyuanliuyang
p3883
sVHeadImgUrl
p3884
V/cgi-bin/mmwebwx-bin/webwxgeticon?seq=662703705&username=@d05306508a925753d0462b8b6f9fe712&skey=@crypt_9c3dea4c_f5700a142e41b2a86f3977c50c30a560
p3885
sVKeyWord
p3886
VY90
p3887
sVProvince
p3888
V\u6cb3\u5317
p3889
sVPYInitial
p3890
VAJSY15030824925
p3891
sVRemarkName
p3892
V\u4fee\u9662-\u5218\u9633
p3893
sVIsOwner
p3894
I0
sVSex
p3895
I1
sVStarFriend
p3896
I0
sVHideInputBarFlag
p3897
I0
sVChatRoomId
p3898
I0
sVEncryChatRoomId
p3899
g56
sVAttrStatus
p3900
I4133
sVStatues
p3901
I0
stp3902
Rp3903
I1
bag34
(g38
g39
(dp3904
VUserName
p3905
V@35624ce0de3276bc4f4a6d2f2b3a0eb5
p3906
sVCity
p3907
VraN9l_
p3908
sVSnsFlag
p3909
I49
sVDisplayName
p3910
g56
sVUniFriend
p3911
I0
sVMemberCount
p3912
I0
sVOwnerUin
p3913
I0
sVMemberList
p3914
g52
sVAlias
p3915
g56
sVPYQuanPin
p3916
Vhejinxi
p3917
sVSignature
p3918
V\u2026
p3919
sVRemarkPYInitial
p3920
VALHJX
p3921
sVContactFlag
p3922
I3
sVUin
p3923
I0
sVNickName
p3924
V\u8d3a\u4eca\u7199
p3925
sVAppAccountFlag
p3926
I0
sVVerifyFlag
p3927
I0
sVRemarkPYQuanPin
p3928
Vanlihejinxi
p3929
sVHeadImgUrl
p3930
V/cgi-bin/mmwebwx-bin/webwxgeticon?seq=628010774&username=@35624ce0de3276bc4f4a6d2f2b3a0eb5&skey=@crypt_9c3dea4c_f5700a142e41b2a86f3977c50c30a560
p3931
sVKeyWord
p3932
Vhjx
p3933
sVProvince
p3934
Vl_
p3935
sVPYInitial
p3936
VHJX
p3937
sVRemarkName
p3938
V\u5b89\u7406-\u8d3a\u4eca\u7199
p3939
sVIsOwner
p3940
I0
sVSex
p3941
I1
sVStarFriend
p3942
I0
sVHideInputBarFlag
p3943
I0
sVChatRoomId
p3944
I0
sVEncryChatRoomId
p3945
g56
sVAttrStatus
p3946
I242151
sVStatues
p3947
I0
stp3948
Rp3949
I1
bag34
(g38
g39
(dp3950
VUserName
p3951
V@e9d6c6a595c545bbc943d6c723cdeca5127c70d403b67c0d04d91124a498eb26
p3952
sVCity
p3953
V\u8861\u6c34
p3954
sVSnsFlag
p3955
I145
sVDisplayName
p3956
g56
sVUniFriend
p3957
I0
sVMemberCount
p3958
I0
sVOwnerUin
p3959
I0
sVMemberList
p3960
g52
sVAlias
p3961
g56
sVPYQuanPin
p3962
Vzhenxiyuanfen
p3963
sVSignature
p3964
V\u4e13\u4e1a\u9632\u6c34\uff0c\u627f\u63fd\u9632\u6c34\u5de5\u7a0b\uff0c13012093226
p3965
sVRemarkPYInitial
p3966
VYWYC
p3967
sVContactFlag
p3968
I3
sVUin
p3969
I0
sVNickName
p3970
V\u73cd\u60dc\u7f18\u5206
p3971
sVAppAccountFlag
p3972
I0
sVVerifyFlag
p3973
I0
sVRemarkPYQuanPin
p3974
Vyiwangyucai
p3975
sVHeadImgUrl
p3976
V/cgi-bin/mmwebwx-bin/webwxgeticon?seq=662773056&username=@e9d6c6a595c545bbc943d6c723cdeca5127c70d403b67c0d04d91124a498eb26&skey=@crypt_9c3dea4c_f5700a142e41b2a86f3977c50c30a560
p3977
sVKeyWord
p3978
g56
sVProvince
p3979
V\u6cb3\u5317
p3980
sVPYInitial
p3981
VZXYF
p3982
sVRemarkName
p3983
V\u4f0a-\u738b\u7389\u624d
p3984
sVIsOwner
p3985
I0
sVSex
p3986
I1
sVStarFriend
p3987
I0
sVHideInputBarFlag
p3988
I0
sVChatRoomId
p3989
I0
sVEncryChatRoomId
p3990
g56
sVAttrStatus
p3991
I4257
sVStatues
p3992
I0
stp3993
Rp3994
I1
bag34
(g38
g39
(dp3995
VUserName
p3996
V@f811199eadb3b7485a6b891c0cd0edc3
p3997
sVCity
p3998
V\u77f3\u5bb6\u5e84
p3999
sVSnsFlag
p4000
I17
sVDisplayName
p4001
g56
sVUniFriend
p4002
I0
sVMemberCount
p4003
I0
sVOwnerUin
p4004
I0
sVMemberList
p4005
g52
sVAlias
p4006
g56
sVPYQuanPin
p4007
Vyongheng
p4008
sVSignature
p4009
V\u6211\u8fd8\u80fd\u8bf4\u4ec0\u4e48\u5462\uff1f\u6211\u81ea\u5df1\u90fd\u65e0\u8bed
p4010
sVRemarkPYInitial
p4011
VMJXNWX
p4012
sVContactFlag
p4013
I3
sVUin
p4014
I0
sVNickName
p4015
V\u6c38\u6052
p4016
sVAppAccountFlag
p4017
I0
sVVerifyFlag
p4018
I0
sVRemarkPYQuanPin
p4019
Vmujinxinianwangxiao
p4020
sVHeadImgUrl
p4021
V/cgi-bin/mmwebwx-bin/webwxgeticon?seq=662790806&username=@f811199eadb3b7485a6b891c0cd0edc3&skey=@crypt_9c3dea4c_f5700a142e41b2a86f3977c50c30a560
p4022
sVKeyWord
p4023
Vwei
p4024
sVProvince
p4025
V\u6cb3\u5317
p4026
sVPYInitial
p4027
VYH
p4028
sVRemarkName
p4029
V\u6728\u69ff\u6614\u5e74\uff0d\u738b\u7b11
p4030
sVIsOwner
p4031
I0
sVSex
p4032
I2
sVStarFriend
p4033
I0
sVHideInputBarFlag
p4034
I0
sVChatRoomId
p4035
I0
sVEncryChatRoomId
p4036
g56
sVAttrStatus
p4037
I143463
sVStatues
p4038
I0
stp4039
Rp4040
I1
bag34
(g38
g39
(dp4041
VUserName
p4042
V@dc3e819203288f24832d1d8141836f90af081ba37879e4044b155b3c956e5f67
p4043
sVCity
p4044
V\u77f3\u5bb6\u5e84
p4045
sVSnsFlag
p4046
I17
sVDisplayName
p4047
g56
sVUniFriend
p4048
I0
sVMemberCount
p4049
I0
sVOwnerUin
p4050
I0
sVMemberList
p4051
g52
sVAlias
p4052
g56
sVPYQuanPin
p4053
Vqingfengliuyun
p4054
sVSignature
p4055
V\u505a\u4e00\u4e2a\u6de1\u6de1\u7684\u5973\u5b50
p4056
sVRemarkPYInitial
p4057
VSDLLY
p4058
sVContactFlag
p4059
I3
sVUin
p4060
I0
sVNickName
p4061
V\u6e05\u98ce\u6d41\u4e91
p4062
sVAppAccountFlag
p4063
I0
sVVerifyFlag
p4064
I0
sVRemarkPYQuanPin
p4065
Vsandaliulingyun
p4066
sVHeadImgUrl
p4067
V/cgi-bin/mmwebwx-bin/webwxgeticon?seq=662791053&username=@dc3e819203288f24832d1d8141836f90af081ba37879e4044b155b3c956e5f67&skey=@crypt_9c3dea4c_f5700a142e41b2a86f3977c50c30a560
p4068
sVKeyWord
p4069
g56
sVProvince
p4070
V\u6cb3\u5317
p4071
sVPYInitial
p4072
VQFLY
p4073
sVRemarkName
p4074
V\u4e09\u5927-\u5218\u51cc\u4e91
p4075
sVIsOwner
p4076
I0
sVSex
p4077
I2
sVStarFriend
p4078
I0
sVHideInputBarFlag
p4079
I0
sVChatRoomId
p4080
I0
sVEncryChatRoomId
p4081
g56
sVAttrStatus
p4082
I4133
sVStatues
p4083
I0
stp4084
Rp4085
I1
bag34
(g38
g39
(dp4086
VUserName
p4087
V@3d7bfd14dc032e005e3b656c63429d2a
p4088
sVCity
p4089
V\u4e1c\u57ce
p4090
sVSnsFlag
p4091
I17
sVDisplayName
p4092
g56
sVUniFriend
p4093
I0
sVMemberCount
p4094
I0
sVOwnerUin
p4095
I0
sVMemberList
p4096
g52
sVAlias
p4097
g56
sVPYQuanPin
p4098
VVIPKIDkechengguwenzhuguanPeterspanclassemojiemoji1f433span
p4099
sVSignature
p4100
V\u624b\u673a\u53f713311515218
p4101
sVRemarkPYInitial
p4102
VWZMKTYYJY
p4103
sVContactFlag
p4104
I3
sVUin
p4105
I0
sVNickName
p4106
VVIPKID\u8bfe\u7a0b\u987e\u95ee\u4e3b\u7ba1Peter\U0001f433
p4107
sVAppAccountFlag
p4108
I0
sVVerifyFlag
p4109
I0
sVRemarkPYQuanPin
p4110
Vwuzhongmaketaiyingyujiaoyu
p4111
sVHeadImgUrl
p4112
V/cgi-bin/mmwebwx-bin/webwxgeticon?seq=662791578&username=@3d7bfd14dc032e005e3b656c63429d2a&skey=@crypt_9c3dea4c_f5700a142e41b2a86f3977c50c30a560
p4113
sVKeyWord
p4114
Vmak
p4115
sVProvince
p4116
V\u5317\u4eac
p4117
sVPYInitial
p4118
VVIPKIDKCGWZGPETERSPANCLASSEMOJIEMOJI1F433SPAN
p4119
sVRemarkName
p4120
V\u6b66\u4e2d-\u9a6c\u79d1\u6cf0-\u82f1\u8bed\u6559\u80b2
p4121
sVIsOwner
p4122
I0
sVSex
p4123
I1
sVStarFriend
p4124
I0
sVHideInputBarFlag
p4125
I0
sVChatRoomId
p4126
I0
sVEncryChatRoomId
p4127
g56
sVAttrStatus
p4128
I99365
sVStatues
p4129
I0
stp4130
Rp4131
I1
bag34
(g38
g39
(dp4132
VUserName
p4133
V@6eeafdfd60bc1eb7a4d245899a972a0e040cc2a639626d509b3b02b8eb12ca08
p4134
sVCity
p4135
g56
sVSnsFlag
p4136
I17
sVDisplayName
p4137
g56
sVUniFriend
p4138
I0
sVMemberCount
p4139
I0
sVOwnerUin
p4140
I0
sVMemberList
p4141
g52
sVAlias
p4142
g56
sVPYQuanPin
p4143
Vaimilier
p4144
sVSignature
p4145
V\u6211\u8be5\u4e0b\u5b9a\u51b3\u5fc3\u4e86\u5427\uff1f\uff01
p4146
sVRemarkPYInitial
p4147
VBHCMM01
p4148
sVContactFlag
p4149
I3
sVUin
p4150
I0
sVNickName
p4151
V\u7231\u7c73\u7c92\u513f
p4152
sVAppAccountFlag
p4153
I0
sVVerifyFlag
p4154
I0
sVRemarkPYQuanPin
p4155
Vbinhecuimengmeng01
p4156
sVHeadImgUrl
p4157
V/cgi-bin/mmwebwx-bin/webwxgeticon?seq=662768192&username=@6eeafdfd60bc1eb7a4d245899a972a0e040cc2a639626d509b3b02b8eb12ca08&skey=@crypt_9c3dea4c_f5700a142e41b2a86f3977c50c30a560
p4158
sVKeyWord
p4159
g56
sVProvince
p4160
g56
sVPYInitial
p4161
VAMLE
p4162
sVRemarkName
p4163
V\u6ee8\u6cb3-\u5d14\u8499\u8499-01
p4164
sVIsOwner
p4165
I0
sVSex
p4166
I2
sVStarFriend
p4167
I0
sVHideInputBarFlag
p4168
I0
sVChatRoomId
p4169
I0
sVEncryChatRoomId
p4170
g56
sVAttrStatus
p4171
I33731685
sVStatues
p4172
I0
stp4173
Rp4174
I1
bag34
(g38
g39
(dp4175
VUserName
p4176
V@2e4388d54b6701b139ad2c9f72aee9b1
p4177
sVCity
p4178
V\u9a6c\u978d\u5c71
p4179
sVSnsFlag
p4180
I17
sVDisplayName
p4181
g56
sVUniFriend
p4182
I0
sVMemberCount
p4183
I0
sVOwnerUin
p4184
I0
sVMemberList
p4185
g52
sVAlias
p4186
g56
sVPYQuanPin
p4187
Vyulinjun
p4188
sVSignature
p4189
V\u6c34\u53ef\u8f7d\u821f\uff0c\u4ea6\u53ef\u8d5b\u8247
p4190
sVRemarkPYInitial
p4191
VALFY
p4192
sVContactFlag
p4193
I3
sVUin
p4194
I0
sVNickName
p4195
V\u5fa1\u6797\u83cc
p4196
sVAppAccountFlag
p4197
I0
sVVerifyFlag
p4198
I0
sVRemarkPYQuanPin
p4199
Vanlifangyu
p4200
sVHeadImgUrl
p4201
V/cgi-bin/mmwebwx-bin/webwxgeticon?seq=662792065&username=@2e4388d54b6701b139ad2c9f72aee9b1&skey=@crypt_9c3dea4c_f5700a142e41b2a86f3977c50c30a560
p4202
sVKeyWord
p4203
Vfan
p4204
sVProvince
p4205
V\u5b89\u5fbd
p4206
sVPYInitial
p4207
VYLJ
p4208
sVRemarkName
p4209
V\u5b89\u7406-\u65b9\u6631
p4210
sVIsOwner
p4211
I0
sVSex
p4212
I1
sVStarFriend
p4213
I0
sVHideInputBarFlag
p4214
I0
sVChatRoomId
p4215
I0
sVEncryChatRoomId
p4216
g56
sVAttrStatus
p4217
I99263
sVStatues
p4218
I0
stp4219
Rp4220
I1
bag34
(g38
g39
(dp4221
VUserName
p4222
V@e99d3fe1bd04f28e43ebbe850a7ba87771755903f7616b1732fcf3c05f1813c2
p4223
sVCity
p4224
V\u6dee\u5357
p4225
sVSnsFlag
p4226
I17
sVDisplayName
p4227
g56
sVUniFriend
p4228
I0
sVMemberCount
p4229
I0
sVOwnerUin
p4230
I0
sVMemberList
p4231
g52
sVAlias
p4232
g56
sVPYQuanPin
p4233
Vchengjian
p4234
sVSignature
p4235
g56
sVRemarkPYInitial
p4236
VALCJ
p4237
sVContactFlag
p4238
I3
sVUin
p4239
I0
sVNickName
p4240
V\u7a0b\u9a9e
p4241
sVAppAccountFlag
p4242
I0
sVVerifyFlag
p4243
I0
sVRemarkPYQuanPin
p4244
Vanlichengjian
p4245
sVHeadImgUrl
p4246
V/cgi-bin/mmwebwx-bin/webwxgeticon?seq=662756288&username=@e99d3fe1bd04f28e43ebbe850a7ba87771755903f7616b1732fcf3c05f1813c2&skey=@crypt_9c3dea4c_f5700a142e41b2a86f3977c50c30a560
p4247
sVKeyWord
p4248
g56
sVProvince
p4249
V\u5b89\u5fbd
p4250
sVPYInitial
p4251
VCJ
p4252
sVRemarkName
p4253
V\u5b89\u7406-\u7a0b\u9a9e
p4254
sVIsOwner
p4255
I0
sVSex
p4256
I2
sVStarFriend
p4257
I0
sVHideInputBarFlag
p4258
I0
sVChatRoomId
p4259
I0
sVEncryChatRoomId
p4260
g56
sVAttrStatus
p4261
I102437
sVStatues
p4262
I0
stp4263
Rp4264
I1
bag34
(g38
g39
(dp4265
VUserName
p4266
V@faa917389bf56f88bc4a13dbae77a4c58af2964b46e8160a88de309cc178a1f2
p4267
sVCity
p4268
V\u660c\u5e73
p4269
sVSnsFlag
p4270
I17
sVDisplayName
p4271
g56
sVUniFriend
p4272
I0
sVMemberCount
p4273
I0
sVOwnerUin
p4274
I0
sVMemberList
p4275
g52
sVAlias
p4276
g56
sVPYQuanPin
p4277
Vshizixiaoxi
p4278
sVSignature
p4279
VFiat Lux.
p4280
sVRemarkPYInitial
p4281
VYZXNYYBJ
p4282
sVContactFlag
p4283
I8195
sVUin
p4284
I0
sVNickName
p4285
V\u5341\u5b57\u5c0f\u6eaa
p4286
sVAppAccountFlag
p4287
I0
sVVerifyFlag
p4288
I0
sVRemarkPYQuanPin
p4289
Vyizhangxiaonayingyubeijing
p4290
sVHeadImgUrl
p4291
V/cgi-bin/mmwebwx-bin/webwxgeticon?seq=662703684&username=@faa917389bf56f88bc4a13dbae77a4c58af2964b46e8160a88de309cc178a1f2&skey=@crypt_9c3dea4c_f5700a142e41b2a86f3977c50c30a560
p4292
sVKeyWord
p4293
g56
sVProvince
p4294
V\u5317\u4eac
p4295
sVPYInitial
p4296
VSZXX
p4297
sVRemarkName
p4298
V\u4f0a-\u5f20\u6653\u5a1c-\u82f1\u8bed-\u5317\u4eac
p4299
sVIsOwner
p4300
I0
sVSex
p4301
I1
sVStarFriend
p4302
I0
sVHideInputBarFlag
p4303
I0
sVChatRoomId
p4304
I0
sVEncryChatRoomId
p4305
g56
sVAttrStatus
p4306
I98661
sVStatues
p4307
I0
stp4308
Rp4309
I1
bag34
(g38
g39
(dp4310
VUserName
p4311
V@99950ab1e8f6f9d2638458f4a5bbf14182a5ab13ae6c937647ed73662e415615
p4312
sVCity
p4313
g56
sVSnsFlag
p4314
I1
sVDisplayName
p4315
g56
sVUniFriend
p4316
I0
sVMemberCount
p4317
I0
sVOwnerUin
p4318
I0
sVMemberList
p4319
g52
sVAlias
p4320
g56
sVPYQuanPin
p4321
Vgangliang
p4322
sVSignature
p4323
V\u6ca7\u6d77\u4e00\u7b11\uff0c\u4e8e\u7e41\u534e\u843d\u5c3d\u6d17\u5c3d\u94c5\u534e\uff0c\u4e0d\u95fb\u5343\u5c71\u66ae\u96ea\u6697\u9999\u6d6e\u6e38
p4324
sVRemarkPYInitial
p4325
VALGL
p4326
sVContactFlag
p4327
I3
sVUin
p4328
I0
sVNickName
p4329
V\u92fc\u6881
p4330
sVAppAccountFlag
p4331
I0
sVVerifyFlag
p4332
I0
sVRemarkPYQuanPin
p4333
Vanligangliang
p4334
sVHeadImgUrl
p4335
V/cgi-bin/mmwebwx-bin/webwxgeticon?seq=647560553&username=@99950ab1e8f6f9d2638458f4a5bbf14182a5ab13ae6c937647ed73662e415615&skey=@crypt_9c3dea4c_f5700a142e41b2a86f3977c50c30a560
p4336
sVKeyWord
p4337
g56
sVProvince
p4338
g56
sVPYInitial
p4339
VGL
p4340
sVRemarkName
p4341
V\u5b89\u7406-\u521a\u826f
p4342
sVIsOwner
p4343
I0
sVSex
p4344
I1
sVStarFriend
p4345
I0
sVHideInputBarFlag
p4346
I0
sVChatRoomId
p4347
I0
sVEncryChatRoomId
p4348
g56
sVAttrStatus
p4349
I17015679
sVStatues
p4350
I0
stp4351
Rp4352
I1
bag34
(g38
g39
(dp4353
VUserName
p4354
V@41ee5194ee7c1ebeffb3e2ad744b6a90
p4355
sVCity
p4356
V\u676d\u5dde
p4357
sVSnsFlag
p4358
I49
sVDisplayName
p4359
g56
sVUniFriend
p4360
I0
sVMemberCount
p4361
I0
sVOwnerUin
p4362
I0
sVMemberList
p4363
g52
sVAlias
p4364
g56
sVPYQuanPin
p4365
Vduola
p4366
sVSignature
p4367
V\u81ea\u6211\u8fed\u4ee3\u8005
p4368
sVRemarkPYInitial
p4369
VHKTQHR
p4370
sVContactFlag
p4371
I3
sVUin
p4372
I0
sVNickName
p4373
V\u6735\u62c9
p4374
sVAppAccountFlag
p4375
I0
sVVerifyFlag
p4376
I0
sVRemarkPYQuanPin
p4377
VhaiketangqianHR
p4378
sVHeadImgUrl
p4379
V/cgi-bin/mmwebwx-bin/webwxgeticon?seq=662793260&username=@41ee5194ee7c1ebeffb3e2ad744b6a90&skey=@crypt_9c3dea4c_f5700a142e41b2a86f3977c50c30a560
p4380
sVKeyWord
p4381
Vtan
p4382
sVProvince
p4383
V\u6d59\u6c5f
p4384
sVPYInitial
p4385
VDL
p4386
sVRemarkName
p4387
V\u6c26\u6c2a-\u5510\u5029--HR
p4388
sVIsOwner
p4389
I0
sVSex
p4390
I2
sVStarFriend
p4391
I0
sVHideInputBarFlag
p4392
I0
sVChatRoomId
p4393
I0
sVEncryChatRoomId
p4394
g56
sVAttrStatus
p4395
I229687
sVStatues
p4396
I0
stp4397
Rp4398
I1
bag34
(g38
g39
(dp4399
VUserName
p4400
V@057966b09e4439fc46a8af972b63feaf
p4401
sVCity
p4402
V\u5e38\u5dde
p4403
sVSnsFlag
p4404
I49
sVDisplayName
p4405
g56
sVUniFriend
p4406
I0
sVMemberCount
p4407
I0
sVOwnerUin
p4408
I0
sVMemberList
p4409
g52
sVAlias
p4410
g56
sVPYQuanPin
p4411
VBOBBYspanclassemojiemoji1f388span
p4412
sVSignature
p4413
V\u6211\u80fd\u60f3\u5230\u6700\u6d6a\u6f2b\u7684\u4e8b\uff0c\u5c31\u662f\u548c\u4f60\u4e00\u8d77\u653e\u5f03\u6cbb\u7597\u2026
p4414
sVRemarkPYInitial
p4415
VMTCBQDCZ
p4416
sVContactFlag
p4417
I3
sVUin
p4418
I0
sVNickName
p4419
VBOBBY\U0001f388
p4420
sVAppAccountFlag
p4421
I0
sVVerifyFlag
p4422
I0
sVRemarkPYQuanPin
p4423
Vmaitianchenbinqianduanchangzhou
p4424
sVHeadImgUrl
p4425
V/cgi-bin/mmwebwx-bin/webwxgeticon?seq=662793348&username=@057966b09e4439fc46a8af972b63feaf&skey=@crypt_9c3dea4c_f5700a142e41b2a86f3977c50c30a560
p4426
sVKeyWord
p4427
Vlun
p4428
sVProvince
p4429
V\u6c5f\u82cf
p4430
sVPYInitial
p4431
VBOBBYSPANCLASSEMOJIEMOJI1F388SPAN
p4432
sVRemarkName
p4433
V\u9ea6\u7530-\u9648\u658c-\u524d\u7aef-\u5e38\u5dde
p4434
sVIsOwner
p4435
I0
sVSex
p4436
I1
sVStarFriend
p4437
I0
sVHideInputBarFlag
p4438
I0
sVChatRoomId
p4439
I0
sVEncryChatRoomId
p4440
g56
sVAttrStatus
p4441
I106623
sVStatues
p4442
I0
stp4443
Rp4444
I1
bag34
(g38
g39
(dp4445
VUserName
p4446
V@9dc237342ce81c645f2a48ee67a8c96698130548ff13aa1c3fb5d0e544049f39
p4447
sVCity
p4448
V\u6dee\u5357
p4449
sVSnsFlag
p4450
I17
sVDisplayName
p4451
g56
sVUniFriend
p4452
I0
sVMemberCount
p4453
I0
sVOwnerUin
p4454
I0
sVMemberList
p4455
g52
sVAlias
p4456
g56
sVPYQuanPin
p4457
Vjingtianxin
p4458
sVSignature
p4459
g56
sVRemarkPYInitial
p4460
VALLYJ
p4461
sVContactFlag
p4462
I3
sVUin
p4463
I0
sVNickName
p4464
V\u955c\u5929\u5fc3
p4465
sVAppAccountFlag
p4466
I0
sVVerifyFlag
p4467
I0
sVRemarkPYQuanPin
p4468
Vanliliyuanju
p4469
sVHeadImgUrl
p4470
V/cgi-bin/mmwebwx-bin/webwxgeticon?seq=662793379&username=@9dc237342ce81c645f2a48ee67a8c96698130548ff13aa1c3fb5d0e544049f39&skey=@crypt_9c3dea4c_f5700a142e41b2a86f3977c50c30a560
p4471
sVKeyWord
p4472
g56
sVProvince
p4473
V\u5b89\u5fbd
p4474
sVPYInitial
p4475
VJTX
p4476
sVRemarkName
p4477
V\u5b89\u7406-\u9ece\u8fdc\u83ca
p4478
sVIsOwner
p4479
I0
sVSex
p4480
I2
sVStarFriend
p4481
I0
sVHideInputBarFlag
p4482
I0
sVChatRoomId
p4483
I0
sVEncryChatRoomId
p4484
g56
sVAttrStatus
p4485
I17008509
sVStatues
p4486
I0
stp4487
Rp4488
I1
bag34
(g38
g39
(dp4489
VUserName
p4490
V@68196e0421a52a76a799d7250f71676e4c9aa639f0e1eb9ad92229fb3aa8fd56
p4491
sVCity
p4492
V\u4fdd\u5b9a
p4493
sVSnsFlag
p4494
I49
sVDisplayName
p4495
g56
sVUniFriend
p4496
I0
sVMemberCount
p4497
I0
sVOwnerUin
p4498
I0
sVMemberList
p4499
g52
sVAlias
p4500
g56
sVPYQuanPin
p4501
Vtaoyuanjinsi
p4502
sVSignature
p4503
g56
sVRemarkPYInitial
p4504
VWZWZWQCWX
p4505
sVContactFlag
p4506
I3
sVUin
p4507
I0
sVNickName
p4508
V\u6843\u56ed\u91d1\u4e1d
p4509
sVAppAccountFlag
p4510
I0
sVVerifyFlag
p4511
I0
sVRemarkPYQuanPin
p4512
Vwuzhongwangzhiweiqicheweixiu
p4513
sVHeadImgUrl
p4514
V/cgi-bin/mmwebwx-bin/webwxgeticon?seq=662793460&username=@68196e0421a52a76a799d7250f71676e4c9aa639f0e1eb9ad92229fb3aa8fd56&skey=@crypt_9c3dea4c_f5700a142e41b2a86f3977c50c30a560
p4515
sVKeyWord
p4516
g56
sVProvince
p4517
V\u6cb3\u5317
p4518
sVPYInitial
p4519
VTYJS
p4520
sVRemarkName
p4521
V\u6b66\u4e2d-\u738b\u5fd7\u4f1f-\u6c7d\u8f66\u7ef4\u4fee
p4522
sVIsOwner
p4523
I0
sVSex
p4524
I1
sVStarFriend
p4525
I0
sVHideInputBarFlag
p4526
I0
sVChatRoomId
p4527
I0
sVEncryChatRoomId
p4528
g56
sVAttrStatus
p4529
I104485
sVStatues
p4530
I0
stp4531
Rp4532
I1
bag34
(g38
g39
(dp4533
VUserName
p4534
V@79f5342057d3338d184437e1c2dee359ab8a52d7d72270ebce3a4a3f35e64460
p4535
sVCity
p4536
V\u6d66\u4e1c\u65b0\u533a
p4537
sVSnsFlag
p4538
I49
sVDisplayName
p4539
g56
sVUniFriend
p4540
I0
sVMemberCount
p4541
I0
sVOwnerUin
p4542
I0
sVMemberList
p4543
g52
sVAlias
p4544
g56
sVPYQuanPin
p4545
Vmenghuan
p4546
sVSignature
p4547
g56
sVRemarkPYInitial
p4548
VALYWF
p4549
sVContactFlag
p4550
I3
sVUin
p4551
I0
sVNickName
p4552
V\u68a6\u5e7b
p4553
sVAppAccountFlag
p4554
I0
sVVerifyFlag
p4555
I0
sVRemarkPYQuanPin
p4556
Vanliyuwangfang
p4557
sVHeadImgUrl
p4558
V/cgi-bin/mmwebwx-bin/webwxgeticon?seq=647565845&username=@79f5342057d3338d184437e1c2dee359ab8a52d7d72270ebce3a4a3f35e64460&skey=@crypt_9c3dea4c_f5700a142e41b2a86f3977c50c30a560
p4559
sVKeyWord
p4560
g56
sVProvince
p4561
V\u4e0a\u6d77
p4562
sVPYInitial
p4563
VMH
p4564
sVRemarkName
p4565
V\u5b89\u7406-\u4f59\u738b\u65b9
p4566
sVIsOwner
p4567
I0
sVSex
p4568
I1
sVStarFriend
p4569
I0
sVHideInputBarFlag
p4570
I0
sVChatRoomId
p4571
I0
sVEncryChatRoomId
p4572
g56
sVAttrStatus
p4573
I102501
sVStatues
p4574
I0
stp4575
Rp4576
I1
bag34
(g38
g39
(dp4577
VUserName
p4578
V@68d95f563922a06e18afd484583c9e3b
p4579
sVCity
p4580
V\u676d\u5dde
p4581
sVSnsFlag
p4582
I17
sVDisplayName
p4583
g56
sVUniFriend
p4584
I0
sVMemberCount
p4585
I0
sVOwnerUin
p4586
I0
sVMemberList
p4587
g52
sVAlias
p4588
g56
sVPYQuanPin
p4589
VLispanclassemojiemoji1f43espan
p4590
sVSignature
p4591
V\u5fcd\u4f4f\u4f60\u7684\u75db\u82e6\uff0c\u4e0d\u53d1\u4e00\u8bed\uff0c\u7a7f\u8fc7\u8fd9\u6574\u5ea7\u57ce\u5e02......
p4592
sVRemarkPYInitial
p4593
VHKMXLQD
p4594
sVContactFlag
p4595
I3
sVUin
p4596
I0
sVNickName
p4597
VLi\U0001f43e
p4598
sVAppAccountFlag
p4599
I0
sVVerifyFlag
p4600
I0
sVRemarkPYQuanPin
p4601
Vhaikemaxiaoliqianduan
p4602
sVHeadImgUrl
p4603
V/cgi-bin/mmwebwx-bin/webwxgeticon?seq=662713715&username=@68d95f563922a06e18afd484583c9e3b&skey=@crypt_9c3dea4c_f5700a142e41b2a86f3977c50c30a560
p4604
sVKeyWord
p4605
Vmax
p4606
sVProvince
p4607
V\u6d59\u6c5f
p4608
sVPYInitial
p4609
VLISPANCLASSEMOJIEMOJI1F43ESPAN
p4610
sVRemarkName
p4611
V\u6c26\u6c2a-\u9a6c\u5c0f\u4e3d-\u524d\u7aef
p4612
sVIsOwner
p4613
I0
sVSex
p4614
I2
sVStarFriend
p4615
I0
sVHideInputBarFlag
p4616
I0
sVChatRoomId
p4617
I0
sVEncryChatRoomId
p4618
g56
sVAttrStatus
p4619
I17018981
sVStatues
p4620
I0
stp4621
Rp4622
I1
bag34
(g38
g39
(dp4623
VUserName
p4624
V@683cfa1d87552e56b6039b6568bb5ae4
p4625
sVCity
p4626
V\u676d\u5dde
p4627
sVSnsFlag
p4628
I49
sVDisplayName
p4629
g56
sVUniFriend
p4630
I0
sVMemberCount
p4631
I0
sVOwnerUin
p4632
I0
sVMemberList
p4633
g52
sVAlias
p4634
g56
sVPYQuanPin
p4635
Vhuabutoujixianchengduo
p4636
sVSignature
p4637
g56
sVRemarkPYInitial
p4638
VHWSQYHSB
p4639
sVContactFlag
p4640
I3
sVUin
p4641
I0
sVNickName
p4642
V\u8bdd\u4e0d\u6295\u673a\u9c9c\u6a59\u591a
p4643
sVAppAccountFlag
p4644
I0
sVVerifyFlag
p4645
I0
sVRemarkPYQuanPin
p4646
Vhangwangshiqiyouhushebei
p4647
sVHeadImgUrl
p4648
V/cgi-bin/mmwebwx-bin/webwxgeticon?seq=662717814&username=@683cfa1d87552e56b6039b6568bb5ae4&skey=@crypt_9c3dea4c_f5700a142e41b2a86f3977c50c30a560
p4649
sVKeyWord
p4650
Vwsq
p4651
sVProvince
p4652
V\u6d59\u6c5f
p4653
sVPYInitial
p4654
VHBTJXCD
p4655
sVRemarkName
p4656
V\u676d-\u738b\u4e16\u7426-\u6e38\u620f\u8bbe\u5907
p4657
sVIsOwner
p4658
I0
sVSex
p4659
I1
sVStarFriend
p4660
I0
sVHideInputBarFlag
p4661
I0
sVChatRoomId
p4662
I0
sVEncryChatRoomId
p4663
g56
sVAttrStatus
p4664
I67623
sVStatues
p4665
I0
stp4666
Rp4667
I1
bag34
(g38
g39
(dp4668
VUserName
p4669
V@4ba06a808cc888dd3e3ff189ec635905a791a539252e2414199b2c6b34e10782
p4670
sVCity
p4671
g56
sVSnsFlag
p4672
I1
sVDisplayName
p4673
g56
sVUniFriend
p4674
I0
sVMemberCount
p4675
I0
sVOwnerUin
p4676
I0
sVMemberList
p4677
g52
sVAlias
p4678
g56
sVPYQuanPin
p4679
Vhuangsanlian
p4680
sVSignature
p4681
V\u5f00\u5fc3\u6bcf\u4e00\u5929
p4682
sVRemarkPYInitial
p4683
VXHLHSLPABXWZ
p4684
sVContactFlag
p4685
I3
sVUin
p4686
I0
sVNickName
p4687
V\u9ec4\u4e09\u8fde
p4688
sVAppAccountFlag
p4689
I0
sVVerifyFlag
p4690
I0
sVRemarkPYQuanPin
p4691
Vxihulinhuangsanlianpinganbaoxianwenzhou
p4692
sVHeadImgUrl
p4693
V/cgi-bin/mmwebwx-bin/webwxgeticon?seq=662762818&username=@4ba06a808cc888dd3e3ff189ec635905a791a539252e2414199b2c6b34e10782&skey=@crypt_9c3dea4c_f5700a142e41b2a86f3977c50c30a560
p4694
sVKeyWord
p4695
g56
sVProvince
p4696
g56
sVPYInitial
p4697
VHSL
p4698
sVRemarkName
p4699
V\u897f\u80e1\u6797-\u9ec4\u4e09\u8fde-\u5e73\u5b89\u4fdd\u9669-\u6e29\u5dde
p4700
sVIsOwner
p4701
I0
sVSex
p4702
I2
sVStarFriend
p4703
I0
sVHideInputBarFlag
p4704
I0
sVChatRoomId
p4705
I0
sVEncryChatRoomId
p4706
g56
sVAttrStatus
p4707
I102437
sVStatues
p4708
I0
stp4709
Rp4710
I1
bag34
(g38
g39
(dp4711
VUserName
p4712
V@5f01641c061cd649f5334de2f00fd4866ca6da441c7df4d9512e0aa5ec50074c
p4713
sVCity
p4714
V\u77f3\u5bb6\u5e84
p4715
sVSnsFlag
p4716
I17
sVDisplayName
p4717
g56
sVUniFriend
p4718
I0
sVMemberCount
p4719
I0
sVOwnerUin
p4720
I0
sVMemberList
p4721
g52
sVAlias
p4722
g56
sVPYQuanPin
p4723
Vsaiyu
p4724
sVSignature
p4725
g56
sVRemarkPYInitial
p4726
VSCSYZH
p4727
sVContactFlag
p4728
I3
sVUin
p4729
I0
sVNickName
p4730
V\u601d\u96e8
p4731
sVAppAccountFlag
p4732
I0
sVVerifyFlag
p4733
I0
sVRemarkPYQuanPin
p4734
Vshichensaiyuzihua
p4735
sVHeadImgUrl
p4736
V/cgi-bin/mmwebwx-bin/webwxgeticon?seq=662712725&username=@5f01641c061cd649f5334de2f00fd4866ca6da441c7df4d9512e0aa5ec50074c&skey=@crypt_9c3dea4c_f5700a142e41b2a86f3977c50c30a560
p4737
sVKeyWord
p4738
g56
sVProvince
p4739
V\u6cb3\u5317
p4740
sVPYInitial
p4741
VSY
p4742
sVRemarkName
p4743
V\u77f3-\u9648\u601d\u96e8-\u5b57\u753b
p4744
sVIsOwner
p4745
I0
sVSex
p4746
I2
sVStarFriend
p4747
I0
sVHideInputBarFlag
p4748
I0
sVChatRoomId
p4749
I0
sVEncryChatRoomId
p4750
g56
sVAttrStatus
p4751
I4133
sVStatues
p4752
I0
stp4753
Rp4754
I1
bag34
(g38
g39
(dp4755
VUserName
p4756
V@000ecd27c5b8d0f15221fb1cee4d26ee2207431cc589292cf5fbb10a5fc7be99
p4757
sVCity
p4758
V\u671d\u9633
p4759
sVSnsFlag
p4760
I145
sVDisplayName
p4761
g56
sVUniFriend
p4762
I0
sVMemberCount
p4763
I0
sVOwnerUin
p4764
I0
sVMemberList
p4765
g52
sVAlias
p4766
g56
sVPYQuanPin
p4767
Vtaohuakai
p4768
sVSignature
p4769
V\u5f00\u5fc3\u5feb\u4e50\u6bcf\u4e00\u5929
p4770
sVRemarkPYInitial
p4771
VYWZT
p4772
sVContactFlag
p4773
I3
sVUin
p4774
I0
sVNickName
p4775
V\u6843\u82b1\u5f00
p4776
sVAppAccountFlag
p4777
I0
sVVerifyFlag
p4778
I0
sVRemarkPYQuanPin
p4779
Vyiwangzhitao
p4780
sVHeadImgUrl
p4781
V/cgi-bin/mmwebwx-bin/webwxgeticon?seq=662712539&username=@000ecd27c5b8d0f15221fb1cee4d26ee2207431cc589292cf5fbb10a5fc7be99&skey=@crypt_9c3dea4c_f5700a142e41b2a86f3977c50c30a560
p4782
sVKeyWord
p4783
g56
sVProvince
p4784
V\u5317\u4eac
p4785
sVPYInitial
p4786
VTHK
p4787
sVRemarkName
p4788
V\u4f0a-\u738b\u5fd7\u6d9b
p4789
sVIsOwner
p4790
I0
sVSex
p4791
I1
sVStarFriend
p4792
I0
sVHideInputBarFlag
p4793
I0
sVChatRoomId
p4794
I0
sVEncryChatRoomId
p4795
g56
sVAttrStatus
p4796
I16781413
sVStatues
p4797
I0
stp4798
Rp4799
I1
bag34
(g38
g39
(dp4800
VUserName
p4801
V@df71c493192d044cbaa7a9313c5176156530924520b674c963377430b19404d5
p4802
sVCity
p4803
V\u6e29\u5dde
p4804
sVSnsFlag
p4805
I177
sVDisplayName
p4806
g56
sVUniFriend
p4807
I0
sVMemberCount
p4808
I0
sVOwnerUin
p4809
I0
sVMemberList
p4810
g52
sVAlias
p4811
g56
sVPYQuanPin
p4812
Vriyaomifei
p4813
sVSignature
p4814
g56
sVRemarkPYInitial
p4815
VMTZXMHR
p4816
sVContactFlag
p4817
I3
sVUin
p4818
I0
sVNickName
p4819
V\u65e5\u7476-\u7c73\u83f2
p4820
sVAppAccountFlag
p4821
I0
sVVerifyFlag
p4822
I0
sVRemarkPYQuanPin
p4823
Vmaitianzhangxiaomeihr
p4824
sVHeadImgUrl
p4825
V/cgi-bin/mmwebwx-bin/webwxgeticon?seq=662746015&username=@df71c493192d044cbaa7a9313c5176156530924520b674c963377430b19404d5&skey=@crypt_9c3dea4c_f5700a142e41b2a86f3977c50c30a560
p4826
sVKeyWord
p4827
Vzha
p4828
sVProvince
p4829
V\u6d59\u6c5f
p4830
sVPYInitial
p4831
VRYMF
p4832
sVRemarkName
p4833
V\u9ea6\u7530-\u5f20\u6653\u6885-hr
p4834
sVIsOwner
p4835
I0
sVSex
p4836
I2
sVStarFriend
p4837
I0
sVHideInputBarFlag
p4838
I0
sVChatRoomId
p4839
I0
sVEncryChatRoomId
p4840
g56
sVAttrStatus
p4841
I229629
sVStatues
p4842
I0
stp4843
Rp4844
I1
bag34
(g38
g39
(dp4845
VUserName
p4846
V@726d0d53cb0f8290324f424b024ee1ab
p4847
sVCity
p4848
g56
sVSnsFlag
p4849
I17
sVDisplayName
p4850
g56
sVUniFriend
p4851
I0
sVMemberCount
p4852
I0
sVOwnerUin
p4853
I0
sVMemberList
p4854
g52
sVAlias
p4855
g56
sVPYQuanPin
p4856
Vamituofomemeda
p4857
sVSignature
p4858
g56
sVRemarkPYInitial
p4859
VWZTXTYX
p4860
sVContactFlag
p4861
I3
sVUin
p4862
I0
sVNickName
p4863
V\u963f\u5f25\u9640\u4f5b\u4e48\u4e48\u54d2
p4864
sVAppAccountFlag
p4865
I0
sVVerifyFlag
p4866
I0
sVRemarkPYQuanPin
p4867
Vwuzhongtianxiaotongyixue
p4868
sVHeadImgUrl
p4869
V/cgi-bin/mmwebwx-bin/webwxgeticon?seq=662794446&username=@726d0d53cb0f8290324f424b024ee1ab&skey=@crypt_9c3dea4c_f5700a142e41b2a86f3977c50c30a560
p4870
sVKeyWord
p4871
Vtia
p4872
sVProvince
p4873
g56
sVPYInitial
p4874
VAMTFMMD
p4875
sVRemarkName
p4876
V\u6b66\u4e2d-\u7530\u6653\u5f64-\u533b\u5b66
p4877
sVIsOwner
p4878
I0
sVSex
p4879
I1
sVStarFriend
p4880
I0
sVHideInputBarFlag
p4881
I0
sVChatRoomId
p4882
I0
sVEncryChatRoomId
p4883
g56
sVAttrStatus
p4884
I106599
sVStatues
p4885
I0
stp4886
Rp4887
I1
bag34
(g38
g39
(dp4888
VUserName
p4889
V@ad6123eee24cba48e114dbae01e8466688ce3c029ad3a765b10c6180f8111e61
p4890
sVCity
p4891
V\u8861\u6c34
p4892
sVSnsFlag
p4893
I17
sVDisplayName
p4894
g56
sVUniFriend
p4895
I0
sVMemberCount
p4896
I0
sVOwnerUin
p4897
I0
sVMemberList
p4898
g52
sVAlias
p4899
g56
sVPYQuanPin
p4900
Vmengtian
p4901
sVSignature
p4902
V\u70ed\u7231\u751f\u6d3b
p4903
sVRemarkPYInitial
p4904
VXYSMLYWHS
p4905
sVContactFlag
p4906
I1
sVUin
p4907
I0
sVNickName
p4908
V\u68a6\u7530
p4909
sVAppAccountFlag
p4910
I0
sVVerifyFlag
p4911
I0
sVRemarkPYQuanPin
p4912
Vxiuyuansunmeiliyuwenhengshui
p4913
sVHeadImgUrl
p4914
V/cgi-bin/mmwebwx-bin/webwxgeticon?seq=662795283&username=@ad6123eee24cba48e114dbae01e8466688ce3c029ad3a765b10c6180f8111e61&skey=@crypt_9c3dea4c_f5700a142e41b2a86f3977c50c30a560
p4915
sVKeyWord
p4916
g56
sVProvince
p4917
V\u6cb3\u5317
p4918
sVPYInitial
p4919
VMT
p4920
sVRemarkName
p4921
V\u4fee\u9662-\u5b59\u6885\u4e3d-\u8bed\u6587-\u8861\u6c34
p4922
sVIsOwner
p4923
I0
sVSex
p4924
I2
sVStarFriend
p4925
I0
sVHideInputBarFlag
p4926
I0
sVChatRoomId
p4927
I0
sVEncryChatRoomId
p4928
g56
sVAttrStatus
p4929
I2147586145
sVStatues
p4930
I0
stp4931
Rp4932
I1
bag34
(g38
g39
(dp4933
VUserName
p4934
V@1b0479fb95f4501a281aaa939802c3bf3ab19aceb15133cb4251e9a3e522eb4b
p4935
sVCity
p4936
V\u8fbd\u9633
p4937
sVSnsFlag
p4938
I49
sVDisplayName
p4939
g56
sVUniFriend
p4940
I0
sVMemberCount
p4941
I0
sVOwnerUin
p4942
I0
sVMemberList
p4943
g52
sVAlias
p4944
g56
sVPYQuanPin
p4945
Vshiguangdaoliu
p4946
sVSignature
p4947
V\u5bf9\u4e0d\u8d77
p4948
sVRemarkPYInitial
p4949
VSLBSCY
p4950
sVContactFlag
p4951
I3
sVUin
p4952
I0
sVNickName
p4953
V\u65f6\u5149\u5012\u6d41
p4954
sVAppAccountFlag
p4955
I0
sVVerifyFlag
p4956
I0
sVRemarkPYQuanPin
p4957
Vshilibaisuicanyin
p4958
sVHeadImgUrl
p4959
V/cgi-bin/mmwebwx-bin/webwxgeticon?seq=662795453&username=@1b0479fb95f4501a281aaa939802c3bf3ab19aceb15133cb4251e9a3e522eb4b&skey=@crypt_9c3dea4c_f5700a142e41b2a86f3977c50c30a560
p4960
sVKeyWord
p4961
g56
sVProvince
p4962
V\u8fbd\u5b81
p4963
sVPYInitial
p4964
VSGDL
p4965
sVRemarkName
p4966
V\u77f3-\u674e\u767e\u5c81-\u9910\u996e
p4967
sVIsOwner
p4968
I0
sVSex
p4969
I1
sVStarFriend
p4970
I0
sVHideInputBarFlag
p4971
I0
sVChatRoomId
p4972
I0
sVEncryChatRoomId
p4973
g56
sVAttrStatus
p4974
I110693
sVStatues
p4975
I0
stp4976
Rp4977
I1
bag34
(g38
g39
(dp4978
VUserName
p4979
V@13808e35aa2d4de25fcb2cab9ac9fa23729a526e15ba8658a9f6a47a22acc60a
p4980
sVCity
p4981
V\u77f3\u5bb6\u5e84
p4982
sVSnsFlag
p4983
I1
sVDisplayName
p4984
g56
sVUniFriend
p4985
I0
sVMemberCount
p4986
I0
sVOwnerUin
p4987
I0
sVMemberList
p4988
g52
sVAlias
p4989
g56
sVPYQuanPin
p4990
Vfei
p4991
sVSignature
p4992
g56
sVRemarkPYInitial
p4993
VSDLPFPABXSJZ
p4994
sVContactFlag
p4995
I3
sVUin
p4996
I0
sVNickName
p4997
V\u98de
p4998
sVAppAccountFlag
p4999
I0
sVVerifyFlag
p5000
I0
sVRemarkPYQuanPin
p5001
Vsandaliupengfeipinganbaoxianshijiazhuang
p5002
sVHeadImgUrl
p5003
V/cgi-bin/mmwebwx-bin/webwxgeticon?seq=647556348&username=@13808e35aa2d4de25fcb2cab9ac9fa23729a526e15ba8658a9f6a47a22acc60a&skey=@crypt_9c3dea4c_f5700a142e41b2a86f3977c50c30a560
p5004
sVKeyWord
p5005
g56
sVProvince
p5006
V\u6cb3\u5317
p5007
sVPYInitial
p5008
VF
p5009
sVRemarkName
p5010
V\u4e09\u5927-\u5218\u670b\u98de-\u5e73\u5b89\u4fdd\u9669-\u77f3\u5bb6\u5e84
p5011
sVIsOwner
p5012
I0
sVSex
p5013
I1
sVStarFriend
p5014
I0
sVHideInputBarFlag
p5015
I0
sVChatRoomId
p5016
I0
sVEncryChatRoomId
p5017
g56
sVAttrStatus
p5018
I102501
sVStatues
p5019
I0
stp5020
Rp5021
I1
bag34
(g38
g39
(dp5022
VUserName
p5023
V@c8a34ede6e6afe1d44bf963d4bff9737
p5024
sVCity
p5025
V\u671d\u9633
p5026
sVSnsFlag
p5027
I177
sVDisplayName
p5028
g56
sVUniFriend
p5029
I0
sVMemberCount
p5030
I0
sVOwnerUin
p5031
I0
sVMemberList
p5032
g52
sVAlias
p5033
g56
sVPYQuanPin
p5034
Vzufangqingzhaowo
p5035
sVSignature
p5036
V\u9700\u8981\u5f88\u591a
p5037
sVRemarkPYInitial
p5038
VBJHZDZF
p5039
sVContactFlag
p5040
I3
sVUin
p5041
I0
sVNickName
p5042
V\u79df\u623f\u8bf7\u627e\u6211
p5043
sVAppAccountFlag
p5044
I0
sVVerifyFlag
p5045
I0
sVRemarkPYQuanPin
p5046
Vbeijinghezhendongzufang
p5047
sVHeadImgUrl
p5048
V/cgi-bin/mmwebwx-bin/webwxgeticon?seq=662765435&username=@c8a34ede6e6afe1d44bf963d4bff9737&skey=@crypt_9c3dea4c_f5700a142e41b2a86f3977c50c30a560
p5049
sVKeyWord
p5050
VWO9
p5051
sVProvince
p5052
V\u5317\u4eac
p5053
sVPYInitial
p5054
VZFQZW
p5055
sVRemarkName
p5056
V\u5317\u4eac-\u4f55\u632f\u4e1c-\u79df\u623f
p5057
sVIsOwner
p5058
I0
sVSex
p5059
I1
sVStarFriend
p5060
I0
sVHideInputBarFlag
p5061
I0
sVChatRoomId
p5062
I0
sVEncryChatRoomId
p5063
g56
sVAttrStatus
p5064
I69687
sVStatues
p5065
I0
stp5066
Rp5067
I1
bag34
(g38
g39
(dp5068
VUserName
p5069
V@80843c72f56b575f0435f06342050af6d3f853958f0d625992ac74f7dfc89603
p5070
sVCity
p5071
V\u6210\u90fd
p5072
sVSnsFlag
p5073
I145
sVDisplayName
p5074
g56
sVUniFriend
p5075
I0
sVMemberCount
p5076
I0
sVOwnerUin
p5077
I0
sVMemberList
p5078
g52
sVAlias
p5079
g56
sVPYQuanPin
p5080
Vliweisheng
p5081
sVSignature
p5082
g56
sVRemarkPYInitial
p5083
VHKLWSWEBQD
p5084
sVContactFlag
p5085
I3
sVUin
p5086
I0
sVNickName
p5087
V\u674e\u851a\u751f
p5088
sVAppAccountFlag
p5089
I0
sVVerifyFlag
p5090
I0
sVRemarkPYQuanPin
p5091
Vhaikeliweishengwebqianduan
p5092
sVHeadImgUrl
p5093
V/cgi-bin/mmwebwx-bin/webwxgeticon?seq=662795904&username=@80843c72f56b575f0435f06342050af6d3f853958f0d625992ac74f7dfc89603&skey=@crypt_9c3dea4c_f5700a142e41b2a86f3977c50c30a560
p5094
sVKeyWord
p5095
g56
sVProvince
p5096
V\u56db\u5ddd
p5097
sVPYInitial
p5098
VLWS
p5099
sVRemarkName
p5100
V\u6c26\u6c2a-\u674e\u851a\u751f--web\u524d\u7aef
p5101
sVIsOwner
p5102
I0
sVSex
p5103
I1
sVStarFriend
p5104
I0
sVHideInputBarFlag
p5105
I0
sVChatRoomId
p5106
I0
sVEncryChatRoomId
p5107
g56
sVAttrStatus
p5108
I100709
sVStatues
p5109
I0
stp5110
Rp5111
I1
bag34
(g38
g39
(dp5112
VUserName
p5113
V@f739270e53f68d8ba6133fb1bc66295c8bade0e2e94c7ee4a96fb72d783bf288
p5114
sVCity
p5115
g56
sVSnsFlag
p5116
I49
sVDisplayName
p5117
g56
sVUniFriend
p5118
I0
sVMemberCount
p5119
I0
sVOwnerUin
p5120
I0
sVMemberList
p5121
g52
sVAlias
p5122
g56
sVPYQuanPin
p5123
Vsunyijie
p5124
sVSignature
p5125
V\u8e0f\u8e0f\u5b9e\u5b9e\u76d6\u5927\u697c\u3002
p5126
sVRemarkPYInitial
p5127
VWZSYJKG
p5128
sVContactFlag
p5129
I3
sVUin
p5130
I0
sVNickName
p5131
V\u5b59\u6021\u6770
p5132
sVAppAccountFlag
p5133
I0
sVVerifyFlag
p5134
I0
sVRemarkPYQuanPin
p5135
Vwuzhongsunyijiekaogu
p5136
sVHeadImgUrl
p5137
V/cgi-bin/mmwebwx-bin/webwxgeticon?seq=662790236&username=@f739270e53f68d8ba6133fb1bc66295c8bade0e2e94c7ee4a96fb72d783bf288&skey=@crypt_9c3dea4c_f5700a142e41b2a86f3977c50c30a560
p5138
sVKeyWord
p5139
g56
sVProvince
p5140
V\u5929\u6d25
p5141
sVPYInitial
p5142
VSYJ
p5143
sVRemarkName
p5144
V\u6b66\u4e2d-\u5b59\u6021\u6770--\u8003\u53e4
p5145
sVIsOwner
p5146
I0
sVSex
p5147
I2
sVStarFriend
p5148
I0
sVHideInputBarFlag
p5149
I0
sVChatRoomId
p5150
I0
sVEncryChatRoomId
p5151
g56
sVAttrStatus
p5152
I17007549
sVStatues
p5153
I0
stp5154
Rp5155
I1
bag34
(g38
g39
(dp5156
VUserName
p5157
V@1dd7cdfb5eac4fb2f07863bf12df34d6
p5158
sVCity
p5159
V\u6df1\u5733
p5160
sVSnsFlag
p5161
I49
sVDisplayName
p5162
g56
sVUniFriend
p5163
I0
sVMemberCount
p5164
I0
sVOwnerUin
p5165
I0
sVMemberList
p5166
g52
sVAlias
p5167
g56
sVPYQuanPin
p5168
VDavis
p5169
sVSignature
p5170
V\u5fc3\u5b58\u611f\u6069
p5171
sVRemarkPYInitial
p5172
VALWJQ
p5173
sVContactFlag
p5174
I3
sVUin
p5175
I0
sVNickName
p5176
VDavis
p5177
sVAppAccountFlag
p5178
I0
sVVerifyFlag
p5179
I0
sVRemarkPYQuanPin
p5180
Vanliwujianqiang
p5181
sVHeadImgUrl
p5182
V/cgi-bin/mmwebwx-bin/webwxgeticon?seq=662796945&username=@1dd7cdfb5eac4fb2f07863bf12df34d6&skey=@crypt_9c3dea4c_f5700a142e41b2a86f3977c50c30a560
p5183
sVKeyWord
p5184
Vwob
p5185
sVProvince
p5186
V\u5e7f\u4e1c
p5187
sVPYInitial
p5188
VDAVIS
p5189
sVRemarkName
p5190
V\u5b89\u7406-\u5434\u5efa\u5f3a
p5191
sVIsOwner
p5192
I0
sVSex
p5193
I1
sVStarFriend
p5194
I0
sVHideInputBarFlag
p5195
I0
sVChatRoomId
p5196
I0
sVEncryChatRoomId
p5197
g56
sVAttrStatus
p5198
I201191
sVStatues
p5199
I0
stp5200
Rp5201
I1
bag34
(g38
g39
(dp5202
VUserName
p5203
V@d62cdcb55ae940801adf108d157f22b5f36e20378a9daf54e187acfa8d61eed5
p5204
sVCity
p5205
g56
sVSnsFlag
p5206
I1
sVDisplayName
p5207
g56
sVUniFriend
p5208
I0
sVMemberCount
p5209
I0
sVOwnerUin
p5210
I0
sVMemberList
p5211
g52
sVAlias
p5212
g56
sVPYQuanPin
p5213
Vwuyongkang
p5214
sVSignature
p5215
V\u4eba\u4eba\u90fd\u7231\u9526\u4e0a\u6dfb\u82b1  \u7f3a\u4e0d\u613f\u610f\u96ea\u4e2d\u9001\u70ad
p5216
sVRemarkPYInitial
p5217
g56
sVContactFlag
p5218
I3
sVUin
p5219
I0
sVNickName
p5220
V\u5449\u9095\u6443
p5221
sVAppAccountFlag
p5222
I0
sVVerifyFlag
p5223
I0
sVRemarkPYQuanPin
p5224
g56
sVHeadImgUrl
p5225
V/cgi-bin/mmwebwx-bin/webwxgeticon?seq=662783295&username=@d62cdcb55ae940801adf108d157f22b5f36e20378a9daf54e187acfa8d61eed5&skey=@crypt_9c3dea4c_f5700a142e41b2a86f3977c50c30a560
p5226
sVKeyWord
p5227
g56
sVProvince
p5228
g56
sVPYInitial
p5229
VWYK
p5230
sVRemarkName
p5231
g56
sVIsOwner
p5232
I0
sVSex
p5233
I1
sVStarFriend
p5234
I0
sVHideInputBarFlag
p5235
I0
sVChatRoomId
p5236
I0
sVEncryChatRoomId
p5237
g56
sVAttrStatus
p5238
I102437
sVStatues
p5239
I0
stp5240
Rp5241
I1
bag34
(g38
g39
(dp5242
VUserName
p5243
V@c71fc82e1a7929bec76c8af0bebcb6a6a466049b976a216ee5e2fe8011bb5eb3
p5244
sVCity
p5245
V\u6dee\u5357
p5246
sVSnsFlag
p5247
I17
sVDisplayName
p5248
g56
sVUniFriend
p5249
I0
sVMemberCount
p5250
I0
sVOwnerUin
p5251
I0
sVMemberList
p5252
g52
sVAlias
p5253
g56
sVPYQuanPin
p5254
Vspanclassemojiemoji1f437spanspanclassemojiemoji1f437spanspanclassemojiemoji1f437spanspanclassemojiemoji1f437spanspanclassemojiemoji1f437span
p5255
sVSignature
p5256
g56
sVRemarkPYInitial
p5257
VALZL
p5258
sVContactFlag
p5259
I3
sVUin
p5260
I0
sVNickName
p5261
V\U0001f437\U0001f437\U0001f437\U0001f437\U0001f437
p5262
sVAppAccountFlag
p5263
I0
sVVerifyFlag
p5264
I0
sVRemarkPYQuanPin
p5265
Vanlizhuliang
p5266
sVHeadImgUrl
p5267
V/cgi-bin/mmwebwx-bin/webwxgeticon?seq=662744386&username=@c71fc82e1a7929bec76c8af0bebcb6a6a466049b976a216ee5e2fe8011bb5eb3&skey=@crypt_9c3dea4c_f5700a142e41b2a86f3977c50c30a560
p5268
sVKeyWord
p5269
g56
sVProvince
p5270
V\u5b89\u5fbd
p5271
sVPYInitial
p5272
VSPANCLASSEMOJIEMOJI1F437SPANSPANCLASSEMOJIEMOJI1F437SPANSPANCLASSEMOJIEMOJI1F437SPANSPANCLASSEMOJIEMOJI1F437SPANSPANCLASSEMOJIEMOJI1F437SPAN
p5273
sVRemarkName
p5274
V\u5b89\u7406-\u6731\u4eae
p5275
sVIsOwner
p5276
I0
sVSex
p5277
I1
sVStarFriend
p5278
I0
sVHideInputBarFlag
p5279
I0
sVChatRoomId
p5280
I0
sVEncryChatRoomId
p5281
g56
sVAttrStatus
p5282
I102501
sVStatues
p5283
I0
stp5284
Rp5285
I1
bag34
(g38
g39
(dp5286
VUserName
p5287
V@57c357e46dc20e58a6d602869ff7e4758aa5b239b72e9f5a14d24e1759cd3ff6
p5288
sVCity
p5289
V\u897f\u57ce
p5290
sVSnsFlag
p5291
I17
sVDisplayName
p5292
g56
sVUniFriend
p5293
I0
sVMemberCount
p5294
I0
sVOwnerUin
p5295
I0
sVMemberList
p5296
g52
sVAlias
p5297
g56
sVPYQuanPin
p5298
Vspanclassemojiemoji1f496spanKerryspanclassemojiemoji1f42cspan
p5299
sVSignature
p5300
g56
sVRemarkPYInitial
p5301
g56
sVContactFlag
p5302
I3
sVUin
p5303
I0
sVNickName
p5304
V\U0001f496Kerry\U0001f42c
p5305
sVAppAccountFlag
p5306
I0
sVVerifyFlag
p5307
I0
sVRemarkPYQuanPin
p5308
g56
sVHeadImgUrl
p5309
V/cgi-bin/mmwebwx-bin/webwxgeticon?seq=662797219&username=@57c357e46dc20e58a6d602869ff7e4758aa5b239b72e9f5a14d24e1759cd3ff6&skey=@crypt_9c3dea4c_f5700a142e41b2a86f3977c50c30a560
p5310
sVKeyWord
p5311
g56
sVProvince
p5312
V\u5317\u4eac
p5313
sVPYInitial
p5314
VSPANCLASSEMOJIEMOJI1F496SPANKERRYSPANCLASSEMOJIEMOJI1F42CSPAN
p5315
sVRemarkName
p5316
g56
sVIsOwner
p5317
I0
sVSex
p5318
I2
sVStarFriend
p5319
I0
sVHideInputBarFlag
p5320
I0
sVChatRoomId
p5321
I0
sVEncryChatRoomId
p5322
g56
sVAttrStatus
p5323
I2147586237
sVStatues
p5324
I0
stp5325
Rp5326
I1
bag34
(g38
g39
(dp5327
VUserName
p5328
V@89378f644e4ddab3dc8629a266594a12bf82fc3bbc90d1dbe62c15148845b01d
p5329
sVCity
p5330
g56
sVSnsFlag
p5331
I49
sVDisplayName
p5332
g56
sVUniFriend
p5333
I0
sVMemberCount
p5334
I0
sVOwnerUin
p5335
I0
sVMemberList
p5336
g52
sVAlias
p5337
g56
sVPYQuanPin
p5338
VKeepreal
p5339
sVSignature
p5340
VNothing is impossible,the word itself says "i'm possible"!
p5341
sVRemarkPYInitial
p5342
VALWY
p5343
sVContactFlag
p5344
I3
sVUin
p5345
I0
sVNickName
p5346
VKeep real
p5347
sVAppAccountFlag
p5348
I0
sVVerifyFlag
p5349
I0
sVRemarkPYQuanPin
p5350
Vanliwangyang
p5351
sVHeadImgUrl
p5352
V/cgi-bin/mmwebwx-bin/webwxgeticon?seq=662791539&username=@89378f644e4ddab3dc8629a266594a12bf82fc3bbc90d1dbe62c15148845b01d&skey=@crypt_9c3dea4c_f5700a142e41b2a86f3977c50c30a560
p5353
sVKeyWord
p5354
Vwan
p5355
sVProvince
p5356
VChiang Mai
p5357
sVPYInitial
p5358
VKEEPREAL
p5359
sVRemarkName
p5360
V\u5b89\u7406-\u6c6a\u6d0b
p5361
sVIsOwner
p5362
I0
sVSex
p5363
I1
sVStarFriend
p5364
I0
sVHideInputBarFlag
p5365
I0
sVChatRoomId
p5366
I0
sVEncryChatRoomId
p5367
g56
sVAttrStatus
p5368
I104551
sVStatues
p5369
I0
stp5370
Rp5371
I1
bag34
(g38
g39
(dp5372
VUserName
p5373
V@41dba0e1847cda8cc796a6baab4bcffd
p5374
sVCity
p5375
V\u676d\u5dde
p5376
sVSnsFlag
p5377
I145
sVDisplayName
p5378
g56
sVUniFriend
p5379
I0
sVMemberCount
p5380
I0
sVOwnerUin
p5381
I0
sVMemberList
p5382
g52
sVAlias
p5383
g56
sVPYQuanPin
p5384
Vjiushan
p5385
sVSignature
p5386
V\u6c85\u6709\u82b7\u516e\u6fa7\u6709\u5170
p5387
sVRemarkPYInitial
p5388
VHKTXFUI
p5389
sVContactFlag
p5390
I3
sVUin
p5391
I0
sVNickName
p5392
V\u4e5d\u5c71
p5393
sVAppAccountFlag
p5394
I0
sVVerifyFlag
p5395
I0
sVRemarkPYQuanPin
p5396
VhaiketongxufengUI
p5397
sVHeadImgUrl
p5398
V/cgi-bin/mmwebwx-bin/webwxgeticon?seq=662780232&username=@41dba0e1847cda8cc796a6baab4bcffd&skey=@crypt_9c3dea4c_f5700a142e41b2a86f3977c50c30a560
p5399
sVKeyWord
p5400
Vtxf
p5401
sVProvince
p5402
V\u6d59\u6c5f
p5403
sVPYInitial
p5404
VJS
p5405
sVRemarkName
p5406
V\u6c26\u6c2a-\u7ae5\u65ed\u5cf0--UI
p5407
sVIsOwner
p5408
I0
sVSex
p5409
I1
sVStarFriend
p5410
I0
sVHideInputBarFlag
p5411
I0
sVChatRoomId
p5412
I0
sVEncryChatRoomId
p5413
g56
sVAttrStatus
p5414
I111719
sVStatues
p5415
I0
stp5416
Rp5417
I1
bag34
(g38
g39
(dp5418
VUserName
p5419
V@a15c011554849d0c15a95a712960ca95223724dab7f4cc64f9061c59b078b6c4
p5420
sVCity
p5421
V\u77f3\u5bb6\u5e84
p5422
sVSnsFlag
p5423
I1
sVDisplayName
p5424
g56
sVUniFriend
p5425
I0
sVMemberCount
p5426
I0
sVOwnerUin
p5427
I0
sVMemberList
p5428
g52
sVAlias
p5429
g56
sVPYQuanPin
p5430
Vlairifangchang
p5431
sVSignature
p5432
g56
sVRemarkPYInitial
p5433
VYLRR
p5434
sVContactFlag
p5435
I3
sVUin
p5436
I0
sVNickName
p5437
V\u6765\u65e5\u65b9\u957f
p5438
sVAppAccountFlag
p5439
I0
sVVerifyFlag
p5440
I0
sVRemarkPYQuanPin
p5441
Vyileiruru
p5442
sVHeadImgUrl
p5443
V/cgi-bin/mmwebwx-bin/webwxgeticon?seq=662775192&username=@a15c011554849d0c15a95a712960ca95223724dab7f4cc64f9061c59b078b6c4&skey=@crypt_9c3dea4c_f5700a142e41b2a86f3977c50c30a560
p5444
sVKeyWord
p5445
g56
sVProvince
p5446
V\u6cb3\u5317
p5447
sVPYInitial
p5448
VLRFC
p5449
sVRemarkName
p5450
V\u4f0a\uff0d\u96f7\u8339\u8339
p5451
sVIsOwner
p5452
I0
sVSex
p5453
I2
sVStarFriend
p5454
I0
sVHideInputBarFlag
p5455
I0
sVChatRoomId
p5456
I0
sVEncryChatRoomId
p5457
g56
sVAttrStatus
p5458
I4197
sVStatues
p5459
I0
stp5460
Rp5461
I1
bag34
(g38
g39
(dp5462
VUserName
p5463
V@83a3924b5b9dc69079a6d62629718eaf
p5464
sVCity
p5465
V\u676d\u5dde
p5466
sVSnsFlag
p5467
I177
sVDisplayName
p5468
g56
sVUniFriend
p5469
I0
sVMemberCount
p5470
I0
sVOwnerUin
p5471
I0
sVMemberList
p5472
g52
sVAlias
p5473
g56
sVPYQuanPin
p5474
Valei
p5475
sVSignature
p5476
V\u613f\u4f60\u5fc3\u6709\u6240\u5b89\uff0c\u4ecd\u6000\u8d64\u5b50\u4e4b\u5fc3\u3002
p5477
sVRemarkPYInitial
p5478
VHCLCH
p5479
sVContactFlag
p5480
I3
sVUin
p5481
I0
sVNickName
p5482
V\u963f\u78ca
p5483
sVAppAccountFlag
p5484
I0
sVVerifyFlag
p5485
I0
sVRemarkPYQuanPin
p5486
Vhangchenleichuanhua
p5487
sVHeadImgUrl
p5488
V/cgi-bin/mmwebwx-bin/webwxgeticon?seq=662698071&username=@83a3924b5b9dc69079a6d62629718eaf&skey=@crypt_9c3dea4c_f5700a142e41b2a86f3977c50c30a560
p5489
sVKeyWord
p5490
Vlei
p5491
sVProvince
p5492
V\u6d59\u6c5f
p5493
sVPYInitial
p5494
VAL
p5495
sVRemarkName
p5496
V\u676d-\u9648\u78ca-\u4f20\u5316
p5497
sVIsOwner
p5498
I0
sVSex
p5499
I1
sVStarFriend
p5500
I0
sVHideInputBarFlag
p5501
I0
sVChatRoomId
p5502
I0
sVEncryChatRoomId
p5503
g56
sVAttrStatus
p5504
I98367
sVStatues
p5505
I0
stp5506
Rp5507
I1
bag34
(g38
g39
(dp5508
VUserName
p5509
V@9ecf6370f9c1ec3f404386f4574c1ee0a4c44d8bc5d2ef9ebc8f675315d51657
p5510
sVCity
p5511
V\u8861\u6c34
p5512
sVSnsFlag
p5513
I1
sVDisplayName
p5514
g56
sVUniFriend
p5515
I0
sVMemberCount
p5516
I0
sVOwnerUin
p5517
I0
sVMemberList
p5518
g52
sVAlias
p5519
g56
sVPYQuanPin
p5520
Vyiluxiangqian
p5521
sVSignature
p5522
V\u8033\u4e0d\u95fb\u4eba\u4e4b\u975e\uff0c\u76ee\u4e0d\u89c6\u4eba\u4e4b\u77ed\uff0c\u53e3\u4e0d\u8a00\u4eba\u4e4b\u8fc7\u3002 \u200b\u200b\u200b
p5523
sVRemarkPYInitial
p5524
VKFJ
p5525
sVContactFlag
p5526
I3
sVUin
p5527
I0
sVNickName
p5528
V\u4e00\u8def\u5411\u524d
p5529
sVAppAccountFlag
p5530
I0
sVVerifyFlag
p5531
I0
sVRemarkPYQuanPin
p5532
Vkoufengjie
p5533
sVHeadImgUrl
p5534
V/cgi-bin/mmwebwx-bin/webwxgeticon?seq=662799804&username=@9ecf6370f9c1ec3f404386f4574c1ee0a4c44d8bc5d2ef9ebc8f675315d51657&skey=@crypt_9c3dea4c_f5700a142e41b2a86f3977c50c30a560
p5535
sVKeyWord
p5536
g56
sVProvince
p5537
V\u6cb3\u5317
p5538
sVPYInitial
p5539
VYLXQ
p5540
sVRemarkName
p5541
V\u5bc7\u51e4\u6770
p5542
sVIsOwner
p5543
I0
sVSex
p5544
I2
sVStarFriend
p5545
I0
sVHideInputBarFlag
p5546
I0
sVChatRoomId
p5547
I0
sVEncryChatRoomId
p5548
g56
sVAttrStatus
p5549
I135293
sVStatues
p5550
I0
stp5551
Rp5552
I1
batp5553
Rp5554
I1
bsS'chatroomList'
p5555
g34
(g35
g36
(lp5556
g34
(citchat.storage.templates
Chatroom
p5557
g39
(dp5558
VUserName
p5559
V@@c9dd0160542df53f8717e6eeaeefb2dfc8961d88d32c66bfb8faf3f905601923
p5560
sVCity
p5561
g56
sVDisplayName
p5562
g56
sVUniFriend
p5563
I0
sS'Self'
p5564
g34
(g38
g39
(dp5565
g41
g31
sg43
g46
sg45
g46
sg47
I0
sg48
I0
sg49
g34
(g35
g36
(lp5566
tp5567
Rp5568
I1
bsg53
g56
sg55
g56
sg57
I2693546021
sg58
I0
sg59
I0
sg60
g46
sg62
g46
sg63
g56
sg64
g56
sg66
I0
sg68
I0
sg69
I1
sg70
g46
sg71
I0
sg72
I17
sg73
I0
sg74
I0
sg75
g46
sg76
g56
sg77
I0
sg78
Vkiwi
p5569
sg80
g56
sg81
V/cgi-bin/mmwebwx-bin/webwxgeticon?seq=1791389023&username=@22425418b63ffb9518522a2dbefc84500f778e9e1f16d0d37f4f641784768b19&skey=@crypt_9c3dea4c_f5700a142e41b2a86f3977c50c30a560
p5570
sg83
I1
sg84
I0
sg85
I0
stp5571
Rp5572
I1
bsVMemberList
p5573
g34
(g35
g36
(lp5574
tp5575
Rp5576
I1
bsVPYQuanPin
p5577
Vbinhe802
p5578
sVRemarkPYInitial
p5579
g56
sVSex
p5580
I0
sVAppAccountFlag
p5581
I0
sVVerifyFlag
p5582
I0
sVProvince
p5583
g56
sVKeyWord
p5584
g56
sVRemarkName
p5585
g56
sVPYInitial
p5586
VBH802
p5587
sVIsOwner
p5588
I0
sVChatRoomId
p5589
I0
sVHideInputBarFlag
p5590
I0
sVEncryChatRoomId
p5591
g56
sVAttrStatus
p5592
I0
sVSnsFlag
p5593
I0
sVMemberCount
p5594
I9
sVOwnerUin
p5595
I0
sVAlias
p5596
g56
sS'IsAdmin'
p5597
NsVSignature
p5598
g56
sVContactFlag
p5599
I3
sVNickName
p5600
V\u6ee8\u6cb3802
p5601
sVRemarkPYQuanPin
p5602
g56
sVHeadImgUrl
p5603
V/cgi-bin/mmwebwx-bin/webwxgetheadimg?seq=662784975&username=@@c9dd0160542df53f8717e6eeaeefb2dfc8961d88d32c66bfb8faf3f905601923&skey=@crypt_9c3dea4c_f5700a142e41b2a86f3977c50c30a560
p5604
sVUin
p5605
I0
sVStarFriend
p5606
I0
sVStatues
p5607
I1
stp5608
Rp5609
I1
bag34
(g5557
g39
(dp5610
VUserName
p5611
V@@5a002349a9c4867f5efb84aec977e5dd3f3fcb3584e3e5bcdf19dd403adae517
p5612
sVCity
p5613
g56
sVDisplayName
p5614
g56
sVUniFriend
p5615
I0
sg5564
g34
(g38
g39
(dp5616
g41
g31
sg43
g46
sg45
g46
sg47
I0
sg48
I0
sg49
g34
(g35
g36
(lp5617
tp5618
Rp5619
I1
bsg53
g56
sg55
g56
sg57
I2693546021
sg58
I0
sg59
I0
sg60
g46
sg62
g46
sg63
g56
sg64
g56
sg66
I0
sg68
I0
sg69
I1
sg70
g46
sg71
I0
sg72
I17
sg73
I0
sg74
I0
sg75
g46
sg76
g56
sg77
I0
sg78
g5569
sg80
g56
sg81
g5570
sg83
I1
sg84
I0
sg85
I0
stp5620
Rp5621
I1
bsVMemberList
p5622
g34
(g35
g36
(lp5623
tp5624
Rp5625
I1
bsVPYQuanPin
p5626
VGayyibaoba
p5627
sVRemarkPYInitial
p5628
g56
sVSex
p5629
I0
sVAppAccountFlag
p5630
I0
sVVerifyFlag
p5631
I0
sVProvince
p5632
g56
sVKeyWord
p5633
g56
sVRemarkName
p5634
g56
sVPYInitial
p5635
VGAYYBB
p5636
sVIsOwner
p5637
I0
sVChatRoomId
p5638
I0
sVHideInputBarFlag
p5639
I0
sVEncryChatRoomId
p5640
g56
sVAttrStatus
p5641
I0
sVSnsFlag
p5642
I0
sVMemberCount
p5643
I8
sVOwnerUin
p5644
I0
sVAlias
p5645
g56
sg5597
NsVSignature
p5646
g56
sVContactFlag
p5647
I3
sVNickName
p5648
VGay \u4e00\u70ae\u5427\u3002
p5649
sVRemarkPYQuanPin
p5650
g56
sVHeadImgUrl
p5651
V/cgi-bin/mmwebwx-bin/webwxgetheadimg?seq=662732648&username=@@5a002349a9c4867f5efb84aec977e5dd3f3fcb3584e3e5bcdf19dd403adae517&skey=@crypt_9c3dea4c_f5700a142e41b2a86f3977c50c30a560
p5652
sVUin
p5653
I0
sVStarFriend
p5654
I0
sVStatues
p5655
I0
stp5656
Rp5657
I1
bag34
(g5557
g39
(dp5658
VUserName
p5659
V@@8ee7ef9f21aec623d931c8a4e10779308f819b6df00fbe0c522055c313eec4c5
p5660
sVCity
p5661
g56
sVDisplayName
p5662
g56
sVUniFriend
p5663
I0
sg5564
g34
(g38
g39
(dp5664
g41
g31
sg43
g46
sg45
g46
sg47
I0
sg48
I0
sg49
g34
(g35
g36
(lp5665
tp5666
Rp5667
I1
bsg53
g56
sg55
g56
sg57
I2693546021
sg58
I0
sg59
I0
sg60
g46
sg62
g46
sg63
g56
sg64
g56
sg66
I0
sg68
I0
sg69
I1
sg70
g46
sg71
I0
sg72
I17
sg73
I0
sg74
I0
sg75
g46
sg76
g56
sg77
I0
sg78
g5569
sg80
g56
sg81
g5570
sg83
I1
sg84
I0
sg85
I0
stp5668
Rp5669
I1
bsVMemberList
p5670
g34
(g35
g36
(lp5671
tp5672
Rp5673
I1
bsVPYQuanPin
p5674
g56
sVRemarkPYInitial
p5675
g56
sVSex
p5676
I0
sVAppAccountFlag
p5677
I0
sVVerifyFlag
p5678
I0
sVProvince
p5679
g56
sVKeyWord
p5680
g56
sVRemarkName
p5681
g56
sVPYInitial
p5682
g56
sVIsOwner
p5683
I0
sVChatRoomId
p5684
I0
sVHideInputBarFlag
p5685
I0
sVEncryChatRoomId
p5686
g56
sVAttrStatus
p5687
I0
sVSnsFlag
p5688
I0
sVMemberCount
p5689
I18
sVOwnerUin
p5690
I0
sVAlias
p5691
g56
sg5597
NsVSignature
p5692
g56
sVContactFlag
p5693
I0
sVNickName
p5694
V\u8036\u7a23\u4e0e\u6211\u4eec\u540c\u5728
p5695
sVRemarkPYQuanPin
p5696
g56
sVHeadImgUrl
p5697
V/cgi-bin/mmwebwx-bin/webwxgetheadimg?seq=0&username=@@8ee7ef9f21aec623d931c8a4e10779308f819b6df00fbe0c522055c313eec4c5&skey=@crypt_9c3dea4c_f5700a142e41b2a86f3977c50c30a560
p5698
sVUin
p5699
I0
sVStarFriend
p5700
I0
sVStatues
p5701
I0
stp5702
Rp5703
I1
bag34
(g5557
g39
(dp5704
VUserName
p5705
V@@caf9d0f255ab8409c6396a125c5b847ce5d5954b9b22d7be230b4558c6fd4916
p5706
sVCity
p5707
g56
sVDisplayName
p5708
g56
sVUniFriend
p5709
I0
sg5564
g34
(g38
g39
(dp5710
g41
g31
sg43
g46
sg45
g46
sg47
I0
sg48
I0
sg49
g34
(g35
g36
(lp5711
tp5712
Rp5713
I1
bsg53
g56
sg55
g56
sg57
I2693546021
sg58
I0
sg59
I0
sg60
g46
sg62
g46
sg63
g56
sg64
g56
sg66
I0
sg68
I0
sg69
I1
sg70
g46
sg71
I0
sg72
I17
sg73
I0
sg74
I0
sg75
g46
sg76
g56
sg77
I0
sg78
g5569
sg80
g56
sg81
g5570
sg83
I1
sg84
I0
sg85
I0
stp5714
Rp5715
I1
bsVMemberList
p5716
g34
(g35
g36
(lp5717
tp5718
Rp5719
I1
bsVPYQuanPin
p5720
g56
sVRemarkPYInitial
p5721
g56
sVSex
p5722
I0
sVAppAccountFlag
p5723
I0
sVVerifyFlag
p5724
I0
sVProvince
p5725
g56
sVKeyWord
p5726
g56
sVRemarkName
p5727
g56
sVPYInitial
p5728
g56
sVIsOwner
p5729
I0
sVChatRoomId
p5730
I0
sVHideInputBarFlag
p5731
I0
sVEncryChatRoomId
p5732
g56
sVAttrStatus
p5733
I0
sVSnsFlag
p5734
I0
sVMemberCount
p5735
I72
sVOwnerUin
p5736
I0
sVAlias
p5737
g56
sg5597
NsVSignature
p5738
g56
sVContactFlag
p5739
I2
sVNickName
p5740
V\u77f3\u5bb6\u5e84\u8461\u8404\u56ed
p5741
sVRemarkPYQuanPin
p5742
g56
sVHeadImgUrl
p5743
V/cgi-bin/mmwebwx-bin/webwxgetheadimg?seq=662765172&username=@@caf9d0f255ab8409c6396a125c5b847ce5d5954b9b22d7be230b4558c6fd4916&skey=@crypt_9c3dea4c_f5700a142e41b2a86f3977c50c30a560
p5744
sVUin
p5745
I0
sVStarFriend
p5746
I0
sVStatues
p5747
I0
stp5748
Rp5749
I1
bag34
(g5557
g39
(dp5750
VUserName
p5751
V@@02a92b40de952d22c6ed0ce886321cb28cd6cfba8f5c768a13e60a61d11887cd
p5752
sVCity
p5753
g56
sVDisplayName
p5754
g56
sVUniFriend
p5755
I0
sg5564
g34
(g38
g39
(dp5756
g41
g31
sg43
g46
sg45
g46
sg47
I0
sg48
I0
sg49
g34
(g35
g36
(lp5757
tp5758
Rp5759
I1
bsg53
g56
sg55
g56
sg57
I2693546021
sg58
I0
sg59
I0
sg60
g46
sg62
g46
sg63
g56
sg64
g56
sg66
I0
sg68
I0
sg69
I1
sg70
g46
sg71
I0
sg72
I17
sg73
I0
sg74
I0
sg75
g46
sg76
g56
sg77
I0
sg78
g5569
sg80
g56
sg81
g5570
sg83
I1
sg84
I0
sg85
I0
stp5760
Rp5761
I1
bsVMemberList
p5762
g34
(g35
g36
(lp5763
tp5764
Rp5765
I1
bsVPYQuanPin
p5766
g56
sVRemarkPYInitial
p5767
g56
sVSex
p5768
I0
sVAppAccountFlag
p5769
I0
sVVerifyFlag
p5770
I0
sVProvince
p5771
g56
sVKeyWord
p5772
g56
sVRemarkName
p5773
g56
sVPYInitial
p5774
g56
sVIsOwner
p5775
I0
sVChatRoomId
p5776
I0
sVHideInputBarFlag
p5777
I0
sVEncryChatRoomId
p5778
g56
sVAttrStatus
p5779
I0
sVSnsFlag
p5780
I0
sVMemberCount
p5781
I15
sVOwnerUin
p5782
I0
sVAlias
p5783
g56
sg5597
NsVSignature
p5784
g56
sVContactFlag
p5785
I2
sVNickName
p5786
V\u8036\u7a23\u6211\u4eec\u8981\u8ddf\u968f\u4f60
p5787
sVRemarkPYQuanPin
p5788
g56
sVHeadImgUrl
p5789
V/cgi-bin/mmwebwx-bin/webwxgetheadimg?seq=662783378&username=@@02a92b40de952d22c6ed0ce886321cb28cd6cfba8f5c768a13e60a61d11887cd&skey=@crypt_9c3dea4c_f5700a142e41b2a86f3977c50c30a560
p5790
sVUin
p5791
I0
sVStarFriend
p5792
I0
sVStatues
p5793
I0
stp5794
Rp5795
I1
bag34
(g5557
g39
(dp5796
VUserName
p5797
V@@8e4fdedd0c828eb5a2f1db1fbc772a39242180adfa4ff345a419fd0950441459
p5798
sVCity
p5799
g56
sVDisplayName
p5800
g56
sVUniFriend
p5801
I0
sg5564
g34
(g38
g39
(dp5802
g41
g31
sg43
g46
sg45
g46
sg47
I0
sg48
I0
sg49
g34
(g35
g36
(lp5803
tp5804
Rp5805
I1
bsg53
g56
sg55
g56
sg57
I2693546021
sg58
I0
sg59
I0
sg60
g46
sg62
g46
sg63
g56
sg64
g56
sg66
I0
sg68
I0
sg69
I1
sg70
g46
sg71
I0
sg72
I17
sg73
I0
sg74
I0
sg75
g46
sg76
g56
sg77
I0
sg78
g5569
sg80
g56
sg81
g5570
sg83
I1
sg84
I0
sg85
I0
stp5806
Rp5807
I1
bsVMemberList
p5808
g34
(g35
g36
(lp5809
tp5810
Rp5811
I1
bsVPYQuanPin
p5812
Vjiaren
p5813
sVRemarkPYInitial
p5814
g56
sVSex
p5815
I0
sVAppAccountFlag
p5816
I0
sVVerifyFlag
p5817
I0
sVProvince
p5818
g56
sVKeyWord
p5819
g56
sVRemarkName
p5820
g56
sVPYInitial
p5821
VJR
p5822
sVIsOwner
p5823
I1
sVChatRoomId
p5824
I0
sVHideInputBarFlag
p5825
I0
sVEncryChatRoomId
p5826
g56
sVAttrStatus
p5827
I0
sVSnsFlag
p5828
I0
sVMemberCount
p5829
I0
sVOwnerUin
p5830
I0
sVAlias
p5831
g56
sg5597
NsVSignature
p5832
g56
sVContactFlag
p5833
I3
sVNickName
p5834
V\u5bb6\u4eba
p5835
sVRemarkPYQuanPin
p5836
g56
sVHeadImgUrl
p5837
V/cgi-bin/mmwebwx-bin/webwxgetheadimg?seq=662708735&username=@@8e4fdedd0c828eb5a2f1db1fbc772a39242180adfa4ff345a419fd0950441459&skey=@crypt_9c3dea4c_f5700a142e41b2a86f3977c50c30a560
p5838
sVUin
p5839
I0
sVStarFriend
p5840
I0
sVStatues
p5841
I1
stp5842
Rp5843
I1
bag34
(g5557
g39
(dp5844
VUserName
p5845
V@@e98c9633e6cf9cde21e79e752adf21dd889a6e2ea0aa679faed2b45949e61337
p5846
sVCity
p5847
g56
sVDisplayName
p5848
g56
sVUniFriend
p5849
I0
sg5564
g34
(g38
g39
(dp5850
g41
g31
sg43
g46
sg45
g46
sg47
I0
sg48
I0
sg49
g34
(g35
g36
(lp5851
tp5852
Rp5853
I1
bsg53
g56
sg55
g56
sg57
I2693546021
sg58
I0
sg59
I0
sg60
g46
sg62
g46
sg63
g56
sg64
g56
sg66
I0
sg68
I0
sg69
I1
sg70
g46
sg71
I0
sg72
I17
sg73
I0
sg74
I0
sg75
g46
sg76
g56
sg77
I0
sg78
g5569
sg80
g56
sg81
g5570
sg83
I1
sg84
I0
sg85
I0
stp5854
Rp5855
I1
bsVMemberList
p5856
g34
(g35
g36
(lp5857
tp5858
Rp5859
I1
bsVPYQuanPin
p5860
Vsandashixiaohuoban
p5861
sVRemarkPYInitial
p5862
g56
sVSex
p5863
I0
sVAppAccountFlag
p5864
I0
sVVerifyFlag
p5865
I0
sVProvince
p5866
g56
sVKeyWord
p5867
g56
sVRemarkName
p5868
g56
sVPYInitial
p5869
VSDSXHB
p5870
sVIsOwner
p5871
I0
sVChatRoomId
p5872
I0
sVHideInputBarFlag
p5873
I0
sVEncryChatRoomId
p5874
g56
sVAttrStatus
p5875
I0
sVSnsFlag
p5876
I0
sVMemberCount
p5877
I0
sVOwnerUin
p5878
I0
sVAlias
p5879
g56
sg5597
NsVSignature
p5880
g56
sVContactFlag
p5881
I3
sVNickName
p5882
V\u4e09\u5927\u53f2\u5c0f\u4f19\u4f34
p5883
sVRemarkPYQuanPin
p5884
g56
sVHeadImgUrl
p5885
V/cgi-bin/mmwebwx-bin/webwxgetheadimg?seq=662767870&username=@@e98c9633e6cf9cde21e79e752adf21dd889a6e2ea0aa679faed2b45949e61337&skey=@crypt_9c3dea4c_f5700a142e41b2a86f3977c50c30a560
p5886
sVUin
p5887
I0
sVStarFriend
p5888
I0
sVStatues
p5889
I0
stp5890
Rp5891
I1
bag34
(g5557
g39
(dp5892
VUserName
p5893
V@@a74f7ef7889bcd022f6e74b501f80bf1cff0d662c4629c8331fcbeb049752bf0
p5894
sVCity
p5895
g56
sVDisplayName
p5896
g56
sVUniFriend
p5897
I0
sg5564
g34
(g38
g39
(dp5898
g41
g31
sg43
g46
sg45
g46
sg47
I0
sg48
I0
sg49
g34
(g35
g36
(lp5899
tp5900
Rp5901
I1
bsg53
g56
sg55
g56
sg57
I2693546021
sg58
I0
sg59
I0
sg60
g46
sg62
g46
sg63
g56
sg64
g56
sg66
I0
sg68
I0
sg69
I1
sg70
g46
sg71
I0
sg72
I17
sg73
I0
sg74
I0
sg75
g46
sg76
g56
sg77
I0
sg78
g5569
sg80
g56
sg81
g5570
sg83
I1
sg84
I0
sg85
I0
stp5902
Rp5903
I1
bsVMemberList
p5904
g34
(g35
g36
(lp5905
tp5906
Rp5907
I1
bsVPYQuanPin
p5908
Vbeixiuyuan04ban
p5909
sVRemarkPYInitial
p5910
g56
sVSex
p5911
I0
sVAppAccountFlag
p5912
I0
sVVerifyFlag
p5913
I0
sVProvince
p5914
g56
sVKeyWord
p5915
g56
sVRemarkName
p5916
g56
sVPYInitial
p5917
VBXY04B
p5918
sVIsOwner
p5919
I0
sVChatRoomId
p5920
I0
sVHideInputBarFlag
p5921
I0
sVEncryChatRoomId
p5922
g56
sVAttrStatus
p5923
I0
sVSnsFlag
p5924
I0
sVMemberCount
p5925
I0
sVOwnerUin
p5926
I0
sVAlias
p5927
g56
sg5597
NsVSignature
p5928
g56
sVContactFlag
p5929
I3
sVNickName
p5930
V\u5907\u4fee\u966204\u73ed
p5931
sVRemarkPYQuanPin
p5932
g56
sVHeadImgUrl
p5933
V/cgi-bin/mmwebwx-bin/webwxgetheadimg?seq=647551296&username=@@a74f7ef7889bcd022f6e74b501f80bf1cff0d662c4629c8331fcbeb049752bf0&skey=@crypt_9c3dea4c_f5700a142e41b2a86f3977c50c30a560
p5934
sVUin
p5935
I0
sVStarFriend
p5936
I0
sVStatues
p5937
I0
stp5938
Rp5939
I1
bag34
(g5557
g39
(dp5940
VUserName
p5941
V@@867694c3d674e53d46dcc84dcd01ef34fb5bed1644250f1fd893639f30119ad5
p5942
sVCity
p5943
g56
sVDisplayName
p5944
g56
sVUniFriend
p5945
I0
sg5564
g34
(g38
g39
(dp5946
g41
g31
sg43
g46
sg45
g46
sg47
I0
sg48
I0
sg49
g34
(g35
g36
(lp5947
tp5948
Rp5949
I1
bsg53
g56
sg55
g56
sg57
I2693546021
sg58
I0
sg59
I0
sg60
g46
sg62
g46
sg63
g56
sg64
g56
sg66
I0
sg68
I0
sg69
I1
sg70
g46
sg71
I0
sg72
I17
sg73
I0
sg74
I0
sg75
g46
sg76
g56
sg77
I0
sg78
g5569
sg80
g56
sg81
g5570
sg83
I1
sg84
I0
sg85
I0
stp5950
Rp5951
I1
bsVMemberList
p5952
g34
(g35
g36
(lp5953
tp5954
Rp5955
I1
bsVPYQuanPin
p5956
Vzaishengziyuan
p5957
sVRemarkPYInitial
p5958
g56
sVSex
p5959
I0
sVAppAccountFlag
p5960
I0
sVVerifyFlag
p5961
I0
sVProvince
p5962
g56
sVKeyWord
p5963
g56
sVRemarkName
p5964
g56
sVPYInitial
p5965
VZSZY
p5966
sVIsOwner
p5967
I0
sVChatRoomId
p5968
I0
sVHideInputBarFlag
p5969
I0
sVEncryChatRoomId
p5970
g56
sVAttrStatus
p5971
I0
sVSnsFlag
p5972
I0
sVMemberCount
p5973
I0
sVOwnerUin
p5974
I0
sVAlias
p5975
g56
sg5597
NsVSignature
p5976
g56
sVContactFlag
p5977
I3
sVNickName
p5978
V\u518d\u751f\u8d44\u6e90
p5979
sVRemarkPYQuanPin
p5980
g56
sVHeadImgUrl
p5981
V/cgi-bin/mmwebwx-bin/webwxgetheadimg?seq=647558909&username=@@867694c3d674e53d46dcc84dcd01ef34fb5bed1644250f1fd893639f30119ad5&skey=@crypt_9c3dea4c_f5700a142e41b2a86f3977c50c30a560
p5982
sVUin
p5983
I0
sVStarFriend
p5984
I0
sVStatues
p5985
I0
stp5986
Rp5987
I1
bag34
(g5557
g39
(dp5988
VUserName
p5989
V@@47521375c5e2ab354035b6186c3e109bb2b24d1faeac1b49eda865303c70e443
p5990
sVCity
p5991
g56
sVDisplayName
p5992
g56
sVUniFriend
p5993
I0
sg5564
g34
(g38
g39
(dp5994
g41
g31
sg43
g46
sg45
g46
sg47
I0
sg48
I0
sg49
g34
(g35
g36
(lp5995
tp5996
Rp5997
I1
bsg53
g56
sg55
g56
sg57
I2693546021
sg58
I0
sg59
I0
sg60
g46
sg62
g46
sg63
g56
sg64
g56
sg66
I0
sg68
I0
sg69
I1
sg70
g46
sg71
I0
sg72
I17
sg73
I0
sg74
I0
sg75
g46
sg76
g56
sg77
I0
sg78
g5569
sg80
g56
sg81
g5570
sg83
I1
sg84
I0
sg85
I0
stp5998
Rp5999
I1
bsVMemberList
p6000
g34
(g35
g36
(lp6001
tp6002
Rp6003
I1
bsVPYQuanPin
p6004
Vxiangnimenledoubi
p6005
sVRemarkPYInitial
p6006
g56
sVSex
p6007
I0
sVAppAccountFlag
p6008
I0
sVVerifyFlag
p6009
I0
sVProvince
p6010
g56
sVKeyWord
p6011
g56
sVRemarkName
p6012
g56
sVPYInitial
p6013
VXNMLDB
p6014
sVIsOwner
p6015
I0
sVChatRoomId
p6016
I0
sVHideInputBarFlag
p6017
I0
sVEncryChatRoomId
p6018
g56
sVAttrStatus
p6019
I0
sVSnsFlag
p6020
I0
sVMemberCount
p6021
I0
sVOwnerUin
p6022
I0
sVAlias
p6023
g56
sg5597
NsVSignature
p6024
g56
sVContactFlag
p6025
I3
sVNickName
p6026
V\u60f3\u4f60\u4eec\u4e86\u9017\u6bd4
p6027
sVRemarkPYQuanPin
p6028
g56
sVHeadImgUrl
p6029
V/cgi-bin/mmwebwx-bin/webwxgetheadimg?seq=662784036&username=@@47521375c5e2ab354035b6186c3e109bb2b24d1faeac1b49eda865303c70e443&skey=@crypt_9c3dea4c_f5700a142e41b2a86f3977c50c30a560
p6030
sVUin
p6031
I0
sVStarFriend
p6032
I0
sVStatues
p6033
I0
stp6034
Rp6035
I1
batp6036
Rp6037
I1
bsS'nickName'
p6038
g5569
sS'mpList'
p6039
g34
(g35
g36
(lp6040
g34
(citchat.storage.templates
MassivePlatform
p6041
g39
(dp6042
VUserName
p6043
V@d74f6ac9dcf40e4117749682d3c33642
p6044
sVCity
p6045
V\u5e7f\u5dde
p6046
sVSnsFlag
p6047
I0
sVDisplayName
p6048
g56
sVUniFriend
p6049
I0
sVMemberCount
p6050
I0
sVOwnerUin
p6051
I0
sVMemberList
p6052
g52
sVAlias
p6053
g56
sVPYQuanPin
p6054
Vweixinyundong
p6055
sVSignature
p6056
V\u4e5f\u8bb8\u4f60\u65e9\u5df2\u4e60\u60ef\u4e00\u4e2a\u4eba\u8fd0\u52a8\u7684\u5b64\u72ec\uff0c\u5374\u4e5f\u5076\u5c14\u6e34\u671b\u5f97\u5230\u8d5e\u8d4f\u3002\u52a0\u5165\u5fae\u4fe1\u8fd0\u52a8\uff0c\u548c\u670b\u53cb\u4e00\u8d77\u70b9\u8d5e\u4e92\u52a8\u3001\u62a2\u5360\u5c01\u9762\uff0c\u5206\u4eab\u8fd0\u52a8\u7684\u5feb\u4e50\u3002
p6057
sVRemarkPYInitial
p6058
g56
sVContactFlag
p6059
I3
sVUin
p6060
I0
sVNickName
p6061
V\u5fae\u4fe1\u8fd0\u52a8
p6062
sVAppAccountFlag
p6063
I0
sVVerifyFlag
p6064
I24
sVRemarkPYQuanPin
p6065
g56
sVHeadImgUrl
p6066
V/cgi-bin/mmwebwx-bin/webwxgeticon?seq=647545046&username=@d74f6ac9dcf40e4117749682d3c33642&skey=@crypt_9c3dea4c_f5700a142e41b2a86f3977c50c30a560
p6067
sVKeyWord
p6068
Vgh_
p6069
sVProvince
p6070
V\u5e7f\u4e1c
p6071
sVPYInitial
p6072
VWXYD
p6073
sVRemarkName
p6074
g56
sVIsOwner
p6075
I0
sVSex
p6076
I0
sVStarFriend
p6077
I0
sVHideInputBarFlag
p6078
I0
sVChatRoomId
p6079
I0
sVEncryChatRoomId
p6080
g56
sVAttrStatus
p6081
I0
sVStatues
p6082
I0
stp6083
Rp6084
I1
bag34
(g6041
g39
(dp6085
VUserName
p6086
V@1a7a28a024796079a7bbfbe4006a6c19
p6087
sVCity
p6088
g56
sVSnsFlag
p6089
I0
sVDisplayName
p6090
g56
sVUniFriend
p6091
I0
sVMemberCount
p6092
I0
sVOwnerUin
p6093
I0
sVMemberList
p6094
g52
sVAlias
p6095
g56
sVPYQuanPin
p6096
Vweixinzhifu
p6097
sVSignature
p6098
V\u5e2e\u52a9\u89e3\u51b3\u5fae\u4fe1\u652f\u4ed8\u4e2d\u9047\u5230\u7684\u56f0\u96be\uff0c\u6536\u96c6\u5173\u4e8e\u5fae\u4fe1\u652f\u4ed8\u7684\u5efa\u8bae\u53cd\u9988\u3002
p6099
sVRemarkPYInitial
p6100
g56
sVContactFlag
p6101
I1
sVUin
p6102
I0
sVNickName
p6103
V\u5fae\u4fe1\u652f\u4ed8
p6104
sVAppAccountFlag
p6105
I0
sVVerifyFlag
p6106
I24
sVRemarkPYQuanPin
p6107
g56
sVHeadImgUrl
p6108
V/cgi-bin/mmwebwx-bin/webwxgeticon?seq=620580743&username=@1a7a28a024796079a7bbfbe4006a6c19&skey=@crypt_9c3dea4c_f5700a142e41b2a86f3977c50c30a560
p6109
sVKeyWord
p6110
Vgh_
p6111
sVProvince
p6112
V\u5e7f\u4e1c
p6113
sVPYInitial
p6114
VWXZF
p6115
sVRemarkName
p6116
g56
sVIsOwner
p6117
I0
sVSex
p6118
I0
sVStarFriend
p6119
I0
sVHideInputBarFlag
p6120
I0
sVChatRoomId
p6121
I0
sVEncryChatRoomId
p6122
g56
sVAttrStatus
p6123
I0
sVStatues
p6124
I0
stp6125
Rp6126
I1
bag34
(g6041
g39
(dp6127
VUserName
p6128
V@fb3b2483a289f94f094ff9dcd58d091a
p6129
sVCity
p6130
V\u6df1\u5733
p6131
sVSnsFlag
p6132
I0
sVDisplayName
p6133
g56
sVUniFriend
p6134
I0
sVMemberCount
p6135
I0
sVOwnerUin
p6136
I0
sVMemberList
p6137
g52
sVAlias
p6138
g56
sVPYQuanPin
p6139
Vweixinhongbao
p6140
sVSignature
p6141
V\u5fae\u4fe1\u7ea2\u5305\u5b98\u65b9\u5e73\u53f0\uff0c\u4e3a\u4f60\u63d0\u4f9b\u5feb\u6377\u5b89\u5168\u597d\u73a9\u7684\u53d1\u7ea2\u5305\u670d\u52a1
p6142
sVRemarkPYInitial
p6143
g56
sVContactFlag
p6144
I1
sVUin
p6145
I0
sVNickName
p6146
V\u5fae\u4fe1\u7ea2\u5305
p6147
sVAppAccountFlag
p6148
I0
sVVerifyFlag
p6149
I24
sVRemarkPYQuanPin
p6150
g56
sVHeadImgUrl
p6151
V/cgi-bin/mmwebwx-bin/webwxgeticon?seq=620802182&username=@fb3b2483a289f94f094ff9dcd58d091a&skey=@crypt_9c3dea4c_f5700a142e41b2a86f3977c50c30a560
p6152
sVKeyWord
p6153
Vgh_
p6154
sVProvince
p6155
V\u5e7f\u4e1c
p6156
sVPYInitial
p6157
VWXHB
p6158
sVRemarkName
p6159
g56
sVIsOwner
p6160
I0
sVSex
p6161
I0
sVStarFriend
p6162
I0
sVHideInputBarFlag
p6163
I0
sVChatRoomId
p6164
I0
sVEncryChatRoomId
p6165
g56
sVAttrStatus
p6166
I0
sVStatues
p6167
I0
stp6168
Rp6169
I1
bag34
(g6041
g39
(dp6170
VUserName
p6171
V@3464db477246e6429692dbd8627633ca
p6172
sVCity
p6173
V\u676d\u5dde
p6174
sVSnsFlag
p6175
I0
sVDisplayName
p6176
g56
sVUniFriend
p6177
I0
sVMemberCount
p6178
I0
sVOwnerUin
p6179
I0
sVMemberList
p6180
g52
sVAlias
p6181
g56
sVPYQuanPin
p6182
Vzhejiangyidong
p6183
sVSignature
p6184
V\u4e2d\u56fd\u79fb\u52a8\u6d59\u6c5f\u516c\u53f8\uff08\u7b80\u79f0\uff09\u5b98\u65b9\u516c\u4f17\u53f7\uff01\u4e3a\u60a8\u63d0\u4f9b\u6d59\u6c5f\u79fb\u52a8\u5404\u7c7b\u901a\u4fe1\u8d44\u8baf\u3001\u70ed\u95e8\u4e1a\u52a1\u4fc3\u9500\uff0c\u5168\u9762\u4f18\u60e0\u4fe1\u606f\u3001\u7ed9\u529b\u5fae\u6d3b\u52a8....\u8d34\u5fc3\u3001\u4fbf\u6377\u67e5\u8be2\u3001\u529e\u7406\u670d\u52a1\u8ba9\u60a8\u4e00\u624b\u638c\u63a7\uff01\u5c3d\u5728\u201c\u6d59\u6c5f\u79fb\u52a810086\u201d\uff01
p6185
sVRemarkPYInitial
p6186
g56
sVContactFlag
p6187
I1
sVUin
p6188
I0
sVNickName
p6189
V\u6d59\u6c5f\u79fb\u52a8
p6190
sVAppAccountFlag
p6191
I0
sVVerifyFlag
p6192
I24
sVRemarkPYQuanPin
p6193
g56
sVHeadImgUrl
p6194
V/cgi-bin/mmwebwx-bin/webwxgeticon?seq=627561672&username=@3464db477246e6429692dbd8627633ca&skey=@crypt_9c3dea4c_f5700a142e41b2a86f3977c50c30a560
p6195
sVKeyWord
p6196
Vgh_
p6197
sVProvince
p6198
V\u6d59\u6c5f
p6199
sVPYInitial
p6200
VZJYD
p6201
sVRemarkName
p6202
g56
sVIsOwner
p6203
I0
sVSex
p6204
I0
sVStarFriend
p6205
I0
sVHideInputBarFlag
p6206
I0
sVChatRoomId
p6207
I0
sVEncryChatRoomId
p6208
g56
sVAttrStatus
p6209
I0
sVStatues
p6210
I0
stp6211
Rp6212
I1
bag34
(g6041
g39
(dp6213
VUserName
p6214
V@bb90f9f78bbb6bf68096ad0f7e7b5b88
p6215
sVCity
p6216
V\u5e7f\u5dde
p6217
sVSnsFlag
p6218
I0
sVDisplayName
p6219
g56
sVUniFriend
p6220
I0
sVMemberCount
p6221
I0
sVOwnerUin
p6222
I0
sVMemberList
p6223
g52
sVAlias
p6224
g56
sVPYQuanPin
p6225
Vgongzhongpingtaianquanzhushou
p6226
sVSignature
p6227
V\u63d0\u4f9b\u5fae\u4fe1\u516c\u4f17\u53f7\u767b\u5f55\u548c\u7fa4\u53d1\u7b49\u5b89\u5168\u64cd\u4f5c\uff0c\u5728\u624b\u673a\u4e0a\u67e5\u6536\u6d88\u606f\u3001\u8bc4\u8bba\u3001\u8d5e\u8d4f\uff0c\u65b0\u5efa\u7fa4\u53d1\u548c\u67e5\u770b\u7fa4\u53d1\u5386\u53f2\u3002
p6228
sVRemarkPYInitial
p6229
g56
sVContactFlag
p6230
I3
sVUin
p6231
I0
sVNickName
p6232
V\u516c\u4f17\u5e73\u53f0\u5b89\u5168\u52a9\u624b
p6233
sVAppAccountFlag
p6234
I0
sVVerifyFlag
p6235
I24
sVRemarkPYQuanPin
p6236
g56
sVHeadImgUrl
p6237
V/cgi-bin/mmwebwx-bin/webwxgeticon?seq=628763548&username=@bb90f9f78bbb6bf68096ad0f7e7b5b88&skey=@crypt_9c3dea4c_f5700a142e41b2a86f3977c50c30a560
p6238
sVKeyWord
p6239
Vmph
p6240
sVProvince
p6241
V\u5e7f\u4e1c
p6242
sVPYInitial
p6243
VGZPTAQZS
p6244
sVRemarkName
p6245
g56
sVIsOwner
p6246
I0
sVSex
p6247
I0
sVStarFriend
p6248
I0
sVHideInputBarFlag
p6249
I0
sVChatRoomId
p6250
I0
sVEncryChatRoomId
p6251
g56
sVAttrStatus
p6252
I98459
sVStatues
p6253
I0
stp6254
Rp6255
I1
bag34
(g6041
g39
(dp6256
VUserName
p6257
V@486a8035f8523f0ffee92220ec74edf9
p6258
sVCity
p6259
V\u5f90\u6c47
p6260
sVSnsFlag
p6261
I0
sVDisplayName
p6262
g56
sVUniFriend
p6263
I0
sVMemberCount
p6264
I0
sVOwnerUin
p6265
I0
sVMemberList
p6266
g52
sVAlias
p6267
g56
sVPYQuanPin
p6268
Vkendeji
p6269
sVSignature
p6270
V\u968f\u65f6\u968f\u5730\u83b7\u53d6KFC\u4f18\u60e0\u5238\u3001\u6700\u65b0\u4ea7\u54c1\u548c\u6d3b\u52a8\u4fe1\u606f
p6271
sVRemarkPYInitial
p6272
g56
sVContactFlag
p6273
I3
sVUin
p6274
I0
sVNickName
p6275
V\u80af\u5fb7\u57fa
p6276
sVAppAccountFlag
p6277
I0
sVVerifyFlag
p6278
I24
sVRemarkPYQuanPin
p6279
g56
sVHeadImgUrl
p6280
V/cgi-bin/mmwebwx-bin/webwxgeticon?seq=647569609&username=@486a8035f8523f0ffee92220ec74edf9&skey=@crypt_9c3dea4c_f5700a142e41b2a86f3977c50c30a560
p6281
sVKeyWord
p6282
Vgh_
p6283
sVProvince
p6284
V\u4e0a\u6d77
p6285
sVPYInitial
p6286
VKDJ
p6287
sVRemarkName
p6288
g56
sVIsOwner
p6289
I0
sVSex
p6290
I0
sVStarFriend
p6291
I0
sVHideInputBarFlag
p6292
I0
sVChatRoomId
p6293
I0
sVEncryChatRoomId
p6294
g56
sVAttrStatus
p6295
I0
sVStatues
p6296
I0
stp6297
Rp6298
I1
bag34
(g6041
g39
(dp6299
VUserName
p6300
V@de520dcf419f48b171d0322fecded341
p6301
sVCity
p6302
V\u5408\u80a5
p6303
sVSnsFlag
p6304
I0
sVDisplayName
p6305
g56
sVUniFriend
p6306
I0
sVMemberCount
p6307
I0
sVOwnerUin
p6308
I0
sVMemberList
p6309
g52
sVAlias
p6310
g56
sVPYQuanPin
p6311
Vhuamikeji
p6312
sVSignature
p6313
V\u534e\u7c73\u79d1\u6280\u516c\u53f8\u5b98\u65b9\u516c\u4f17\u53f7\uff0c\u4e3a\u534e\u7c73\u79d1\u6280\u516c\u53f8\u76f8\u5173\u4ea7\u54c1\u63d0\u4f9b\u670d\u52a1\u3002
p6314
sVRemarkPYInitial
p6315
g56
sVContactFlag
p6316
I3
sVUin
p6317
I0
sVNickName
p6318
V\u534e\u7c73\u79d1\u6280
p6319
sVAppAccountFlag
p6320
I0
sVVerifyFlag
p6321
I24
sVRemarkPYQuanPin
p6322
g56
sVHeadImgUrl
p6323
V/cgi-bin/mmwebwx-bin/webwxgeticon?seq=647571495&username=@de520dcf419f48b171d0322fecded341&skey=@crypt_9c3dea4c_f5700a142e41b2a86f3977c50c30a560
p6324
sVKeyWord
p6325
Vgh_
p6326
sVProvince
p6327
V\u5b89\u5fbd
p6328
sVPYInitial
p6329
VHMKJ
p6330
sVRemarkName
p6331
g56
sVIsOwner
p6332
I0
sVSex
p6333
I0
sVStarFriend
p6334
I0
sVHideInputBarFlag
p6335
I0
sVChatRoomId
p6336
I0
sVEncryChatRoomId
p6337
g56
sVAttrStatus
p6338
I0
sVStatues
p6339
I0
stp6340
Rp6341
I1
bag34
(g6041
g39
(dp6342
VUserName
p6343
V@22019130a800cc6ec80d8607655ad4d2ad5f831f050fc6aa2825daa500fc848d
p6344
sVCity
p6345
V\u5e7f\u5dde
p6346
sVSnsFlag
p6347
I0
sVDisplayName
p6348
g56
sVUniFriend
p6349
I0
sVMemberCount
p6350
I0
sVOwnerUin
p6351
I0
sVMemberList
p6352
g52
sVAlias
p6353
g56
sVPYQuanPin
p6354
Vweixingongzhongpingtai
p6355
sVSignature
p6356
V\u5e2e\u52a9\u60a8\u4e86\u89e3\u516c\u4f17\u5e10\u53f7\uff0c\u66f4\u597d\u5730\u8fd0\u8425\u5fae\u4fe1\u516c\u4f17\u5e10\u53f7\u3002
p6357
sVRemarkPYInitial
p6358
g56
sVContactFlag
p6359
I3
sVUin
p6360
I0
sVNickName
p6361
V\u5fae\u4fe1\u516c\u4f17\u5e73\u53f0
p6362
sVAppAccountFlag
p6363
I0
sVVerifyFlag
p6364
I24
sVRemarkPYQuanPin
p6365
g56
sVHeadImgUrl
p6366
V/cgi-bin/mmwebwx-bin/webwxgeticon?seq=661610187&username=@22019130a800cc6ec80d8607655ad4d2ad5f831f050fc6aa2825daa500fc848d&skey=@crypt_9c3dea4c_f5700a142e41b2a86f3977c50c30a560
p6367
sVKeyWord
p6368
Vwei
p6369
sVProvince
p6370
V\u5e7f\u4e1c
p6371
sVPYInitial
p6372
VWXGZPT
p6373
sVRemarkName
p6374
g56
sVIsOwner
p6375
I0
sVSex
p6376
I0
sVStarFriend
p6377
I0
sVHideInputBarFlag
p6378
I0
sVChatRoomId
p6379
I0
sVEncryChatRoomId
p6380
g56
sVAttrStatus
p6381
I0
sVStatues
p6382
I0
stp6383
Rp6384
I1
bag34
(g6041
g39
(dp6385
VUserName
p6386
V@b4c36958b229a47185e8a3273ce3687d
p6387
sVCity
p6388
V\u5a01\u6d77
p6389
sVSnsFlag
p6390
I0
sVDisplayName
p6391
g56
sVUniFriend
p6392
I0
sVMemberCount
p6393
I0
sVOwnerUin
p6394
I0
sVMemberList
p6395
g52
sVAlias
p6396
g56
sVPYQuanPin
p6397
Vweihaixinxigang
p6398
sVSignature
p6399
V\u5a01\u6d77\u4fe1\u606f\u6e2f\u5b98\u65b9\u5fae\u4fe1\uff01\u6709\u8da3\u3001\u6709\u6599\u7684\u5a01\u6d77\u4eba\u513f\u3001\u5a01\u6d77\u4e8b\u513f\uff01
p6400
sVRemarkPYInitial
p6401
g56
sVContactFlag
p6402
I3
sVUin
p6403
I0
sVNickName
p6404
V\u5a01\u6d77\u4fe1\u606f\u6e2f
p6405
sVAppAccountFlag
p6406
I0
sVVerifyFlag
p6407
I24
sVRemarkPYQuanPin
p6408
g56
sVHeadImgUrl
p6409
V/cgi-bin/mmwebwx-bin/webwxgeticon?seq=662693113&username=@b4c36958b229a47185e8a3273ce3687d&skey=@crypt_9c3dea4c_f5700a142e41b2a86f3977c50c30a560
p6410
sVKeyWord
p6411
Vgh_
p6412
sVProvince
p6413
V\u5c71\u4e1c
p6414
sVPYInitial
p6415
VWHXXG
p6416
sVRemarkName
p6417
g56
sVIsOwner
p6418
I0
sVSex
p6419
I0
sVStarFriend
p6420
I0
sVHideInputBarFlag
p6421
I0
sVChatRoomId
p6422
I0
sVEncryChatRoomId
p6423
g56
sVAttrStatus
p6424
I0
sVStatues
p6425
I0
stp6426
Rp6427
I1
bag34
(g6041
g39
(dp6428
VUserName
p6429
V@a062ddf5654438f43711f5e65495c264
p6430
sVCity
p6431
V\u897f\u57ce
p6432
sVSnsFlag
p6433
I0
sVDisplayName
p6434
g56
sVUniFriend
p6435
I0
sVMemberCount
p6436
I0
sVOwnerUin
p6437
I0
sVMemberList
p6438
g52
sVAlias
p6439
g56
sVPYQuanPin
p6440
Vmifenkazhushou
p6441
sVSignature
p6442
V\u7c73\u7c89\u5361\u7528\u6237\u7684\u4e13\u5c5e\u670d\u52a1\u52a9\u624b\uff0c\u53f7\u5361\u6fc0\u6d3b\u3001\u6d41\u91cf\u8d60\u9001\uff0c\u66f4\u591a\u4f18\u60e0\u60ca\u559c\u5c3d\u5728\u201c\u7c73\u7c89\u5361\u52a9\u624b\u201d\uff01
p6443
sVRemarkPYInitial
p6444
g56
sVContactFlag
p6445
I3
sVUin
p6446
I0
sVNickName
p6447
V\u7c73\u7c89\u5361\u52a9\u624b
p6448
sVAppAccountFlag
p6449
I0
sVVerifyFlag
p6450
I24
sVRemarkPYQuanPin
p6451
g56
sVHeadImgUrl
p6452
V/cgi-bin/mmwebwx-bin/webwxgeticon?seq=662708809&username=@a062ddf5654438f43711f5e65495c264&skey=@crypt_9c3dea4c_f5700a142e41b2a86f3977c50c30a560
p6453
sVKeyWord
p6454
Vgh_
p6455
sVProvince
p6456
V\u5317\u4eac
p6457
sVPYInitial
p6458
VMFKZS
p6459
sVRemarkName
p6460
g56
sVIsOwner
p6461
I0
sVSex
p6462
I0
sVStarFriend
p6463
I0
sVHideInputBarFlag
p6464
I0
sVChatRoomId
p6465
I0
sVEncryChatRoomId
p6466
g56
sVAttrStatus
p6467
I0
sVStatues
p6468
I0
stp6469
Rp6470
I1
bag34
(g6041
g39
(dp6471
VUserName
p6472
V@0fb9f3b95241ef142b791d1b7fc8e08a
p6473
sVCity
p6474
V\u6df1\u5733
p6475
sVSnsFlag
p6476
I0
sVDisplayName
p6477
g56
sVUniFriend
p6478
I0
sVMemberCount
p6479
I0
sVOwnerUin
p6480
I0
sVMemberList
p6481
g52
sVAlias
p6482
g56
sVPYQuanPin
p6483
Vyankan
p6484
sVSignature
p6485
V\u6709\u6001\u5ea6\uff0c\u4e00\u4e2a\u5e74\u8f7b\u4eba\u7684\u805a\u96c6\u5730\u3002
p6486
sVRemarkPYInitial
p6487
g56
sVContactFlag
p6488
I3
sVUin
p6489
I0
sVNickName
p6490
V\u8a00\u520a
p6491
sVAppAccountFlag
p6492
I0
sVVerifyFlag
p6493
I24
sVRemarkPYQuanPin
p6494
g56
sVHeadImgUrl
p6495
V/cgi-bin/mmwebwx-bin/webwxgeticon?seq=662762618&username=@0fb9f3b95241ef142b791d1b7fc8e08a&skey=@crypt_9c3dea4c_f5700a142e41b2a86f3977c50c30a560
p6496
sVKeyWord
p6497
Vgh_
p6498
sVProvince
p6499
V\u5e7f\u4e1c
p6500
sVPYInitial
p6501
VYK
p6502
sVRemarkName
p6503
g56
sVIsOwner
p6504
I0
sVSex
p6505
I0
sVStarFriend
p6506
I0
sVHideInputBarFlag
p6507
I0
sVChatRoomId
p6508
I0
sVEncryChatRoomId
p6509
g56
sVAttrStatus
p6510
I0
sVStatues
p6511
I0
stp6512
Rp6513
I1
bag34
(g6041
g39
(dp6514
VUserName
p6515
V@b76aa9b9f4d754d84a807168985f8807
p6516
sVCity
p6517
V\u6e1d\u4e2d
p6518
sVSnsFlag
p6519
I0
sVDisplayName
p6520
g56
sVUniFriend
p6521
I0
sVMemberCount
p6522
I0
sVOwnerUin
p6523
I0
sVMemberList
p6524
g52
sVAlias
p6525
g56
sVPYQuanPin
p6526
Vsuwei
p6527
sVSignature
p6528
V\u8d85\u7ea7\u201c\u4e91\u98df\u5802\u201d\uff0c\u624b\u673a\u70b9\u9910\u5e76\u652f\u4ed8\uff0c\u9910\u5385\u5907\u9910\u653e\u5165\u9910\u683c\uff0c\u987e\u5ba2\u5230\u8fbe\u9910\u5385\u624b\u673a\u9065\u63a7\u5f00\u683c\u53d6\u9910\uff0c\u65e0\u9700\u6392\u961f\u7b49\u9910\uff0c\u4e09\u79d2\u5403\u5230\u6700\u65b0\u9c9c\u7684\u9910\u54c1\u3002\u6574\u5957\u7cfb\u7edf\u514d\u8d39\u4e13\u4f9b\u5feb\u9910\u5385\uff0c\u8be24008775571.\u6548\u7387\u518d\u63d0\u5347\u3002
p6529
sVRemarkPYInitial
p6530
g56
sVContactFlag
p6531
I3
sVUin
p6532
I0
sVNickName
p6533
V\u901f\u4f4d
p6534
sVAppAccountFlag
p6535
I0
sVVerifyFlag
p6536
I24
sVRemarkPYQuanPin
p6537
g56
sVHeadImgUrl
p6538
V/cgi-bin/mmwebwx-bin/webwxgeticon?seq=662764773&username=@b76aa9b9f4d754d84a807168985f8807&skey=@crypt_9c3dea4c_f5700a142e41b2a86f3977c50c30a560
p6539
sVKeyWord
p6540
Vgh_
p6541
sVProvince
p6542
V\u91cd\u5e86
p6543
sVPYInitial
p6544
VSW
p6545
sVRemarkName
p6546
g56
sVIsOwner
p6547
I0
sVSex
p6548
I0
sVStarFriend
p6549
I0
sVHideInputBarFlag
p6550
I0
sVChatRoomId
p6551
I0
sVEncryChatRoomId
p6552
g56
sVAttrStatus
p6553
I0
sVStatues
p6554
I0
stp6555
Rp6556
I1
bag34
(g6041
g39
(dp6557
VUserName
p6558
V@d8a5b48d42d32460a4591593c7f8dbf0
p6559
sVCity
p6560
V\u5f90\u6c47
p6561
sVSnsFlag
p6562
I0
sVDisplayName
p6563
g56
sVUniFriend
p6564
I0
sVMemberCount
p6565
I0
sVOwnerUin
p6566
I0
sVMemberList
p6567
g52
sVAlias
p6568
g56
sVPYQuanPin
p6569
Vyijiajuyuebu
p6570
sVSignature
p6571
V\u5b9c\u5bb6\u4f1a\u5458\u4ff1\u4e50\u90e8\u4fe1\u606f
p6572
sVRemarkPYInitial
p6573
g56
sVContactFlag
p6574
I3
sVUin
p6575
I0
sVNickName
p6576
V\u5b9c\u5bb6\u4ff1\u4e50\u90e8
p6577
sVAppAccountFlag
p6578
I0
sVVerifyFlag
p6579
I24
sVRemarkPYQuanPin
p6580
g56
sVHeadImgUrl
p6581
V/cgi-bin/mmwebwx-bin/webwxgeticon?seq=662774012&username=@d8a5b48d42d32460a4591593c7f8dbf0&skey=@crypt_9c3dea4c_f5700a142e41b2a86f3977c50c30a560
p6582
sVKeyWord
p6583
Vgh_
p6584
sVProvince
p6585
V\u4e0a\u6d77
p6586
sVPYInitial
p6587
VYJJYB
p6588
sVRemarkName
p6589
g56
sVIsOwner
p6590
I0
sVSex
p6591
I0
sVStarFriend
p6592
I0
sVHideInputBarFlag
p6593
I0
sVChatRoomId
p6594
I0
sVEncryChatRoomId
p6595
g56
sVAttrStatus
p6596
I0
sVStatues
p6597
I0
stp6598
Rp6599
I1
bag34
(g6041
g39
(dp6600
VUserName
p6601
V@21cd251d81948e5c43dd9212b62309bd
p6602
sVCity
p6603
V\u79e6\u7687\u5c9b
p6604
sVSnsFlag
p6605
I0
sVDisplayName
p6606
g56
sVUniFriend
p6607
I0
sVMemberCount
p6608
I0
sVOwnerUin
p6609
I0
sVMemberList
p6610
g52
sVAlias
p6611
g56
sVPYQuanPin
p6612
Vxiaozhoubaogao
p6613
sVSignature
p6614
V\u8fd9\u662f\u4e00\u4e2a\u7a0b\u5e8f\u5458\u7684\u4e16\u754c
p6615
sVRemarkPYInitial
p6616
g56
sVContactFlag
p6617
I3
sVUin
p6618
I0
sVNickName
p6619
V\u6653\u821f\u62a5\u544a
p6620
sVAppAccountFlag
p6621
I0
sVVerifyFlag
p6622
I8
sVRemarkPYQuanPin
p6623
g56
sVHeadImgUrl
p6624
V/cgi-bin/mmwebwx-bin/webwxgeticon?seq=662784767&username=@21cd251d81948e5c43dd9212b62309bd&skey=@crypt_9c3dea4c_f5700a142e41b2a86f3977c50c30a560
p6625
sVKeyWord
p6626
Vgh_
p6627
sVProvince
p6628
V\u6cb3\u5317
p6629
sVPYInitial
p6630
VXZBG
p6631
sVRemarkName
p6632
g56
sVIsOwner
p6633
I0
sVSex
p6634
I0
sVStarFriend
p6635
I0
sVHideInputBarFlag
p6636
I0
sVChatRoomId
p6637
I0
sVEncryChatRoomId
p6638
g56
sVAttrStatus
p6639
I0
sVStatues
p6640
I0
stp6641
Rp6642
I1
bag34
(g6041
g39
(dp6643
VUserName
p6644
V@81d7b5ac36c436c44c416bbc39db080d
p6645
sVCity
p6646
V\u5e7f\u5dde
p6647
sVSnsFlag
p6648
I0
sVDisplayName
p6649
g56
sVUniFriend
p6650
I0
sVMemberCount
p6651
I0
sVOwnerUin
p6652
I0
sVMemberList
p6653
g52
sVAlias
p6654
g56
sVPYQuanPin
p6655
Vhulitan
p6656
sVSignature
p6657
V\u4e00\u4e2a\u4ea7\u54c1\u4eba\u7684\u5b66\u4e60\u3001\u6210\u957f\u548c\u81ea\u6211\u6574\u7406\uff0c\u6709\u5e72\u8d27\u4e5f\u6709\u89c2\u70b9\u3002
p6658
sVRemarkPYInitial
p6659
g56
sVContactFlag
p6660
I3
sVUin
p6661
I0
sVNickName
p6662
V\u72d0\u72f8\u8c08
p6663
sVAppAccountFlag
p6664
I0
sVVerifyFlag
p6665
I8
sVRemarkPYQuanPin
p6666
g56
sVHeadImgUrl
p6667
V/cgi-bin/mmwebwx-bin/webwxgeticon?seq=662798158&username=@81d7b5ac36c436c44c416bbc39db080d&skey=@crypt_9c3dea4c_f5700a142e41b2a86f3977c50c30a560
p6668
sVKeyWord
p6669
Vgh_
p6670
sVProvince
p6671
V\u5e7f\u4e1c
p6672
sVPYInitial
p6673
VHLT
p6674
sVRemarkName
p6675
g56
sVIsOwner
p6676
I0
sVSex
p6677
I0
sVStarFriend
p6678
I0
sVHideInputBarFlag
p6679
I0
sVChatRoomId
p6680
I0
sVEncryChatRoomId
p6681
g56
sVAttrStatus
p6682
I1
sVStatues
p6683
I0
stp6684
Rp6685
I1
batp6686
Rp6687
I1
bssS'loginInfo'
p6688
(dp6689
S'SyncKey'
p6690
(dp6691
VCount
p6692
I4
sVList
p6693
(lp6694
(dp6695
VVal
p6696
I662799818
sVKey
p6697
I1
sa(dp6698
VVal
p6699
I662799863
sVKey
p6700
I2
sa(dp6701
VVal
p6702
I662799854
sVKey
p6703
I3
sa(dp6704
VVal
p6705
I1511485922
sVKey
p6706
I1000
sassS'syncUrl'
p6707
S'https://webpush.wx.qq.com/cgi-bin/mmwebwx-bin'
p6708
sS'skey'
p6709
V@crypt_9c3dea4c_f5700a142e41b2a86f3977c50c30a560
p6710
sS'wxuin'
p6711
V2693546021
p6712
sS'synckey'
p6713
S'1_662799818|2_662799863|3_662799854|1000_1511485922'
p6714
sS'url'
p6715
Vhttps://wx.qq.com/cgi-bin/mmwebwx-bin
p6716
sS'pass_ticket'
p6717
VgbwKg5dXwcIHyZXUrqDQ9PlSTY4qekL%2Bu56X0G84AmFtufo5l26TT81F6Vp0FtN1
p6718
sS'wxsid'
p6719
Vhvvqz0qEfoHO0F2J
p6720
sS'BaseRequest'
p6721
(dp6722
g57
g6712
sS'Skey'
p6723
g6710
sS'DeviceID'
p6724
g6718
sS'Sid'
p6725
g6720
ssS'deviceid'
p6726
S'e561791613517302'
p6727
sS'fileUrl'
p6728
S'https://file.wx.qq.com/cgi-bin/mmwebwx-bin'
p6729
sS'InviteStartCount'
p6730
I40
sS'User'
p6731
g34
(g38
g39
(dp6732
g41
g31
sg43
g46
sg45
g46
sg47
I0
sg49
g52
sg53
g56
sg55
g56
sg83
I1
sg58
I0
sg59
I0
sg60
g46
sg62
g46
sg63
g56
sg64
g56
sg66
I0
sg68
I0
sg69
I1
sg70
g46
sg71
I0
sg74
I0
sg72
I17
sg73
I0
sg48
I0
sg75
g46
sg76
g56
sg77
I0
sg78
g5569
sg80
g56
sg81
g5570
sg57
I2693546021
sg84
I0
sg85
I0
stp6733
Rp6734
I1
bss.