(dp0
S'cookies'
p1
(dp2
S'wxloadtime'
p3
S'1511330722'
p4
sS'webwx_data_ticket'
p5
S'gSc2oRNj8qxTU6Uog5EZc7L6'
p6
sS'wxuin'
p7
S'2693546021'
p8
sS'login_frequency'
p9
S'2'
p10
sS'MM_WX_NOTIFY_STATE'
p11
S'1'
p12
sS'MM_WX_SOUND_STATE'
p13
g12
sS'webwx_auth_ticket'
p14
S'CIsBELb97d0KGoAB/q5phmHPXnm/pHTvfegpCwTFhWxHUz4m195O0BCQYwkBB/h72JmoXHJiOHWd0vuW5TDrjZDvERd5hlIIAF4VlPHivJb7IWHQMhwJg4Z497ji+GaqMW0/KkryZgZgo1E37z7sfPRPrhyCWhp5eA2VpJpRuNUCEOZJjNL8BJWUWm4='
p15
sS'last_wxuin'
p16
S'2693546021'
p17
sS'webwxuvid'
p18
S'a29028be717eaf2649178db4e0fd08cdc103f739d63e1eedafaf9b8408e1df49ced50a11f1ede9f1fb7826ed8a598de2'
p19
sS'wxpluginkey'
p20
S'1511328675'
p21
sS'wxsid'
p22
S'/XRLlFbJWeMvRMDe'
p23
sS'mm_lang'
p24
S'zh_CN'
p25
ssS'version'
p26
S'1.3.10'
p27
sS'storage'
p28
(dp29
S'userName'
p30
V@813e7fe5ee6828290b91124be1b65e5a355d5633a5aefb5c73254715116bbc3a
p31
sS'lastInputUserName'
p32
NsS'memberList'
p33
ccopy_reg
_reconstructor
p34
(citchat.storage.templates
ContactList
p35
c__builtin__
list
p36
(lp37
g34
(citchat.storage.templates
User
p38
c__builtin__
dict
p39
(dp40
S'UserName'
p41
V@813e7fe5ee6828290b91124be1b65e5a355d5633a5aefb5c73254715116bbc3a
p42
sS'City'
p43
V\u671d\u9633
p44
sS'DisplayName'
p45
S''
p46
sS'UniFriend'
p47
I0
sS'OwnerUin'
p48
I0
sS'MemberList'
p49
g34
(g35
g36
(lp50
tp51
Rp52
I1
bsS'PYQuanPin'
p53
Vkiwi
p54
sS'RemarkPYInitial'
p55
V
p56
sS'Uin'
p57
I2693546021
sS'AppAccountFlag'
p58
I0
sS'VerifyFlag'
p59
I0
sS'Province'
p60
V\u5317\u4eac
p61
sS'KeyWord'
p62
g46
sS'RemarkName'
p63
g56
sS'PYInitial'
p64
VKIWI
p65
sS'ChatRoomId'
p66
I0
sVIsOwner
p67
I0
sS'HideInputBarFlag'
p68
I0
sVHeadImgFlag
p69
I1
sS'EncryChatRoomId'
p70
g46
sS'AttrStatus'
p71
I98405
sS'SnsFlag'
p72
I17
sS'MemberCount'
p73
I0
sVWebWxPluginSwitch
p74
I0
sS'Alias'
p75
g46
sS'Signature'
p76
g56
sS'ContactFlag'
p77
I1
sS'NickName'
p78
Vkiwi
p79
sS'RemarkPYQuanPin'
p80
g56
sS'HeadImgUrl'
p81
V/cgi-bin/mmwebwx-bin/webwxgeticon?seq=500029&username=@813e7fe5ee6828290b91124be1b65e5a355d5633a5aefb5c73254715116bbc3a&skey=@crypt_9c3dea4c_60ecfb2e75ead15f0cee966311a887cd
p82
sS'Sex'
p83
I1
sS'StarFriend'
p84
I0
sS'Statues'
p85
I0
stp86
Rp87
I1
bag34
(g38
g39
(dp88
VUserName
p89
V@68c09ba2c0b2553c55f5900040b618715848e09ea5de9235ee77f13b5d8a2611
p90
sVCity
p91
g56
sVSnsFlag
p92
I17
sVDisplayName
p93
g56
sVUniFriend
p94
I0
sVMemberCount
p95
I0
sVOwnerUin
p96
I0
sVMemberList
p97
g52
sVAlias
p98
g56
sVPYQuanPin
p99
VBenYo
p100
sVSignature
p101
V\u96c6\u96e8\u6210\u955c \u5012\u6620\u6210\u62f1
p102
sVRemarkPYInitial
p103
VLYLH
p104
sVContactFlag
p105
I3
sVUin
p106
I0
sVNickName
p107
VBenYo
p108
sVAppAccountFlag
p109
I0
sVVerifyFlag
p110
I0
sVRemarkPYQuanPin
p111
Vlinyilihao
p112
sVHeadImgUrl
p113
V/cgi-bin/mmwebwx-bin/webwxgeticon?seq=662765466&username=@68c09ba2c0b2553c55f5900040b618715848e09ea5de9235ee77f13b5d8a2611&skey=@crypt_9c3dea4c_60ecfb2e75ead15f0cee966311a887cd
p114
sVKeyWord
p115
g56
sVProvince
p116
g56
sVPYInitial
p117
VBENYO
p118
sVRemarkName
p119
V\u4e34\u6c82-\u674e\u8c6a
p120
sVIsOwner
p121
I0
sVSex
p122
I0
sVStarFriend
p123
I0
sVHideInputBarFlag
p124
I0
sVChatRoomId
p125
I0
sVEncryChatRoomId
p126
g56
sVAttrStatus
p127
I247717
sVStatues
p128
I0
stp129
Rp130
I1
bag34
(g38
g39
(dp131
VUserName
p132
V@a58c07cd9dde210d2e22c8f7784b941da9e1d081398d9f3133fbc877b1fee6a5
p133
sVCity
p134
V\u6dee\u5357
p135
sVSnsFlag
p136
I17
sVDisplayName
p137
g56
sVUniFriend
p138
I0
sVMemberCount
p139
I0
sVOwnerUin
p140
I0
sVMemberList
p141
g52
sVAlias
p142
g56
sVPYQuanPin
p143
Vchengjian
p144
sVSignature
p145
g56
sVRemarkPYInitial
p146
VALCJ
p147
sVContactFlag
p148
I3
sVUin
p149
I0
sVNickName
p150
V\u7a0b\u9a9e
p151
sVAppAccountFlag
p152
I0
sVVerifyFlag
p153
I0
sVRemarkPYQuanPin
p154
Vanlichengjian
p155
sVHeadImgUrl
p156
V/cgi-bin/mmwebwx-bin/webwxgeticon?seq=662756288&username=@a58c07cd9dde210d2e22c8f7784b941da9e1d081398d9f3133fbc877b1fee6a5&skey=@crypt_9c3dea4c_60ecfb2e75ead15f0cee966311a887cd
p157
sVKeyWord
p158
g56
sVProvince
p159
V\u5b89\u5fbd
p160
sVPYInitial
p161
VCJ
p162
sVRemarkName
p163
V\u5b89\u7406-\u7a0b\u9a9e
p164
sVIsOwner
p165
I0
sVSex
p166
I2
sVStarFriend
p167
I0
sVHideInputBarFlag
p168
I0
sVChatRoomId
p169
I0
sVEncryChatRoomId
p170
g56
sVAttrStatus
p171
I102437
sVStatues
p172
I0
stp173
Rp174
I1
bag34
(g38
g39
(dp175
VUserName
p176
V@838cb06b54ff584ff56122d7dfd5345184add7e16fee9f552dbc05882615008d
p177
sVCity
p178
g56
sVSnsFlag
p179
I1
sVDisplayName
p180
g56
sVUniFriend
p181
I0
sVMemberCount
p182
I0
sVOwnerUin
p183
I0
sVMemberList
p184
g52
sVAlias
p185
g56
sVPYQuanPin
p186
Vwangbaishitian
p187
sVSignature
p188
V\u5f97\u5230\u597d\u4e1c\u897f\u7684\u529e\u6cd5\uff0c\u5c31\u662f\u8ba9\u81ea\u5df1\u914d\u7684\u4e0a\u5b83\u3002
p189
sVRemarkPYInitial
p190
VXYTZB
p191
sVContactFlag
p192
I3
sVUin
p193
I0
sVNickName
p194
V\u738b\u767d\u77f3\u7530
p195
sVAppAccountFlag
p196
I0
sVVerifyFlag
p197
I0
sVRemarkPYQuanPin
p198
Vxiuyuantianzengbi
p199
sVHeadImgUrl
p200
V/cgi-bin/mmwebwx-bin/webwxgeticon?seq=662781118&username=@838cb06b54ff584ff56122d7dfd5345184add7e16fee9f552dbc05882615008d&skey=@crypt_9c3dea4c_60ecfb2e75ead15f0cee966311a887cd
p201
sVKeyWord
p202
g56
sVProvince
p203
V\u5317\u4eac
p204
sVPYInitial
p205
VWBST
p206
sVRemarkName
p207
V\u4fee\u9662-\u7530\u589e\u74a7
p208
sVIsOwner
p209
I0
sVSex
p210
I1
sVStarFriend
p211
I0
sVHideInputBarFlag
p212
I0
sVChatRoomId
p213
I0
sVEncryChatRoomId
p214
g56
sVAttrStatus
p215
I102501
sVStatues
p216
I0
stp217
Rp218
I1
bag34
(g38
g39
(dp219
VUserName
p220
V@b932e7b560858a8ae0a78fd1e2dd7d6146cf2bd0d1309bfe09746c9cb5047ad1
p221
sVCity
p222
V\u8861\u6c34
p223
sVSnsFlag
p224
I1
sVDisplayName
p225
g56
sVUniFriend
p226
I0
sVMemberCount
p227
I0
sVOwnerUin
p228
I0
sVMemberList
p229
g52
sVAlias
p230
g56
sVPYQuanPin
p231
Vweixiaospanclassemojiemoji1f60aspan
p232
sVSignature
p233
V\u8033\u4e0d\u95fb\u4eba\u4e4b\u975e\uff0c\u76ee\u4e0d\u89c6\u4eba\u4e4b\u77ed\uff0c\u53e3\u4e0d\u8a00\u4eba\u4e4b\u8fc7\u3002 \u200b\u200b\u200b
p234
sVRemarkPYInitial
p235
VKFJ
p236
sVContactFlag
p237
I3
sVUin
p238
I0
sVNickName
p239
V\u5fae\u7b11\U0001f60a
p240
sVAppAccountFlag
p241
I0
sVVerifyFlag
p242
I0
sVRemarkPYQuanPin
p243
Vkoufengjie
p244
sVHeadImgUrl
p245
V/cgi-bin/mmwebwx-bin/webwxgeticon?seq=662797851&username=@b932e7b560858a8ae0a78fd1e2dd7d6146cf2bd0d1309bfe09746c9cb5047ad1&skey=@crypt_9c3dea4c_60ecfb2e75ead15f0cee966311a887cd
p246
sVKeyWord
p247
g56
sVProvince
p248
V\u6cb3\u5317
p249
sVPYInitial
p250
VWXSPANCLASSEMOJIEMOJI1F60ASPAN
p251
sVRemarkName
p252
V\u5bc7\u51e4\u6770
p253
sVIsOwner
p254
I0
sVSex
p255
I2
sVStarFriend
p256
I0
sVHideInputBarFlag
p257
I0
sVChatRoomId
p258
I0
sVEncryChatRoomId
p259
g56
sVAttrStatus
p260
I135293
sVStatues
p261
I0
stp262
Rp263
I1
bag34
(g38
g39
(dp264
VUserName
p265
V@fc3fdfe7a44972c7629a5a7c54656131b57e15f8b547f72ddc6fc678f53a3909
p266
sVCity
p267
V\u6e29\u5dde
p268
sVSnsFlag
p269
I17
sVDisplayName
p270
g56
sVUniFriend
p271
I0
sVMemberCount
p272
I0
sVOwnerUin
p273
I0
sVMemberList
p274
g52
sVAlias
p275
g56
sVPYQuanPin
p276
Vjiaxiaolan
p277
sVSignature
p278
V\u9002\u5408\u662f\u6700\u597d\u7684
p279
sVRemarkPYInitial
p280
VMTJXLCW
p281
sVContactFlag
p282
I3
sVUin
p283
I0
sVNickName
p284
V\u8d3e\u5c0f\u5170
p285
sVAppAccountFlag
p286
I0
sVVerifyFlag
p287
I0
sVRemarkPYQuanPin
p288
Vmaitianjiaxiaolancaiwu
p289
sVHeadImgUrl
p290
V/cgi-bin/mmwebwx-bin/webwxgeticon?seq=640120208&username=@fc3fdfe7a44972c7629a5a7c54656131b57e15f8b547f72ddc6fc678f53a3909&skey=@crypt_9c3dea4c_60ecfb2e75ead15f0cee966311a887cd
p291
sVKeyWord
p292
g56
sVProvince
p293
V\u6d59\u6c5f
p294
sVPYInitial
p295
VJXL
p296
sVRemarkName
p297
V\u9ea6\u7530-\u8d3e\u5c0f\u5170--\u8d22\u52a1
p298
sVIsOwner
p299
I0
sVSex
p300
I2
sVStarFriend
p301
I0
sVHideInputBarFlag
p302
I0
sVChatRoomId
p303
I0
sVEncryChatRoomId
p304
g56
sVAttrStatus
p305
I104517
sVStatues
p306
I0
stp307
Rp308
I1
bag34
(g38
g39
(dp309
VUserName
p310
V@733b81f2a78ff181fd4c76e8c6d1c7fd
p311
sVCity
p312
V\u6dee\u5357
p313
sVSnsFlag
p314
I16
sVDisplayName
p315
g56
sVUniFriend
p316
I0
sVMemberCount
p317
I0
sVOwnerUin
p318
I0
sVMemberList
p319
g52
sVAlias
p320
g56
sVPYQuanPin
p321
VQuiet
p322
sVSignature
p323
g56
sVRemarkPYInitial
p324
VALLK
p325
sVContactFlag
p326
I3
sVUin
p327
I0
sVNickName
p328
VQuiet
p329
sVAppAccountFlag
p330
I0
sVVerifyFlag
p331
I0
sVRemarkPYQuanPin
p332
Vanliliukang
p333
sVHeadImgUrl
p334
V/cgi-bin/mmwebwx-bin/webwxgeticon?seq=620970157&username=@733b81f2a78ff181fd4c76e8c6d1c7fd&skey=@crypt_9c3dea4c_60ecfb2e75ead15f0cee966311a887cd
p335
sVKeyWord
p336
VLK1
p337
sVProvince
p338
V\u5b89\u5fbd
p339
sVPYInitial
p340
VQUIET
p341
sVRemarkName
p342
V\u5b89\u7406-\u5218\u5eb7
p343
sVIsOwner
p344
I0
sVSex
p345
I1
sVStarFriend
p346
I0
sVHideInputBarFlag
p347
I0
sVChatRoomId
p348
I0
sVEncryChatRoomId
p349
g56
sVAttrStatus
p350
I4283
sVStatues
p351
I0
stp352
Rp353
I1
bag34
(g38
g39
(dp354
VUserName
p355
V@15035d6134279dd6242b018fed7f096b75e373cd172784501c77d24c51542685
p356
sVCity
p357
V\u8861\u6c34
p358
sVSnsFlag
p359
I1
sVDisplayName
p360
g56
sVUniFriend
p361
I0
sVMemberCount
p362
I0
sVOwnerUin
p363
I0
sVMemberList
p364
g52
sVAlias
p365
g56
sVPYQuanPin
p366
Vzcy15503298217
p367
sVSignature
p368
V\u52aa\u529b\u594b\u6597\uff0c\u4ee5\u6700\u597d\u7684\u5fc3\u6001\u8fce\u63a5\u65b0\u4e00\u6bb5\u65f6\u95f4\u7684\u5de5\u4f5c\u3002
p369
sVRemarkPYInitial
p370
VYHXL
p371
sVContactFlag
p372
I3
sVUin
p373
I0
sVNickName
p374
Vzcy15503298217
p375
sVAppAccountFlag
p376
I0
sVVerifyFlag
p377
I0
sVRemarkPYQuanPin
p378
Vyihanxingliu
p379
sVHeadImgUrl
p380
V/cgi-bin/mmwebwx-bin/webwxgeticon?seq=647556546&username=@15035d6134279dd6242b018fed7f096b75e373cd172784501c77d24c51542685&skey=@crypt_9c3dea4c_60ecfb2e75ead15f0cee966311a887cd
p381
sVKeyWord
p382
g56
sVProvince
p383
V\u6cb3\u5317
p384
sVPYInitial
p385
VZCY15503298217
p386
sVRemarkName
p387
V\u4f0a-\u97e9\u674f\u67f3
p388
sVIsOwner
p389
I0
sVSex
p390
I2
sVStarFriend
p391
I0
sVHideInputBarFlag
p392
I0
sVChatRoomId
p393
I0
sVEncryChatRoomId
p394
g56
sVAttrStatus
p395
I135265
sVStatues
p396
I0
stp397
Rp398
I1
bag34
(g38
g39
(dp399
VUserName
p400
V@6cd8a2ffe28e2eec0a444fdde7b7be19c09d7e280c10f6fb91f08f816195bdf7
p401
sVCity
p402
g56
sVSnsFlag
p403
I1
sVDisplayName
p404
g56
sVUniFriend
p405
I0
sVMemberCount
p406
I0
sVOwnerUin
p407
I0
sVMemberList
p408
g52
sVAlias
p409
g56
sVPYQuanPin
p410
Vbaihe
p411
sVSignature
p412
g56
sVRemarkPYInitial
p413
VYMHL
p414
sVContactFlag
p415
I3
sVUin
p416
I0
sVNickName
p417
V\u767e\u5408
p418
sVAppAccountFlag
p419
I0
sVVerifyFlag
p420
I0
sVRemarkPYQuanPin
p421
Vyimeihualing
p422
sVHeadImgUrl
p423
V/cgi-bin/mmwebwx-bin/webwxgeticon?seq=662690959&username=@6cd8a2ffe28e2eec0a444fdde7b7be19c09d7e280c10f6fb91f08f816195bdf7&skey=@crypt_9c3dea4c_60ecfb2e75ead15f0cee966311a887cd
p424
sVKeyWord
p425
g56
sVProvince
p426
g56
sVPYInitial
p427
VBH
p428
sVRemarkName
p429
V\u4f0a-\u6885\u82b1\u73b2
p430
sVIsOwner
p431
I0
sVSex
p432
I2
sVStarFriend
p433
I0
sVHideInputBarFlag
p434
I0
sVChatRoomId
p435
I0
sVEncryChatRoomId
p436
g56
sVAttrStatus
p437
I4133
sVStatues
p438
I0
stp439
Rp440
I1
bag34
(g38
g39
(dp441
VUserName
p442
V@0f47d951f2bfb7e4fded55f33212ca55bcf23156a12e0d9adea1f1a2d8b77cbc
p443
sVCity
p444
V\u6e29\u5dde
p445
sVSnsFlag
p446
I1
sVDisplayName
p447
g56
sVUniFriend
p448
I0
sVMemberCount
p449
I0
sVOwnerUin
p450
I0
sVMemberList
p451
g52
sVAlias
p452
g56
sVPYQuanPin
p453
Vdayinlaxiehuan
p454
sVSignature
p455
V\u6211\u662f\u6253\u5370\u5566\uff08dayinl.a\uff09\u7684\u8c22\u6b22
p456
sVRemarkPYInitial
p457
VMTXH
p458
sVContactFlag
p459
I3
sVUin
p460
I0
sVNickName
p461
V\u6253\u5370\u5566\u8c22\u6b22
p462
sVAppAccountFlag
p463
I0
sVVerifyFlag
p464
I0
sVRemarkPYQuanPin
p465
Vmaitianxiehuan
p466
sVHeadImgUrl
p467
V/cgi-bin/mmwebwx-bin/webwxgeticon?seq=640121875&username=@0f47d951f2bfb7e4fded55f33212ca55bcf23156a12e0d9adea1f1a2d8b77cbc&skey=@crypt_9c3dea4c_60ecfb2e75ead15f0cee966311a887cd
p468
sVKeyWord
p469
g56
sVProvince
p470
V\u6d59\u6c5f
p471
sVPYInitial
p472
VDYLXH
p473
sVRemarkName
p474
V\u9ea6\u7530-\u8c22\u6b22-
p475
sVIsOwner
p476
I0
sVSex
p477
I2
sVStarFriend
p478
I0
sVHideInputBarFlag
p479
I0
sVChatRoomId
p480
I0
sVEncryChatRoomId
p481
g56
sVAttrStatus
p482
I233573
sVStatues
p483
I0
stp484
Rp485
I1
bag34
(g38
g39
(dp486
VUserName
p487
V@fb151524aece7e70a3a15bfa3084d6be0a3237165ca0dbd937fde785c28b81ea
p488
sVCity
p489
V\u6e29\u5dde
p490
sVSnsFlag
p491
I17
sVDisplayName
p492
g56
sVUniFriend
p493
I0
sVMemberCount
p494
I0
sVOwnerUin
p495
I0
sVMemberList
p496
g52
sVAlias
p497
g56
sVPYQuanPin
p498
Vspanclassemojiemoji2747span
p499
sVSignature
p500
g56
sVRemarkPYInitial
p501
VMTXLLCW
p502
sVContactFlag
p503
I3
sVUin
p504
I0
sVNickName
p505
V\u2747
p506
sVAppAccountFlag
p507
I0
sVVerifyFlag
p508
I0
sVRemarkPYQuanPin
p509
Vmaitianxielilicaiwu
p510
sVHeadImgUrl
p511
V/cgi-bin/mmwebwx-bin/webwxgeticon?seq=647548850&username=@fb151524aece7e70a3a15bfa3084d6be0a3237165ca0dbd937fde785c28b81ea&skey=@crypt_9c3dea4c_60ecfb2e75ead15f0cee966311a887cd
p512
sVKeyWord
p513
g56
sVProvince
p514
V\u6d59\u6c5f
p515
sVPYInitial
p516
VSPANCLASSEMOJIEMOJI2747SPAN
p517
sVRemarkName
p518
V\u9ea6\u7530-\u8c22\u8389\u8389-\u8d22\u52a1
p519
sVIsOwner
p520
I0
sVSex
p521
I2
sVStarFriend
p522
I0
sVHideInputBarFlag
p523
I0
sVChatRoomId
p524
I0
sVEncryChatRoomId
p525
g56
sVAttrStatus
p526
I104487
sVStatues
p527
I0
stp528
Rp529
I1
bag34
(g38
g39
(dp530
VUserName
p531
V@f980df7785f340aed9a830d29cd86468
p532
sVCity
p533
V\u6e29\u5dde
p534
sVSnsFlag
p535
I49
sVDisplayName
p536
g56
sVUniFriend
p537
I0
sVMemberCount
p538
I0
sVOwnerUin
p539
I0
sVMemberList
p540
g52
sVAlias
p541
g56
sVPYQuanPin
p542
Vchenzhonghui?
p543
sVSignature
p544
g56
sVRemarkPYInitial
p545
VMTCZHDN
p546
sVContactFlag
p547
I3
sVUin
p548
I0
sVNickName
p549
V\u5c18\u4e2d\u7070\u2705
p550
sVAppAccountFlag
p551
I0
sVVerifyFlag
p552
I0
sVRemarkPYQuanPin
p553
Vmaitianchenzhonghuidaniu
p554
sVHeadImgUrl
p555
V/cgi-bin/mmwebwx-bin/webwxgeticon?seq=662704114&username=@f980df7785f340aed9a830d29cd86468&skey=@crypt_9c3dea4c_60ecfb2e75ead15f0cee966311a887cd
p556
sVKeyWord
p557
Vahu
p558
sVProvince
p559
V\u6d59\u6c5f
p560
sVPYInitial
p561
VCZH?
p562
sVRemarkName
p563
V\u9ea6\u7530-\u9648\u5fe0\u8f89--\u5927\u725b
p564
sVIsOwner
p565
I0
sVSex
p566
I1
sVStarFriend
p567
I0
sVHideInputBarFlag
p568
I0
sVChatRoomId
p569
I0
sVEncryChatRoomId
p570
g56
sVAttrStatus
p571
I50440295
sVStatues
p572
I0
stp573
Rp574
I1
bag34
(g38
g39
(dp575
VUserName
p576
V@80ac06d7b208dcd9cc6dec7bb65852d9
p577
sVCity
p578
V\u7126\u4f5c
p579
sVSnsFlag
p580
I49
sVDisplayName
p581
g56
sVUniFriend
p582
I0
sVMemberCount
p583
I0
sVOwnerUin
p584
I0
sVMemberList
p585
g52
sVAlias
p586
g56
sVPYQuanPin
p587
Vdou
p588
sVSignature
p589
VAee\uff5e
p590
sVRemarkPYInitial
p591
VALZSJ
p592
sVContactFlag
p593
I3
sVUin
p594
I0
sVNickName
p595
V\u8c46\uff5e
p596
sVAppAccountFlag
p597
I0
sVVerifyFlag
p598
I0
sVRemarkPYQuanPin
p599
Vanlizhangshijun
p600
sVHeadImgUrl
p601
V/cgi-bin/mmwebwx-bin/webwxgeticon?seq=642360655&username=@80ac06d7b208dcd9cc6dec7bb65852d9&skey=@crypt_9c3dea4c_60ecfb2e75ead15f0cee966311a887cd
p602
sVKeyWord
p603
Vvnd
p604
sVProvince
p605
V\u6cb3\u5357
p606
sVPYInitial
p607
VD
p608
sVRemarkName
p609
V\u5b89\u7406-\u5f20\u77f3\u541b
p610
sVIsOwner
p611
I0
sVSex
p612
I1
sVStarFriend
p613
I0
sVHideInputBarFlag
p614
I0
sVChatRoomId
p615
I0
sVEncryChatRoomId
p616
g56
sVAttrStatus
p617
I239551
sVStatues
p618
I0
stp619
Rp620
I1
bag34
(g38
g39
(dp621
VUserName
p622
V@b1a38035d821e3dae2a67025630cbd2c
p623
sVCity
p624
V\u5357\u4eac
p625
sVSnsFlag
p626
I17
sVDisplayName
p627
g56
sVUniFriend
p628
I0
sVMemberCount
p629
I0
sVOwnerUin
p630
I0
sVMemberList
p631
g52
sVAlias
p632
g56
sVPYQuanPin
p633
Vzifeiyu
p634
sVSignature
p635
g56
sVRemarkPYInitial
p636
VALCY
p637
sVContactFlag
p638
I3
sVUin
p639
I0
sVNickName
p640
V\u5b50\u975e\u9c7c
p641
sVAppAccountFlag
p642
I0
sVVerifyFlag
p643
I0
sVRemarkPYQuanPin
p644
Vanlichuyu
p645
sVHeadImgUrl
p646
V/cgi-bin/mmwebwx-bin/webwxgeticon?seq=647540927&username=@b1a38035d821e3dae2a67025630cbd2c&skey=@crypt_9c3dea4c_60ecfb2e75ead15f0cee966311a887cd
p647
sVKeyWord
p648
Vyuc
p649
sVProvince
p650
V\u6c5f\u82cf
p651
sVPYInitial
p652
VZFY
p653
sVRemarkName
p654
V\u5b89\u7406-\u50a8\u6e1d
p655
sVIsOwner
p656
I0
sVSex
p657
I1
sVStarFriend
p658
I0
sVHideInputBarFlag
p659
I0
sVChatRoomId
p660
I0
sVEncryChatRoomId
p661
g56
sVAttrStatus
p662
I102499
sVStatues
p663
I0
stp664
Rp665
I1
bag34
(g38
g39
(dp666
VUserName
p667
V@a094e83b25985c59b45f8f889fa24ee7093263dc0cfd4f232d0fb6e94cf19f43
p668
sVCity
p669
V\u868c\u57e0
p670
sVSnsFlag
p671
I17
sVDisplayName
p672
g56
sVUniFriend
p673
I0
sVMemberCount
p674
I0
sVOwnerUin
p675
I0
sVMemberList
p676
g52
sVAlias
p677
g56
sVPYQuanPin
p678
Vqianyuan
p679
sVSignature
p680
V\u2026
p681
sVRemarkPYInitial
p682
VALQY
p683
sVContactFlag
p684
I3
sVUin
p685
I0
sVNickName
p686
V\u94b1\u6e90
p687
sVAppAccountFlag
p688
I0
sVVerifyFlag
p689
I0
sVRemarkPYQuanPin
p690
Vanliqianying
p691
sVHeadImgUrl
p692
V/cgi-bin/mmwebwx-bin/webwxgeticon?seq=620800091&username=@a094e83b25985c59b45f8f889fa24ee7093263dc0cfd4f232d0fb6e94cf19f43&skey=@crypt_9c3dea4c_60ecfb2e75ead15f0cee966311a887cd
p693
sVKeyWord
p694
g56
sVProvince
p695
V\u5b89\u5fbd
p696
sVPYInitial
p697
VQY
p698
sVRemarkName
p699
V\u5b89\u7406-\u94b1\u83b9
p700
sVIsOwner
p701
I0
sVSex
p702
I1
sVStarFriend
p703
I0
sVHideInputBarFlag
p704
I0
sVChatRoomId
p705
I0
sVEncryChatRoomId
p706
g56
sVAttrStatus
p707
I16880673
sVStatues
p708
I0
stp709
Rp710
I1
bag34
(g38
g39
(dp711
VUserName
p712
V@bdfb840c790d9e6402443c59e0e125407d70c2016bf1ae943496493106b75d51
p713
sVCity
p714
V\u5408\u80a5
p715
sVSnsFlag
p716
I17
sVDisplayName
p717
g56
sVUniFriend
p718
I0
sVMemberCount
p719
I0
sVOwnerUin
p720
I0
sVMemberList
p721
g52
sVAlias
p722
g56
sVPYQuanPin
p723
Vzhanganan
p724
sVSignature
p725
VMan proposes,God disposes
p726
sVRemarkPYInitial
p727
VALZAA
p728
sVContactFlag
p729
I3
sVUin
p730
I0
sVNickName
p731
V\u5f20\u5b89\u5b89
p732
sVAppAccountFlag
p733
I0
sVVerifyFlag
p734
I0
sVRemarkPYQuanPin
p735
Vanlizhanganan
p736
sVHeadImgUrl
p737
V/cgi-bin/mmwebwx-bin/webwxgeticon?seq=662697362&username=@bdfb840c790d9e6402443c59e0e125407d70c2016bf1ae943496493106b75d51&skey=@crypt_9c3dea4c_60ecfb2e75ead15f0cee966311a887cd
p738
sVKeyWord
p739
g56
sVProvince
p740
V\u5b89\u5fbd
p741
sVPYInitial
p742
VZAA
p743
sVRemarkName
p744
V\u5b89\u7406-\u5f20\u5b89\u5b89
p745
sVIsOwner
p746
I0
sVSex
p747
I1
sVStarFriend
p748
I0
sVHideInputBarFlag
p749
I0
sVChatRoomId
p750
I0
sVEncryChatRoomId
p751
g56
sVAttrStatus
p752
I103613
sVStatues
p753
I0
stp754
Rp755
I1
bag34
(g38
g39
(dp756
VUserName
p757
V@7c82a785b4f6ef6e4f563a3b815f38da
p758
sVCity
p759
g56
sVSnsFlag
p760
I17
sVDisplayName
p761
g56
sVUniFriend
p762
I0
sVMemberCount
p763
I0
sVOwnerUin
p764
I0
sVMemberList
p765
g52
sVAlias
p766
g56
sVPYQuanPin
p767
VxiPxi
p768
sVSignature
p769
V\u751f\u6d3b\u4e0d\u6b62\u773c\u524d\u7684\u82df\u4e14\uff0c\u8fd8\u6709\u8bfb\u4e0d\u61c2\u7684\u8bd7\u548c\u5230\u4e0d\u4e86\u7684\u8fdc\u65b9
p770
sVRemarkPYInitial
p771
VALCW
p772
sVContactFlag
p773
I3
sVUin
p774
I0
sVNickName
p775
V\u5e0cP\u60dc
p776
sVAppAccountFlag
p777
I0
sVVerifyFlag
p778
I0
sVRemarkPYQuanPin
p779
Vanlicuiwang
p780
sVHeadImgUrl
p781
V/cgi-bin/mmwebwx-bin/webwxgeticon?seq=625632466&username=@7c82a785b4f6ef6e4f563a3b815f38da&skey=@crypt_9c3dea4c_60ecfb2e75ead15f0cee966311a887cd
p782
sVKeyWord
p783
Vcw6
p784
sVProvince
p785
g56
sVPYInitial
p786
VXPX
p787
sVRemarkName
p788
V\u5b89\u7406-\u50ac\u65fa
p789
sVIsOwner
p790
I0
sVSex
p791
I1
sVStarFriend
p792
I0
sVHideInputBarFlag
p793
I0
sVChatRoomId
p794
I0
sVEncryChatRoomId
p795
g56
sVAttrStatus
p796
I98343
sVStatues
p797
I0
stp798
Rp799
I1
bag34
(g38
g39
(dp800
VUserName
p801
V@9a4867150c074ae16cae5c02b8b33395
p802
sVCity
p803
V\u5408\u80a5
p804
sVSnsFlag
p805
I145
sVDisplayName
p806
g56
sVUniFriend
p807
I0
sVMemberCount
p808
I0
sVOwnerUin
p809
I0
sVMemberList
p810
g52
sVAlias
p811
g56
sVPYQuanPin
p812
VZLM
p813
sVSignature
p814
V\u8bb0\u5f97\u90a3\u65f6\u5e74\u7eaa\u5c0f\uff0c\u4f60\u7231\u8c08\u5929\u6211\u7231\u7b11\u3002
p815
sVRemarkPYInitial
p816
VALZLM
p817
sVContactFlag
p818
I3
sVUin
p819
I0
sVNickName
p820
VZLM
p821
sVAppAccountFlag
p822
I0
sVVerifyFlag
p823
I0
sVRemarkPYQuanPin
p824
Vanlizhanglimin
p825
sVHeadImgUrl
p826
V/cgi-bin/mmwebwx-bin/webwxgeticon?seq=631380420&username=@9a4867150c074ae16cae5c02b8b33395&skey=@crypt_9c3dea4c_60ecfb2e75ead15f0cee966311a887cd
p827
sVKeyWord
p828
Vzha
p829
sVProvince
p830
V\u5b89\u5fbd
p831
sVPYInitial
p832
VZLM
p833
sVRemarkName
p834
V\u5b89\u7406-\u5f20\u5229\u6c11
p835
sVIsOwner
p836
I0
sVSex
p837
I1
sVStarFriend
p838
I0
sVHideInputBarFlag
p839
I0
sVChatRoomId
p840
I0
sVEncryChatRoomId
p841
g56
sVAttrStatus
p842
I16889959
sVStatues
p843
I0
stp844
Rp845
I1
bag34
(g38
g39
(dp846
VUserName
p847
V@76bf894df65c4f8647c4fd0b6f8c36266469e7bbb32ece83bbb77034ea7241a2
p848
sVCity
p849
g56
sVSnsFlag
p850
I17
sVDisplayName
p851
g56
sVUniFriend
p852
I0
sVMemberCount
p853
I0
sVOwnerUin
p854
I0
sVMemberList
p855
g52
sVAlias
p856
g56
sVPYQuanPin
p857
Vxiaoshizi
p858
sVSignature
p859
V\u505a\u4e2a\u81ea\u5df1\u4e0d\u8ba8\u538c\u7684\u660e\u5a9a\u7684\u5973\u5b50\uff01\u54c8\u54c8<span class="emoji emoji1f604"></span>\u6602\u626c\u7684\u59ff\u6001\u8fce\u63a5\u6bcf\u4e00\u5929\uff01
p860
sVRemarkPYInitial
p861
VALSAP
p862
sVContactFlag
p863
I3
sVUin
p864
I0
sVNickName
p865
V\u5c0f\u5e08\u5b50
p866
sVAppAccountFlag
p867
I0
sVVerifyFlag
p868
I0
sVRemarkPYQuanPin
p869
Vanlishiaiping
p870
sVHeadImgUrl
p871
V/cgi-bin/mmwebwx-bin/webwxgeticon?seq=662715418&username=@76bf894df65c4f8647c4fd0b6f8c36266469e7bbb32ece83bbb77034ea7241a2&skey=@crypt_9c3dea4c_60ecfb2e75ead15f0cee966311a887cd
p872
sVKeyWord
p873
g56
sVProvince
p874
V\u5929\u6d25
p875
sVPYInitial
p876
VXSZ
p877
sVRemarkName
p878
V\u5b89\u7406-\u5e08\u7231\u5e73
p879
sVIsOwner
p880
I0
sVSex
p881
I2
sVStarFriend
p882
I0
sVHideInputBarFlag
p883
I0
sVChatRoomId
p884
I0
sVEncryChatRoomId
p885
g56
sVAttrStatus
p886
I230437
sVStatues
p887
I0
stp888
Rp889
I1
bag34
(g38
g39
(dp890
VUserName
p891
V@e532c02cdbdd751437a127ebbe1a1b61bb282eb411d69e76af7d1f4ff725eedb
p892
sVCity
p893
VSan Francisco
p894
sVSnsFlag
p895
I17
sVDisplayName
p896
g56
sVUniFriend
p897
I0
sVMemberCount
p898
I0
sVOwnerUin
p899
I0
sVMemberList
p900
g52
sVAlias
p901
g56
sVPYQuanPin
p902
Vduiyixiananjifenpian
p903
sVSignature
p904
V\u73cd\u60dc\u4e00\u5207\uff0c\u5927\u6b65\u5411\u524d\uff0c\u62e5\u62b1\u672a\u6765\u3002
p905
sVRemarkPYInitial
p906
VALZQM
p907
sVContactFlag
p908
I3
sVUin
p909
I0
sVNickName
p910
V\u5bf9\u4e59\u9170\u6c28\u57fa\u915a\u7247
p911
sVAppAccountFlag
p912
I0
sVVerifyFlag
p913
I0
sVRemarkPYQuanPin
p914
Vanlizhangqiming
p915
sVHeadImgUrl
p916
V/cgi-bin/mmwebwx-bin/webwxgeticon?seq=625180693&username=@e532c02cdbdd751437a127ebbe1a1b61bb282eb411d69e76af7d1f4ff725eedb&skey=@crypt_9c3dea4c_60ecfb2e75ead15f0cee966311a887cd
p917
sVKeyWord
p918
g56
sVProvince
p919
VCalifornia
p920
sVPYInitial
p921
VDYXAJFP
p922
sVRemarkName
p923
V\u5b89\u7406-\u5f20\u542f\u660e
p924
sVIsOwner
p925
I0
sVSex
p926
I1
sVStarFriend
p927
I0
sVHideInputBarFlag
p928
I0
sVChatRoomId
p929
I0
sVEncryChatRoomId
p930
g56
sVAttrStatus
p931
I136487
sVStatues
p932
I0
stp933
Rp934
I1
bag34
(g38
g39
(dp935
VUserName
p936
V@8cfa2f9b8b89085672b1061c9089fdc8
p937
sVCity
p938
V\u5609\u5174
p939
sVSnsFlag
p940
I17
sVDisplayName
p941
g56
sVUniFriend
p942
I0
sVMemberCount
p943
I0
sVOwnerUin
p944
I0
sVMemberList
p945
g52
sVAlias
p946
g56
sVPYQuanPin
p947
V?sihunqishi
p948
sVSignature
p949
g56
sVRemarkPYInitial
p950
VALCJHELM
p951
sVContactFlag
p952
I3
sVUin
p953
I0
sVNickName
p954
V\U0001f990\u6b7b\u9b42\u9a91\u58eb
p955
sVAppAccountFlag
p956
I0
sVVerifyFlag
p957
I0
sVRemarkPYQuanPin
p958
Vanlicaojiahuielema
p959
sVHeadImgUrl
p960
V/cgi-bin/mmwebwx-bin/webwxgeticon?seq=661610344&username=@8cfa2f9b8b89085672b1061c9089fdc8&skey=@crypt_9c3dea4c_60ecfb2e75ead15f0cee966311a887cd
p961
sVKeyWord
p962
Vshq
p963
sVProvince
p964
V\u6d59\u6c5f
p965
sVPYInitial
p966
V?SHQS
p967
sVRemarkName
p968
V\u5b89\u7406-\u66f9\u4f73\u6656-\u997f\u4e86\u5417
p969
sVIsOwner
p970
I0
sVSex
p971
I1
sVStarFriend
p972
I0
sVHideInputBarFlag
p973
I0
sVChatRoomId
p974
I0
sVEncryChatRoomId
p975
g56
sVAttrStatus
p976
I241767
sVStatues
p977
I0
stp978
Rp979
I1
bag34
(g38
g39
(dp980
VUserName
p981
V@339c2cd675054ddd7946a0e278fc44d8
p982
sVCity
p983
V\u6d77\u6dc0
p984
sVSnsFlag
p985
I17
sVDisplayName
p986
g56
sVUniFriend
p987
I0
sVMemberCount
p988
I0
sVOwnerUin
p989
I0
sVMemberList
p990
g52
sVAlias
p991
g56
sVPYQuanPin
p992
Vwendaoxiangdewoniu
p993
sVSignature
p994
V\u4e00\u7b11\u98ce\u96e8\u4efb\u5e73\u751f
p995
sVRemarkPYInitial
p996
VHKZHCS
p997
sVContactFlag
p998
I3
sVUin
p999
I0
sVNickName
p1000
V\u95fb\u7a3b\u9999\u7684\u8717\u725b
p1001
sVAppAccountFlag
p1002
I0
sVVerifyFlag
p1003
I0
sVRemarkPYQuanPin
p1004
Vhaikezhanghuiceshi
p1005
sVHeadImgUrl
p1006
V/cgi-bin/mmwebwx-bin/webwxgeticon?seq=662717680&username=@339c2cd675054ddd7946a0e278fc44d8&skey=@crypt_9c3dea4c_60ecfb2e75ead15f0cee966311a887cd
p1007
sVKeyWord
p1008
Vcar
p1009
sVProvince
p1010
V\u5317\u4eac
p1011
sVPYInitial
p1012
VWDXDWN
p1013
sVRemarkName
p1014
V\u6c26\u6c2a-\u5f20\u6167-\u6d4b\u8bd5
p1015
sVIsOwner
p1016
I0
sVSex
p1017
I2
sVStarFriend
p1018
I0
sVHideInputBarFlag
p1019
I0
sVChatRoomId
p1020
I0
sVEncryChatRoomId
p1021
g56
sVAttrStatus
p1022
I102503
sVStatues
p1023
I0
stp1024
Rp1025
I1
bag34
(g38
g39
(dp1026
VUserName
p1027
V@2b16ebede13a9214adf7b4da06473279
p1028
sVCity
p1029
V\u8861\u6c34
p1030
sVSnsFlag
p1031
I17
sVDisplayName
p1032
g56
sVUniFriend
p1033
I0
sVMemberCount
p1034
I0
sVOwnerUin
p1035
I0
sVMemberList
p1036
g52
sVAlias
p1037
g56
sVPYQuanPin
p1038
Vbingdi
p1039
sVSignature
p1040
V\u9760\u9760\u9760\u9760\u2026\u2029\u2029\u2029\u81ea\u5df1\u52aa\u529b
p1041
sVRemarkPYInitial
p1042
VXYFTL
p1043
sVContactFlag
p1044
I3
sVUin
p1045
I0
sVNickName
p1046
V\u51b0\u6ef4
p1047
sVAppAccountFlag
p1048
I0
sVVerifyFlag
p1049
I0
sVRemarkPYQuanPin
p1050
Vxiuyuanfutianlu
p1051
sVHeadImgUrl
p1052
V/cgi-bin/mmwebwx-bin/webwxgeticon?seq=662696031&username=@2b16ebede13a9214adf7b4da06473279&skey=@crypt_9c3dea4c_60ecfb2e75ead15f0cee966311a887cd
p1053
sVKeyWord
p1054
Vfug
p1055
sVProvince
p1056
V\u6cb3\u5317
p1057
sVPYInitial
p1058
VBD
p1059
sVRemarkName
p1060
V\u4fee\u9662-\u5085\u5929\u8def
p1061
sVIsOwner
p1062
I0
sVSex
p1063
I1
sVStarFriend
p1064
I0
sVHideInputBarFlag
p1065
I0
sVChatRoomId
p1066
I0
sVEncryChatRoomId
p1067
g56
sVAttrStatus
p1068
I102437
sVStatues
p1069
I0
stp1070
Rp1071
I1
bag34
(g38
g39
(dp1072
VUserName
p1073
V@26ff51ebe1089b2f9b8e3db6125c1cfd3662ada8110fb1a7ef63fb23129e759a
p1074
sVCity
p1075
g56
sVSnsFlag
p1076
I0
sVDisplayName
p1077
g56
sVUniFriend
p1078
I0
sVMemberCount
p1079
I0
sVOwnerUin
p1080
I0
sVMemberList
p1081
g52
sVAlias
p1082
g56
sVPYQuanPin
p1083
VGio
p1084
sVSignature
p1085
g56
sVRemarkPYInitial
p1086
VXYWCL
p1087
sVContactFlag
p1088
I3
sVUin
p1089
I0
sVNickName
p1090
VGio
p1091
sVAppAccountFlag
p1092
I0
sVVerifyFlag
p1093
I0
sVRemarkPYQuanPin
p1094
Vxiuyuanwangchangliang
p1095
sVHeadImgUrl
p1096
V/cgi-bin/mmwebwx-bin/webwxgeticon?seq=662693979&username=@26ff51ebe1089b2f9b8e3db6125c1cfd3662ada8110fb1a7ef63fb23129e759a&skey=@crypt_9c3dea4c_60ecfb2e75ead15f0cee966311a887cd
p1097
sVKeyWord
p1098
g56
sVProvince
p1099
VPisa
p1100
sVPYInitial
p1101
VGIO
p1102
sVRemarkName
p1103
V\u4fee\u9662-\u738b\u5e38\u4eae
p1104
sVIsOwner
p1105
I0
sVSex
p1106
I1
sVStarFriend
p1107
I0
sVHideInputBarFlag
p1108
I0
sVChatRoomId
p1109
I0
sVEncryChatRoomId
p1110
g56
sVAttrStatus
p1111
I233573
sVStatues
p1112
I0
stp1113
Rp1114
I1
bag34
(g38
g39
(dp1115
VUserName
p1116
V@a92279e91a6bc2f5da933f79eb4508d3200aeca3f441679a726a8dc0e654515e
p1117
sVCity
p1118
g56
sVSnsFlag
p1119
I1
sVDisplayName
p1120
g56
sVUniFriend
p1121
I0
sVMemberCount
p1122
I0
sVOwnerUin
p1123
I0
sVMemberList
p1124
g52
sVAlias
p1125
g56
sVPYQuanPin
p1126
VDanny
p1127
sVSignature
p1128
V\u4e00\u5207\u5e73\u5e38\u5fc3
p1129
sVRemarkPYInitial
p1130
VHDANNYJDGL
p1131
sVContactFlag
p1132
I3
sVUin
p1133
I0
sVNickName
p1134
VDanny
p1135
sVAppAccountFlag
p1136
I0
sVVerifyFlag
p1137
I0
sVRemarkPYQuanPin
p1138
VhangDannyjiudianguanli
p1139
sVHeadImgUrl
p1140
V/cgi-bin/mmwebwx-bin/webwxgeticon?seq=662702742&username=@a92279e91a6bc2f5da933f79eb4508d3200aeca3f441679a726a8dc0e654515e&skey=@crypt_9c3dea4c_60ecfb2e75ead15f0cee966311a887cd
p1141
sVKeyWord
p1142
g56
sVProvince
p1143
V\u6fb3\u95e8
p1144
sVPYInitial
p1145
VDANNY
p1146
sVRemarkName
p1147
V\u676d-Danny-\u9152\u5e97\u7ba1\u7406
p1148
sVIsOwner
p1149
I0
sVSex
p1150
I1
sVStarFriend
p1151
I0
sVHideInputBarFlag
p1152
I0
sVChatRoomId
p1153
I0
sVEncryChatRoomId
p1154
g56
sVAttrStatus
p1155
I33820677
sVStatues
p1156
I0
stp1157
Rp1158
I1
bag34
(g38
g39
(dp1159
VUserName
p1160
V@1ce5c220beb51cbd1f00898fb3923a8c84c375208f2aa1f0718c3161be0a41c3
p1161
sVCity
p1162
V\u6210\u90fd
p1163
sVSnsFlag
p1164
I49
sVDisplayName
p1165
g56
sVUniFriend
p1166
I0
sVMemberCount
p1167
I0
sVOwnerUin
p1168
I0
sVMemberList
p1169
g52
sVAlias
p1170
g56
sVPYQuanPin
p1171
Vqisicaizonggongsi
p1172
sVSignature
p1173
V\U0001f46a<span class="emoji emoji1f487"></span>
p1174
sVRemarkPYInitial
p1175
VYWZYJJCD
p1176
sVContactFlag
p1177
I3
sVUin
p1178
I0
sVNickName
p1179
V\u4e03\u4e1d\u5f69\u603b\u516c\u53f8
p1180
sVAppAccountFlag
p1181
I0
sVVerifyFlag
p1182
I0
sVRemarkPYQuanPin
p1183
Vyiwangzhiyongjiajuchengdu
p1184
sVHeadImgUrl
p1185
V/cgi-bin/mmwebwx-bin/webwxgeticon?seq=642362303&username=@1ce5c220beb51cbd1f00898fb3923a8c84c375208f2aa1f0718c3161be0a41c3&skey=@crypt_9c3dea4c_60ecfb2e75ead15f0cee966311a887cd
p1186
sVKeyWord
p1187
g56
sVProvince
p1188
V\u56db\u5ddd
p1189
sVPYInitial
p1190
VQSCZGS
p1191
sVRemarkName
p1192
V\u4f0a-\u738b\u5fd7\u52c7-\u5bb6\u5177-\u6210\u90fd
p1193
sVIsOwner
p1194
I0
sVSex
p1195
I1
sVStarFriend
p1196
I0
sVHideInputBarFlag
p1197
I0
sVChatRoomId
p1198
I0
sVEncryChatRoomId
p1199
g56
sVAttrStatus
p1200
I105375
sVStatues
p1201
I0
stp1202
Rp1203
I1
bag34
(g38
g39
(dp1204
VUserName
p1205
V@18bb0134ac641c35907c139247e865ae
p1206
sVCity
p1207
V\u90af\u90f8
p1208
sVSnsFlag
p1209
I49
sVDisplayName
p1210
g56
sVUniFriend
p1211
I0
sVMemberCount
p1212
I0
sVOwnerUin
p1213
I0
sVMemberList
p1214
g52
sVAlias
p1215
g56
sVPYQuanPin
p1216
Vhuishichao
p1217
sVSignature
p1218
V\u9003\u907f\u81ea\u5df1\u5230\u4f55\u65f6
p1219
sVRemarkPYInitial
p1220
VWZHSCTX
p1221
sVContactFlag
p1222
I3
sVUin
p1223
I0
sVNickName
p1224
Vhuishichao
p1225
sVAppAccountFlag
p1226
I0
sVVerifyFlag
p1227
I0
sVRemarkPYQuanPin
p1228
Vwuzhonghuishichaotongxin
p1229
sVHeadImgUrl
p1230
V/cgi-bin/mmwebwx-bin/webwxgeticon?seq=620580582&username=@18bb0134ac641c35907c139247e865ae&skey=@crypt_9c3dea4c_60ecfb2e75ead15f0cee966311a887cd
p1231
sVKeyWord
p1232
Vhui
p1233
sVProvince
p1234
V\u6cb3\u5317
p1235
sVPYInitial
p1236
VHUISHICHAO
p1237
sVRemarkName
p1238
V\u6b66\u4e2d-\u60e0\u4e16\u8d85-\u901a\u4fe1
p1239
sVIsOwner
p1240
I0
sVSex
p1241
I1
sVStarFriend
p1242
I0
sVHideInputBarFlag
p1243
I0
sVChatRoomId
p1244
I0
sVEncryChatRoomId
p1245
g56
sVAttrStatus
p1246
I102435
sVStatues
p1247
I0
stp1248
Rp1249
I1
bag34
(g38
g39
(dp1250
VUserName
p1251
V@6939ca3a73065ab83bbdab19d125bcae
p1252
sVCity
p1253
V\u77f3\u5bb6\u5e84
p1254
sVSnsFlag
p1255
I17
sVDisplayName
p1256
g56
sVUniFriend
p1257
I0
sVMemberCount
p1258
I0
sVOwnerUin
p1259
I0
sVMemberList
p1260
g52
sVAlias
p1261
g56
sVPYQuanPin
p1262
Vhanfeizi
p1263
sVSignature
p1264
V\u6e05\u5fc3\u5be1\u6b32 \u6e05\u51c0\u65e0\u4e3a
p1265
sVRemarkPYInitial
p1266
VWZHFZTJ
p1267
sVContactFlag
p1268
I3
sVUin
p1269
I0
sVNickName
p1270
V\u97e9\u98de\u5b50
p1271
sVAppAccountFlag
p1272
I0
sVVerifyFlag
p1273
I0
sVRemarkPYQuanPin
p1274
Vwuzhonghanfeizhongtiejian
p1275
sVHeadImgUrl
p1276
V/cgi-bin/mmwebwx-bin/webwxgeticon?seq=662541113&username=@6939ca3a73065ab83bbdab19d125bcae&skey=@crypt_9c3dea4c_60ecfb2e75ead15f0cee966311a887cd
p1277
sVKeyWord
p1278
Vhan
p1279
sVProvince
p1280
V\u6cb3\u5317
p1281
sVPYInitial
p1282
VHFZ
p1283
sVRemarkName
p1284
V\u6b66\u4e2d-\u97e9\u975e-\u4e2d\u94c1\u5efa
p1285
sVIsOwner
p1286
I0
sVSex
p1287
I1
sVStarFriend
p1288
I0
sVHideInputBarFlag
p1289
I0
sVChatRoomId
p1290
I0
sVEncryChatRoomId
p1291
g56
sVAttrStatus
p1292
I71783
sVStatues
p1293
I0
stp1294
Rp1295
I1
bag34
(g38
g39
(dp1296
VUserName
p1297
V@7aef0890c1a8985d20c7cfcf7c8dc685
p1298
sVCity
p1299
g56
sVSnsFlag
p1300
I49
sVDisplayName
p1301
g56
sVUniFriend
p1302
I0
sVMemberCount
p1303
I0
sVOwnerUin
p1304
I0
sVMemberList
p1305
g52
sVAlias
p1306
g56
sVPYQuanPin
p1307
Vtong
p1308
sVSignature
p1309
V\u4e0d\u77e5\u9053\u4e0d\u660e\u4e86\u4e0d\u60f3\u8981 \u4e3a\u4ec0\u4e48\u6211\u7684\u5fc3\uff0c\u660e\u660e\u662f\u60f3\u9760\u8fd1\uff0c\u5374\u5b64\u5355\u5230\u9ece\u660e
p1310
sVRemarkPYInitial
p1311
VMTTZYPHP
p1312
sVContactFlag
p1313
I3
sVUin
p1314
I0
sVNickName
p1315
V\u7ae5
p1316
sVAppAccountFlag
p1317
I0
sVVerifyFlag
p1318
I0
sVRemarkPYQuanPin
p1319
VmaitiantongzongyanPHP
p1320
sVHeadImgUrl
p1321
V/cgi-bin/mmwebwx-bin/webwxgeticon?seq=628760251&username=@7aef0890c1a8985d20c7cfcf7c8dc685&skey=@crypt_9c3dea4c_60ecfb2e75ead15f0cee966311a887cd
p1322
sVKeyWord
p1323
Vton
p1324
sVProvince
p1325
g56
sVPYInitial
p1326
VT
p1327
sVRemarkName
p1328
V\u9ea6\u7530-\u7ae5\u5b97\u5ef6-PHP
p1329
sVIsOwner
p1330
I0
sVSex
p1331
I1
sVStarFriend
p1332
I0
sVHideInputBarFlag
p1333
I0
sVChatRoomId
p1334
I0
sVEncryChatRoomId
p1335
g56
sVAttrStatus
p1336
I129383
sVStatues
p1337
I0
stp1338
Rp1339
I1
bag34
(g38
g39
(dp1340
VUserName
p1341
V@5dfa59214294169be3e6b46a34db8b51
p1342
sVCity
p1343
V\u82cf\u5dde
p1344
sVSnsFlag
p1345
I17
sVDisplayName
p1346
g56
sVUniFriend
p1347
I0
sVMemberCount
p1348
I0
sVOwnerUin
p1349
I0
sVMemberList
p1350
g52
sVAlias
p1351
g56
sVPYQuanPin
p1352
Vanjing
p1353
sVSignature
p1354
V\u5b89\u9759
p1355
sVRemarkPYInitial
p1356
VALLXY
p1357
sVContactFlag
p1358
I3
sVUin
p1359
I0
sVNickName
p1360
V\u5b89\u9759
p1361
sVAppAccountFlag
p1362
I0
sVVerifyFlag
p1363
I0
sVRemarkPYQuanPin
p1364
Vanliliuxiangyin
p1365
sVHeadImgUrl
p1366
V/cgi-bin/mmwebwx-bin/webwxgeticon?seq=662731738&username=@5dfa59214294169be3e6b46a34db8b51&skey=@crypt_9c3dea4c_60ecfb2e75ead15f0cee966311a887cd
p1367
sVKeyWord
p1368
VA13
p1369
sVProvince
p1370
V\u6c5f\u82cf
p1371
sVPYInitial
p1372
VAJ
p1373
sVRemarkName
p1374
V\u5b89\u7406-\u5218\u7fd4\u97f3
p1375
sVIsOwner
p1376
I0
sVSex
p1377
I1
sVStarFriend
p1378
I0
sVHideInputBarFlag
p1379
I0
sVChatRoomId
p1380
I0
sVEncryChatRoomId
p1381
g56
sVAttrStatus
p1382
I102439
sVStatues
p1383
I0
stp1384
Rp1385
I1
bag34
(g38
g39
(dp1386
VUserName
p1387
V@136fa1e71bdf5f7f8a9e6fa361c260f2688a47fe5227c86c78f6702c9cd13f83
p1388
sVCity
p1389
g56
sVSnsFlag
p1390
I17
sVDisplayName
p1391
g56
sVUniFriend
p1392
I0
sVMemberCount
p1393
I0
sVOwnerUin
p1394
I0
sVMemberList
p1395
g52
sVAlias
p1396
g56
sVPYQuanPin
p1397
Vbaishuo
p1398
sVSignature
p1399
V\u552f\u6709\u5320\u5fc3\uff0c\u4e0d\u8d1f\u5149\u9634
p1400
sVRemarkPYInitial
p1401
VWZYJM
p1402
sVContactFlag
p1403
I3
sVUin
p1404
I0
sVNickName
p1405
V\u767d\u8bf4
p1406
sVAppAccountFlag
p1407
I0
sVVerifyFlag
p1408
I0
sVRemarkPYQuanPin
p1409
Vwuzhongyangjinming
p1410
sVHeadImgUrl
p1411
V/cgi-bin/mmwebwx-bin/webwxgeticon?seq=647544245&username=@136fa1e71bdf5f7f8a9e6fa361c260f2688a47fe5227c86c78f6702c9cd13f83&skey=@crypt_9c3dea4c_60ecfb2e75ead15f0cee966311a887cd
p1412
sVKeyWord
p1413
g56
sVProvince
p1414
V\u9752\u6d77
p1415
sVPYInitial
p1416
VBS
p1417
sVRemarkName
p1418
V\u6b66\u4e2d-\u6768\u91d1\u94ed
p1419
sVIsOwner
p1420
I0
sVSex
p1421
I1
sVStarFriend
p1422
I0
sVHideInputBarFlag
p1423
I0
sVChatRoomId
p1424
I0
sVEncryChatRoomId
p1425
g56
sVAttrStatus
p1426
I111717
sVStatues
p1427
I0
stp1428
Rp1429
I1
bag34
(g38
g39
(dp1430
VUserName
p1431
V@49b671af8de7fc1e54a8abe5d48e05deff34c405e16a49b192483467fdfe859b
p1432
sVCity
p1433
V\u6dee\u5357
p1434
sVSnsFlag
p1435
I17
sVDisplayName
p1436
g56
sVUniFriend
p1437
I0
sVMemberCount
p1438
I0
sVOwnerUin
p1439
I0
sVMemberList
p1440
g52
sVAlias
p1441
g56
sVPYQuanPin
p1442
Vxiaohui
p1443
sVSignature
p1444
V\u81ea\u4fe1\u7684\u5973\u5b69\u6700\u7f8e\uff01
p1445
sVRemarkPYInitial
p1446
VALCXH
p1447
sVContactFlag
p1448
I3
sVUin
p1449
I0
sVNickName
p1450
V\u5c0f\u60e0
p1451
sVAppAccountFlag
p1452
I0
sVVerifyFlag
p1453
I0
sVRemarkPYQuanPin
p1454
Vanlichenxihui
p1455
sVHeadImgUrl
p1456
V/cgi-bin/mmwebwx-bin/webwxgeticon?seq=647548201&username=@49b671af8de7fc1e54a8abe5d48e05deff34c405e16a49b192483467fdfe859b&skey=@crypt_9c3dea4c_60ecfb2e75ead15f0cee966311a887cd
p1457
sVKeyWord
p1458
g56
sVProvince
p1459
V\u5b89\u5fbd
p1460
sVPYInitial
p1461
VXH
p1462
sVRemarkName
p1463
V\u5b89\u7406-\u9648\u7199\u60e0
p1464
sVIsOwner
p1465
I0
sVSex
p1466
I2
sVStarFriend
p1467
I0
sVHideInputBarFlag
p1468
I0
sVChatRoomId
p1469
I0
sVEncryChatRoomId
p1470
g56
sVAttrStatus
p1471
I131429
sVStatues
p1472
I0
stp1473
Rp1474
I1
bag34
(g38
g39
(dp1475
VUserName
p1476
V@b40e8363f087ae0e4be4b6a7d9fa69e82a9790c923436c5530bc2c010990ed22
p1477
sVCity
p1478
V\u6f5c\u6c5f
p1479
sVSnsFlag
p1480
I17
sVDisplayName
p1481
g56
sVUniFriend
p1482
I0
sVMemberCount
p1483
I0
sVOwnerUin
p1484
I0
sVMemberList
p1485
g52
sVAlias
p1486
g56
sVPYQuanPin
p1487
VDmy
p1488
sVSignature
p1489
g56
sVRemarkPYInitial
p1490
VHKDMYUI
p1491
sVContactFlag
p1492
I3
sVUin
p1493
I0
sVNickName
p1494
VDmy
p1495
sVAppAccountFlag
p1496
I0
sVVerifyFlag
p1497
I0
sVRemarkPYQuanPin
p1498
VhaikedengmengyingUI
p1499
sVHeadImgUrl
p1500
V/cgi-bin/mmwebwx-bin/webwxgeticon?seq=662738719&username=@b40e8363f087ae0e4be4b6a7d9fa69e82a9790c923436c5530bc2c010990ed22&skey=@crypt_9c3dea4c_60ecfb2e75ead15f0cee966311a887cd
p1501
sVKeyWord
p1502
g56
sVProvince
p1503
V\u6e56\u5317
p1504
sVPYInitial
p1505
VDMY
p1506
sVRemarkName
p1507
V\u6c26\u6c2a-\u9093\u68a6\u83b9-UI
p1508
sVIsOwner
p1509
I0
sVSex
p1510
I2
sVStarFriend
p1511
I0
sVHideInputBarFlag
p1512
I0
sVChatRoomId
p1513
I0
sVEncryChatRoomId
p1514
g56
sVAttrStatus
p1515
I103207
sVStatues
p1516
I0
stp1517
Rp1518
I1
bag34
(g38
g39
(dp1519
VUserName
p1520
V@9d403ac000fb322b37618b6b093bec13f66c0f30a4f588edc58d5e3454be1fdc
p1521
sVCity
p1522
V\u6d66\u4e1c\u65b0\u533a
p1523
sVSnsFlag
p1524
I17
sVDisplayName
p1525
g56
sVUniFriend
p1526
I0
sVMemberCount
p1527
I0
sVOwnerUin
p1528
I0
sVMemberList
p1529
g52
sVAlias
p1530
g56
sVPYQuanPin
p1531
VCherryZhao
p1532
sVSignature
p1533
g56
sVRemarkPYInitial
p1534
VYZXXSH
p1535
sVContactFlag
p1536
I3
sVUin
p1537
I0
sVNickName
p1538
VCherry Zhao
p1539
sVAppAccountFlag
p1540
I0
sVVerifyFlag
p1541
I0
sVRemarkPYQuanPin
p1542
Vyizhaoxiaoxiashanghai
p1543
sVHeadImgUrl
p1544
V/cgi-bin/mmwebwx-bin/webwxgeticon?seq=662740908&username=@9d403ac000fb322b37618b6b093bec13f66c0f30a4f588edc58d5e3454be1fdc&skey=@crypt_9c3dea4c_60ecfb2e75ead15f0cee966311a887cd
p1545
sVKeyWord
p1546
Vsho
p1547
sVProvince
p1548
V\u4e0a\u6d77
p1549
sVPYInitial
p1550
VCHERRYZHAO
p1551
sVRemarkName
p1552
V\u4f0a-\u8d75\u6653\u971e-\u4e0a\u6d77
p1553
sVIsOwner
p1554
I0
sVSex
p1555
I2
sVStarFriend
p1556
I0
sVHideInputBarFlag
p1557
I0
sVChatRoomId
p1558
I0
sVEncryChatRoomId
p1559
g56
sVAttrStatus
p1560
I103719
sVStatues
p1561
I0
stp1562
Rp1563
I1
bag34
(g38
g39
(dp1564
VUserName
p1565
V@f0d86463f4bf0f65d5de10edd613a0af
p1566
sVCity
p1567
V\u8861\u6c34
p1568
sVSnsFlag
p1569
I17
sVDisplayName
p1570
g56
sVUniFriend
p1571
I0
sVMemberCount
p1572
I0
sVOwnerUin
p1573
I0
sVMemberList
p1574
g52
sVAlias
p1575
g56
sVPYQuanPin
p1576
Vqigongzi
p1577
sVSignature
p1578
g56
sVRemarkPYInitial
p1579
VYMBTJJ
p1580
sVContactFlag
p1581
I3
sVUin
p1582
I0
sVNickName
p1583
V\u4e03\u516c\u5b50
p1584
sVAppAccountFlag
p1585
I0
sVVerifyFlag
p1586
I0
sVRemarkPYQuanPin
p1587
Vyimeibutianjijian
p1588
sVHeadImgUrl
p1589
V/cgi-bin/mmwebwx-bin/webwxgeticon?seq=662741304&username=@f0d86463f4bf0f65d5de10edd613a0af&skey=@crypt_9c3dea4c_60ecfb2e75ead15f0cee966311a887cd
p1590
sVKeyWord
p1591
Vmmc
p1592
sVProvince
p1593
V\u6cb3\u5317
p1594
sVPYInitial
p1595
VQGZ
p1596
sVRemarkName
p1597
V\u4f0a-\u6885\u5e03\u5929-\u57fa\u5efa
p1598
sVIsOwner
p1599
I0
sVSex
p1600
I1
sVStarFriend
p1601
I0
sVHideInputBarFlag
p1602
I0
sVChatRoomId
p1603
I0
sVEncryChatRoomId
p1604
g56
sVAttrStatus
p1605
I4135
sVStatues
p1606
I0
stp1607
Rp1608
I1
bag34
(g38
g39
(dp1609
VUserName
p1610
V@75192d4a090fa585f7c75c9596070aa1a82f2a161c15c1c4fecff4c91098cbe9
p1611
sVCity
p1612
V\u5408\u80a5
p1613
sVSnsFlag
p1614
I17
sVDisplayName
p1615
g56
sVUniFriend
p1616
I0
sVMemberCount
p1617
I0
sVOwnerUin
p1618
I0
sVMemberList
p1619
g52
sVAlias
p1620
g56
sVPYQuanPin
p1621
Vkjzy
p1622
sVSignature
p1623
VStay Hungry, Stay Foolish
p1624
sVRemarkPYInitial
p1625
VALSJ
p1626
sVContactFlag
p1627
I3
sVUin
p1628
I0
sVNickName
p1629
Vkjzy
p1630
sVAppAccountFlag
p1631
I0
sVVerifyFlag
p1632
I0
sVRemarkPYQuanPin
p1633
Vanlisongjian
p1634
sVHeadImgUrl
p1635
V/cgi-bin/mmwebwx-bin/webwxgeticon?seq=662694445&username=@75192d4a090fa585f7c75c9596070aa1a82f2a161c15c1c4fecff4c91098cbe9&skey=@crypt_9c3dea4c_60ecfb2e75ead15f0cee966311a887cd
p1636
sVKeyWord
p1637
g56
sVProvince
p1638
V\u5b89\u5fbd
p1639
sVPYInitial
p1640
VKJZY
p1641
sVRemarkName
p1642
V\u5b89\u7406-\u5b8b\u5065
p1643
sVIsOwner
p1644
I0
sVSex
p1645
I1
sVStarFriend
p1646
I0
sVHideInputBarFlag
p1647
I0
sVChatRoomId
p1648
I0
sVEncryChatRoomId
p1649
g56
sVAttrStatus
p1650
I17006599
sVStatues
p1651
I0
stp1652
Rp1653
I1
bag34
(g38
g39
(dp1654
VUserName
p1655
V@ae9f67b30f1e9edbcb8ac97bceff8f0ef0b438f157878fad823038f8336e98ae
p1656
sVCity
p1657
g56
sVSnsFlag
p1658
I145
sVDisplayName
p1659
g56
sVUniFriend
p1660
I0
sVMemberCount
p1661
I0
sVOwnerUin
p1662
I0
sVMemberList
p1663
g52
sVAlias
p1664
g56
sVPYQuanPin
p1665
Vyushi
p1666
sVSignature
p1667
V\u51b2\u51b2\u51b2\u000a\u505a\u6211\u81ea\u5df1\u7684\u82f1\u96c4\u000a\u4e16\u754c\u5728\u6211\u9762\u524d\u000a\u672a\u6765\u5728\u6211\u773c\u4e2d
p1668
sVRemarkPYInitial
p1669
VALYC
p1670
sVContactFlag
p1671
I3
sVUin
p1672
I0
sVNickName
p1673
V\u4e8e\u662f
p1674
sVAppAccountFlag
p1675
I0
sVVerifyFlag
p1676
I0
sVRemarkPYQuanPin
p1677
Vanliyuchong
p1678
sVHeadImgUrl
p1679
V/cgi-bin/mmwebwx-bin/webwxgeticon?seq=662753050&username=@ae9f67b30f1e9edbcb8ac97bceff8f0ef0b438f157878fad823038f8336e98ae&skey=@crypt_9c3dea4c_60ecfb2e75ead15f0cee966311a887cd
p1680
sVKeyWord
p1681
g56
sVProvince
p1682
g56
sVPYInitial
p1683
VYS
p1684
sVRemarkName
p1685
V\u5b89\u7406-\u4e8e\u51b2
p1686
sVIsOwner
p1687
I0
sVSex
p1688
I1
sVStarFriend
p1689
I0
sVHideInputBarFlag
p1690
I0
sVChatRoomId
p1691
I0
sVEncryChatRoomId
p1692
g56
sVAttrStatus
p1693
I110693
sVStatues
p1694
I0
stp1695
Rp1696
I1
bag34
(g38
g39
(dp1697
VUserName
p1698
V@42834d82323c4f340e24a32d6e5991595cc82af595eed559fdb87ad91359c4ff
p1699
sVCity
p1700
V\u79e6\u7687\u5c9b
p1701
sVSnsFlag
p1702
I17
sVDisplayName
p1703
g56
sVUniFriend
p1704
I0
sVMemberCount
p1705
I0
sVOwnerUin
p1706
I0
sVMemberList
p1707
g52
sVAlias
p1708
g56
sVPYQuanPin
p1709
Vwangshilei
p1710
sVSignature
p1711
V\u4f60\u731c
p1712
sVRemarkPYInitial
p1713
VWZWSLSJWJ
p1714
sVContactFlag
p1715
I3
sVUin
p1716
I0
sVNickName
p1717
V\u738b\u77f3\u78ca
p1718
sVAppAccountFlag
p1719
I0
sVVerifyFlag
p1720
I0
sVRemarkPYQuanPin
p1721
Vwuzhongwangshileishujuwajue
p1722
sVHeadImgUrl
p1723
V/cgi-bin/mmwebwx-bin/webwxgeticon?seq=662753192&username=@42834d82323c4f340e24a32d6e5991595cc82af595eed559fdb87ad91359c4ff&skey=@crypt_9c3dea4c_60ecfb2e75ead15f0cee966311a887cd
p1724
sVKeyWord
p1725
g56
sVProvince
p1726
V\u6cb3\u5317
p1727
sVPYInitial
p1728
VWSL
p1729
sVRemarkName
p1730
V\u6b66\u4e2d-\u738b\u77f3\u78ca-\u6570\u636e\u6316\u6398
p1731
sVIsOwner
p1732
I0
sVSex
p1733
I1
sVStarFriend
p1734
I0
sVHideInputBarFlag
p1735
I0
sVChatRoomId
p1736
I0
sVEncryChatRoomId
p1737
g56
sVAttrStatus
p1738
I102949
sVStatues
p1739
I0
stp1740
Rp1741
I1
bag34
(g38
g39
(dp1742
VUserName
p1743
V@ec691474ae73e167c7febb66a04392bd
p1744
sVCity
p1745
V\u6ca7\u5dde
p1746
sVSnsFlag
p1747
I49
sVDisplayName
p1748
g56
sVUniFriend
p1749
I0
sVMemberCount
p1750
I0
sVOwnerUin
p1751
I0
sVMemberList
p1752
g52
sVAlias
p1753
g56
sVPYQuanPin
p1754
Vzhangxiwang
p1755
sVSignature
p1756
V\u54c8\u54c8\u54c8\u54c8
p1757
sVRemarkPYInitial
p1758
VXYZXWJJ
p1759
sVContactFlag
p1760
I3
sVUin
p1761
I0
sVNickName
p1762
V\u5f20\u5e0c\u671b
p1763
sVAppAccountFlag
p1764
I0
sVVerifyFlag
p1765
I0
sVRemarkPYQuanPin
p1766
Vxiuyuanzhangxiwangjijian
p1767
sVHeadImgUrl
p1768
V/cgi-bin/mmwebwx-bin/webwxgeticon?seq=662719291&username=@ec691474ae73e167c7febb66a04392bd&skey=@crypt_9c3dea4c_60ecfb2e75ead15f0cee966311a887cd
p1769
sVKeyWord
p1770
Vzha
p1771
sVProvince
p1772
V\u6cb3\u5317
p1773
sVPYInitial
p1774
VZXW
p1775
sVRemarkName
p1776
V\u4fee\u9662-\u5f20\u5e0c\u671b-\u57fa\u5efa
p1777
sVIsOwner
p1778
I0
sVSex
p1779
I1
sVStarFriend
p1780
I0
sVHideInputBarFlag
p1781
I0
sVChatRoomId
p1782
I0
sVEncryChatRoomId
p1783
g56
sVAttrStatus
p1784
I102435
sVStatues
p1785
I0
stp1786
Rp1787
I1
bag34
(g38
g39
(dp1788
VUserName
p1789
V@554ffed6ac348130d3990594a8cc5db401919c4aad08a4805fb584473b89a9c7
p1790
sVCity
p1791
VLos Angeles
p1792
sVSnsFlag
p1793
I177
sVDisplayName
p1794
g56
sVUniFriend
p1795
I0
sVMemberCount
p1796
I0
sVOwnerUin
p1797
I0
sVMemberList
p1798
g52
sVAlias
p1799
g56
sVPYQuanPin
p1800
VMagicD
p1801
sVSignature
p1802
V<span class="emoji emoji1f64f"></span><span class="emoji emoji1f64f"></span><span class="emoji emoji1f64f"></span>
p1803
sVRemarkPYInitial
p1804
VALBDRLX
p1805
sVContactFlag
p1806
I3
sVUin
p1807
I0
sVNickName
p1808
VMagic. D
p1809
sVAppAccountFlag
p1810
I0
sVVerifyFlag
p1811
I0
sVRemarkPYQuanPin
p1812
Vanlibaidianrangliuxue
p1813
sVHeadImgUrl
p1814
V/cgi-bin/mmwebwx-bin/webwxgeticon?seq=662714444&username=@554ffed6ac348130d3990594a8cc5db401919c4aad08a4805fb584473b89a9c7&skey=@crypt_9c3dea4c_60ecfb2e75ead15f0cee966311a887cd
p1815
sVKeyWord
p1816
g56
sVProvince
p1817
VCalifornia
p1818
sVPYInitial
p1819
VMAGICD
p1820
sVRemarkName
p1821
V\u5b89\u7406-\u767d\u5178\u8ba9-\u7559\u5b66
p1822
sVIsOwner
p1823
I0
sVSex
p1824
I2
sVStarFriend
p1825
I0
sVHideInputBarFlag
p1826
I0
sVChatRoomId
p1827
I0
sVEncryChatRoomId
p1828
g56
sVAttrStatus
p1829
I4296309
sVStatues
p1830
I0
stp1831
Rp1832
I1
bag34
(g38
g39
(dp1833
VUserName
p1834
V@340aa1294f14ce1d63d6507a4f9277bd
p1835
sVCity
p1836
V\u901a\u5dde
p1837
sVSnsFlag
p1838
I17
sVDisplayName
p1839
g56
sVUniFriend
p1840
I0
sVMemberCount
p1841
I0
sVOwnerUin
p1842
I0
sVMemberList
p1843
g52
sVAlias
p1844
g56
sVPYQuanPin
p1845
Vtianyi
p1846
sVSignature
p1847
V\u770b\u522b\u4eba\u4e0d\u987a\u773c\uff0c\u662f\u81ea\u5df1\u7684\u4fee\u517b\u4e0d\u591f
p1848
sVRemarkPYInitial
p1849
VXYWTY
p1850
sVContactFlag
p1851
I3
sVUin
p1852
I0
sVNickName
p1853
V\u5929\u4e00
p1854
sVAppAccountFlag
p1855
I0
sVVerifyFlag
p1856
I0
sVRemarkPYQuanPin
p1857
Vxiuyuanwangtianyi
p1858
sVHeadImgUrl
p1859
V/cgi-bin/mmwebwx-bin/webwxgeticon?seq=662762469&username=@340aa1294f14ce1d63d6507a4f9277bd&skey=@crypt_9c3dea4c_60ecfb2e75ead15f0cee966311a887cd
p1860
sVKeyWord
p1861
Vtia
p1862
sVProvince
p1863
V\u5317\u4eac
p1864
sVPYInitial
p1865
VTY
p1866
sVRemarkName
p1867
V\u4fee\u9662-\u738b\u5929\u4e00
p1868
sVIsOwner
p1869
I0
sVSex
p1870
I1
sVStarFriend
p1871
I0
sVHideInputBarFlag
p1872
I0
sVChatRoomId
p1873
I0
sVEncryChatRoomId
p1874
g56
sVAttrStatus
p1875
I12415
sVStatues
p1876
I0
stp1877
Rp1878
I1
bag34
(g38
g39
(dp1879
VUserName
p1880
V@5ffc8ce89c4ab4f860189150d25601d94edc7fd3e3889b7bab75ac1da9167772
p1881
sVCity
p1882
V\u6e29\u5dde
p1883
sVSnsFlag
p1884
I17
sVDisplayName
p1885
g56
sVUniFriend
p1886
I0
sVMemberCount
p1887
I0
sVOwnerUin
p1888
I0
sVMemberList
p1889
g52
sVAlias
p1890
g56
sVPYQuanPin
p1891
VRealyore
p1892
sVSignature
p1893
VWe sat and drank with the sun on our shoulders
p1894
sVRemarkPYInitial
p1895
VMTGRY3DMX
p1896
sVContactFlag
p1897
I3
sVUin
p1898
I0
sVNickName
p1899
VReal yore
p1900
sVAppAccountFlag
p1901
I0
sVVerifyFlag
p1902
I0
sVRemarkPYQuanPin
p1903
Vmaitiangaoruiyao3Dmoxing
p1904
sVHeadImgUrl
p1905
V/cgi-bin/mmwebwx-bin/webwxgeticon?seq=662762473&username=@5ffc8ce89c4ab4f860189150d25601d94edc7fd3e3889b7bab75ac1da9167772&skey=@crypt_9c3dea4c_60ecfb2e75ead15f0cee966311a887cd
p1906
sVKeyWord
p1907
g56
sVProvince
p1908
V\u6d59\u6c5f
p1909
sVPYInitial
p1910
VREALYORE
p1911
sVRemarkName
p1912
V\u9ea6\u7530-\u9ad8\u745e\u7476-3D\u6a21\u578b
p1913
sVIsOwner
p1914
I0
sVSex
p1915
I1
sVStarFriend
p1916
I0
sVHideInputBarFlag
p1917
I0
sVChatRoomId
p1918
I0
sVEncryChatRoomId
p1919
g56
sVAttrStatus
p1920
I33558951
sVStatues
p1921
I0
stp1922
Rp1923
I1
bag34
(g38
g39
(dp1924
VUserName
p1925
V@3dee3475af1cb44aa75d159103b4887852a0c351c210f4f7d1ac0d11e233dba8
p1926
sVCity
p1927
V\u8861\u6c34
p1928
sVSnsFlag
p1929
I1
sVDisplayName
p1930
g56
sVUniFriend
p1931
I0
sVMemberCount
p1932
I0
sVOwnerUin
p1933
I0
sVMemberList
p1934
g52
sVAlias
p1935
g56
sVPYQuanPin
p1936
Vaizhichengshang
p1937
sVSignature
p1938
V\u6ca1\u6709\u6700\u597d\u7684\uff0c\u53ea\u6709\u66f4\u597d\u7684\uff01
p1939
sVRemarkPYInitial
p1940
VXYLXY
p1941
sVContactFlag
p1942
I3
sVUin
p1943
I0
sVNickName
p1944
V\u7231\u81f3\u6210\u4f24
p1945
sVAppAccountFlag
p1946
I0
sVVerifyFlag
p1947
I0
sVRemarkPYQuanPin
p1948
Vxiuyuanliuxueyang
p1949
sVHeadImgUrl
p1950
V/cgi-bin/mmwebwx-bin/webwxgeticon?seq=627100900&username=@3dee3475af1cb44aa75d159103b4887852a0c351c210f4f7d1ac0d11e233dba8&skey=@crypt_9c3dea4c_60ecfb2e75ead15f0cee966311a887cd
p1951
sVKeyWord
p1952
g56
sVProvince
p1953
V\u6cb3\u5317
p1954
sVPYInitial
p1955
VAZCS
p1956
sVRemarkName
p1957
V\u4fee\u9662-\u5218\u5b66\u9633
p1958
sVIsOwner
p1959
I0
sVSex
p1960
I1
sVStarFriend
p1961
I0
sVHideInputBarFlag
p1962
I0
sVChatRoomId
p1963
I0
sVEncryChatRoomId
p1964
g56
sVAttrStatus
p1965
I103037
sVStatues
p1966
I0
stp1967
Rp1968
I1
bag34
(g38
g39
(dp1969
VUserName
p1970
V@9a9ec75db7c73007a82e7312e39bf5ce701694d6bb2d5cd13bf0684cd24ac6df
p1971
sVCity
p1972
V\u5357\u901a
p1973
sVSnsFlag
p1974
I17
sVDisplayName
p1975
g56
sVUniFriend
p1976
I0
sVMemberCount
p1977
I0
sVOwnerUin
p1978
I0
sVMemberList
p1979
g52
sVAlias
p1980
g56
sVPYQuanPin
p1981
Vspanclassemojiemoji1f33espanwuyuanyuanspanclassemojiemoji1f490span
p1982
sVSignature
p1983
V\u53ef\u53ef\u9999\u5948\u513f
p1984
sVRemarkPYInitial
p1985
VALWYYSK
p1986
sVContactFlag
p1987
I3
sVUin
p1988
I0
sVNickName
p1989
V\U0001f33e \u5434\u5a9b\u5a9b\U0001f490
p1990
sVAppAccountFlag
p1991
I0
sVVerifyFlag
p1992
I0
sVRemarkPYQuanPin
p1993
Vanliwuyuanyuanshuke
p1994
sVHeadImgUrl
p1995
V/cgi-bin/mmwebwx-bin/webwxgeticon?seq=662765563&username=@9a9ec75db7c73007a82e7312e39bf5ce701694d6bb2d5cd13bf0684cd24ac6df&skey=@crypt_9c3dea4c_60ecfb2e75ead15f0cee966311a887cd
p1996
sVKeyWord
p1997
g56
sVProvince
p1998
V\u6c5f\u82cf
p1999
sVPYInitial
p2000
VSPANCLASSEMOJIEMOJI1F33ESPANWYYSPANCLASSEMOJIEMOJI1F490SPAN
p2001
sVRemarkName
p2002
V\u5b89\u7406-\u5434\u5a9b\u5a9b-\u8212\u5ba2
p2003
sVIsOwner
p2004
I0
sVSex
p2005
I2
sVStarFriend
p2006
I0
sVHideInputBarFlag
p2007
I0
sVChatRoomId
p2008
I0
sVEncryChatRoomId
p2009
g56
sVAttrStatus
p2010
I33656869
sVStatues
p2011
I0
stp2012
Rp2013
I1
bag34
(g38
g39
(dp2014
VUserName
p2015
V@cfa72a04cee92d025b9abeb01a4e2414e6747f0227710931c2850059ccf797e0
p2016
sVCity
p2017
V\u4e34\u6c82
p2018
sVSnsFlag
p2019
I1
sVDisplayName
p2020
g56
sVUniFriend
p2021
I0
sVMemberCount
p2022
I0
sVOwnerUin
p2023
I0
sVMemberList
p2024
g52
sVAlias
p2025
g56
sVPYQuanPin
p2026
Vhuayidianqi13173092903
p2027
sVSignature
p2028
V\u845b\u7eea\u73cd
p2029
sVRemarkPYInitial
p2030
VLYGGLHMM
p2031
sVContactFlag
p2032
I3
sVUin
p2033
I0
sVNickName
p2034
V\u534e\u4ebf\u7535\u566813173092903
p2035
sVAppAccountFlag
p2036
I0
sVVerifyFlag
p2037
I0
sVRemarkPYQuanPin
p2038
Vlinyigegulihaomama
p2039
sVHeadImgUrl
p2040
V/cgi-bin/mmwebwx-bin/webwxgeticon?seq=662764245&username=@cfa72a04cee92d025b9abeb01a4e2414e6747f0227710931c2850059ccf797e0&skey=@crypt_9c3dea4c_60ecfb2e75ead15f0cee966311a887cd
p2041
sVKeyWord
p2042
g56
sVProvince
p2043
V\u5c71\u4e1c
p2044
sVPYInitial
p2045
VHYDQ13173092903
p2046
sVRemarkName
p2047
V\u4e34\u6c82-\u845b\u59d1-\u674e\u8c6a\u5988\u5988
p2048
sVIsOwner
p2049
I0
sVSex
p2050
I2
sVStarFriend
p2051
I0
sVHideInputBarFlag
p2052
I0
sVChatRoomId
p2053
I0
sVEncryChatRoomId
p2054
g56
sVAttrStatus
p2055
I135173
sVStatues
p2056
I0
stp2057
Rp2058
I1
bag34
(g38
g39
(dp2059
VUserName
p2060
V@44b0fd0b03e40db03ea097dafded42a4
p2061
sVCity
p2062
V\u8861\u6c34
p2063
sVSnsFlag
p2064
I1
sVDisplayName
p2065
g56
sVUniFriend
p2066
I0
sVMemberCount
p2067
I0
sVOwnerUin
p2068
I0
sVMemberList
p2069
g52
sVAlias
p2070
g56
sVPYQuanPin
p2071
Vxingfuyijia
p2072
sVSignature
p2073
V\u8d70\u81ea\u5df1\u7684\u8def\u8ba9\u522b\u4eba\u8bf4\u53bb\u5427
p2074
sVRemarkPYInitial
p2075
VYTHYSL
p2076
sVContactFlag
p2077
I3
sVUin
p2078
I0
sVNickName
p2079
V\u5e78\u798f\u4e00\u5bb6
p2080
sVAppAccountFlag
p2081
I0
sVVerifyFlag
p2082
I0
sVRemarkPYQuanPin
p2083
Vyitianhaiyanshoulou
p2084
sVHeadImgUrl
p2085
V/cgi-bin/mmwebwx-bin/webwxgeticon?seq=662718400&username=@44b0fd0b03e40db03ea097dafded42a4&skey=@crypt_9c3dea4c_60ecfb2e75ead15f0cee966311a887cd
p2086
sVKeyWord
p2087
Vtia
p2088
sVProvince
p2089
V\u6cb3\u5317
p2090
sVPYInitial
p2091
VXFYJ
p2092
sVRemarkName
p2093
V\u4f0a-\u7530\u6d77\u71d5-\u552e\u697c
p2094
sVIsOwner
p2095
I0
sVSex
p2096
I2
sVStarFriend
p2097
I0
sVHideInputBarFlag
p2098
I0
sVChatRoomId
p2099
I0
sVEncryChatRoomId
p2100
g56
sVAttrStatus
p2101
I4735
sVStatues
p2102
I0
stp2103
Rp2104
I1
bag34
(g38
g39
(dp2105
VUserName
p2106
V@bf3a435858a3d12f55bd77ecdda974d05474ff9f395d6bf2550f6a8876047634
p2107
sVCity
p2108
V\u676d\u5dde
p2109
sVSnsFlag
p2110
I145
sVDisplayName
p2111
g56
sVUniFriend
p2112
I0
sVMemberCount
p2113
I0
sVOwnerUin
p2114
I0
sVMemberList
p2115
g52
sVAlias
p2116
g56
sVPYQuanPin
p2117
Vrenzhendelei
p2118
sVSignature
p2119
g56
sVRemarkPYInitial
p2120
VHSXRC
p2121
sVContactFlag
p2122
I3
sVUin
p2123
I0
sVNickName
p2124
V\u8ba4\u771f\u7684\u6cea
p2125
sVAppAccountFlag
p2126
I0
sVVerifyFlag
p2127
I0
sVRemarkPYQuanPin
p2128
VhangsuxiaoriC
p2129
sVHeadImgUrl
p2130
V/cgi-bin/mmwebwx-bin/webwxgeticon?seq=647560959&username=@bf3a435858a3d12f55bd77ecdda974d05474ff9f395d6bf2550f6a8876047634&skey=@crypt_9c3dea4c_60ecfb2e75ead15f0cee966311a887cd
p2131
sVKeyWord
p2132
g56
sVProvince
p2133
V\u6d59\u6c5f
p2134
sVPYInitial
p2135
VRZDL
p2136
sVRemarkName
p2137
V\u676d-\u82cf\u5c0f\u65e5-C++
p2138
sVIsOwner
p2139
I0
sVSex
p2140
I1
sVStarFriend
p2141
I0
sVHideInputBarFlag
p2142
I0
sVChatRoomId
p2143
I0
sVEncryChatRoomId
p2144
g56
sVAttrStatus
p2145
I112741
sVStatues
p2146
I0
stp2147
Rp2148
I1
bag34
(g38
g39
(dp2149
VUserName
p2150
V@f3d4aa707deab0cf7d904d6a9b52e11793c01898606ce00798d161956f88a94d
p2151
sVCity
p2152
V\u671d\u9633
p2153
sVSnsFlag
p2154
I17
sVDisplayName
p2155
g56
sVUniFriend
p2156
I0
sVMemberCount
p2157
I0
sVOwnerUin
p2158
I0
sVMemberList
p2159
g52
sVAlias
p2160
g56
sVPYQuanPin
p2161
Vwanlinggu
p2162
sVSignature
p2163
V\u4e0a\u4e2a\u5c0f\u73ed\u513f\uff0c\u6323\u4e2a\u5c0f\u94b1\u513f
p2164
sVRemarkPYInitial
p2165
VBJSQM
p2166
sVContactFlag
p2167
I3
sVUin
p2168
I0
sVNickName
p2169
V\u665a\u7075\u8c37
p2170
sVAppAccountFlag
p2171
I0
sVVerifyFlag
p2172
I0
sVRemarkPYQuanPin
p2173
Vbeijingshangqiaomei
p2174
sVHeadImgUrl
p2175
V/cgi-bin/mmwebwx-bin/webwxgeticon?seq=662701595&username=@f3d4aa707deab0cf7d904d6a9b52e11793c01898606ce00798d161956f88a94d&skey=@crypt_9c3dea4c_60ecfb2e75ead15f0cee966311a887cd
p2176
sVKeyWord
p2177
g56
sVProvince
p2178
V\u5317\u4eac
p2179
sVPYInitial
p2180
VWLG
p2181
sVRemarkName
p2182
V\u5317\u4eac-\u5c1a\u5de7\u59b9-
p2183
sVIsOwner
p2184
I0
sVSex
p2185
I2
sVStarFriend
p2186
I0
sVHideInputBarFlag
p2187
I0
sVChatRoomId
p2188
I0
sVEncryChatRoomId
p2189
g56
sVAttrStatus
p2190
I102439
sVStatues
p2191
I0
stp2192
Rp2193
I1
bag34
(g38
g39
(dp2194
VUserName
p2195
V@61efed277ec48c62d1cd7874ebb20a3bb858d5519dcea54e01bcc66e3bf8ba3e
p2196
sVCity
p2197
V\u5408\u80a5
p2198
sVSnsFlag
p2199
I17
sVDisplayName
p2200
g56
sVUniFriend
p2201
I0
sVMemberCount
p2202
I0
sVOwnerUin
p2203
I0
sVMemberList
p2204
g52
sVAlias
p2205
g56
sVPYQuanPin
p2206
Vlingxiner
p2207
sVSignature
p2208
V\u6709\u6240\u51fa\u624d\u6709\u6240\u5f97\uff0ccome on!!!
p2209
sVRemarkPYInitial
p2210
VALCF
p2211
sVContactFlag
p2212
I3
sVUin
p2213
I0
sVNickName
p2214
V\u51cc\u99a8\u513f
p2215
sVAppAccountFlag
p2216
I0
sVVerifyFlag
p2217
I0
sVRemarkPYQuanPin
p2218
Vanlichenfei
p2219
sVHeadImgUrl
p2220
V/cgi-bin/mmwebwx-bin/webwxgeticon?seq=662739904&username=@61efed277ec48c62d1cd7874ebb20a3bb858d5519dcea54e01bcc66e3bf8ba3e&skey=@crypt_9c3dea4c_60ecfb2e75ead15f0cee966311a887cd
p2221
sVKeyWord
p2222
g56
sVProvince
p2223
V\u5b89\u5fbd
p2224
sVPYInitial
p2225
VLXE
p2226
sVRemarkName
p2227
V\u5b89\u7406-\u9648\u83f2
p2228
sVIsOwner
p2229
I0
sVSex
p2230
I2
sVStarFriend
p2231
I0
sVHideInputBarFlag
p2232
I0
sVChatRoomId
p2233
I0
sVEncryChatRoomId
p2234
g56
sVAttrStatus
p2235
I102501
sVStatues
p2236
I0
stp2237
Rp2238
I1
bag34
(g38
g39
(dp2239
VUserName
p2240
V@87b6d1f07ac6840ede534f95503db6eddc3df95db8975c2b46dbd263be77fbd4
p2241
sVCity
p2242
V\u676d\u5dde
p2243
sVSnsFlag
p2244
I49
sVDisplayName
p2245
g56
sVUniFriend
p2246
I0
sVMemberCount
p2247
I0
sVOwnerUin
p2248
I0
sVMemberList
p2249
g52
sVAlias
p2250
g56
sVPYQuanPin
p2251
VMIKEY3D
p2252
sVSignature
p2253
VWhat goes around comes around 
p2254
sVRemarkPYInitial
p2255
VMTMIKEYYL
p2256
sVContactFlag
p2257
I1
sVUin
p2258
I0
sVNickName
p2259
VM I K E Y 3 D
p2260
sVAppAccountFlag
p2261
I0
sVVerifyFlag
p2262
I0
sVRemarkPYQuanPin
p2263
Vmaitianmikeyyilang
p2264
sVHeadImgUrl
p2265
V/cgi-bin/mmwebwx-bin/webwxgeticon?seq=662760269&username=@87b6d1f07ac6840ede534f95503db6eddc3df95db8975c2b46dbd263be77fbd4&skey=@crypt_9c3dea4c_60ecfb2e75ead15f0cee966311a887cd
p2266
sVKeyWord
p2267
g56
sVProvince
p2268
V\u6d59\u6c5f
p2269
sVPYInitial
p2270
VMIKEY3D
p2271
sVRemarkName
p2272
V\u9ea6\u7530-mikey-\u4f0a\u6717
p2273
sVIsOwner
p2274
I0
sVSex
p2275
I1
sVStarFriend
p2276
I0
sVHideInputBarFlag
p2277
I0
sVChatRoomId
p2278
I0
sVEncryChatRoomId
p2279
g56
sVAttrStatus
p2280
I37851751
sVStatues
p2281
I0
stp2282
Rp2283
I1
bag34
(g38
g39
(dp2284
VUserName
p2285
V@df0301d142faee57ea9694f7cbb17d83
p2286
sVCity
p2287
V\u6e29\u5dde
p2288
sVSnsFlag
p2289
I17
sVDisplayName
p2290
g56
sVUniFriend
p2291
I0
sVMemberCount
p2292
I0
sVOwnerUin
p2293
I0
sVMemberList
p2294
g52
sVAlias
p2295
g56
sVPYQuanPin
p2296
Vwuti
p2297
sVSignature
p2298
V\u7eb5\u6709\u75be\u98ce\u8d77\uff0c\u4eba\u751f\u4e0d\u8a00\u5f03
p2299
sVRemarkPYInitial
p2300
VMTWGMDN
p2301
sVContactFlag
p2302
I1
sVUin
p2303
I0
sVNickName
p2304
V\u5434\u9898
p2305
sVAppAccountFlag
p2306
I0
sVVerifyFlag
p2307
I0
sVRemarkPYQuanPin
p2308
Vmaitianwuguangmandaniu
p2309
sVHeadImgUrl
p2310
V/cgi-bin/mmwebwx-bin/webwxgeticon?seq=633050519&username=@df0301d142faee57ea9694f7cbb17d83&skey=@crypt_9c3dea4c_60ecfb2e75ead15f0cee966311a887cd
p2311
sVKeyWord
p2312
Veti
p2313
sVProvince
p2314
V\u6d59\u6c5f
p2315
sVPYInitial
p2316
VWT
p2317
sVRemarkName
p2318
V\u9ea6\u7530-\u5434\u5149\u6ee1-\u5927\u725b
p2319
sVIsOwner
p2320
I0
sVSex
p2321
I1
sVStarFriend
p2322
I0
sVHideInputBarFlag
p2323
I0
sVChatRoomId
p2324
I0
sVEncryChatRoomId
p2325
g56
sVAttrStatus
p2326
I118183
sVStatues
p2327
I0
stp2328
Rp2329
I1
bag34
(g38
g39
(dp2330
VUserName
p2331
V@77405d2632e47958c7529d02f7633b5e0ab9a299cd2dc1c932ed854346c54593
p2332
sVCity
p2333
V\u671d\u9633
p2334
sVSnsFlag
p2335
I17
sVDisplayName
p2336
g56
sVUniFriend
p2337
I0
sVMemberCount
p2338
I0
sVOwnerUin
p2339
I0
sVMemberList
p2340
g52
sVAlias
p2341
g56
sVPYQuanPin
p2342
Vzhangwenjie
p2343
sVSignature
p2344
V\u60c5\u4e0d\u77e5\u6240\u8d77 \u4e00\u5f80\u800c\u6df1 18611551264
p2345
sVRemarkPYInitial
p2346
VBHZWJ06
p2347
sVContactFlag
p2348
I3
sVUin
p2349
I0
sVNickName
p2350
V\u5f20\u6587\u6770
p2351
sVAppAccountFlag
p2352
I0
sVVerifyFlag
p2353
I0
sVRemarkPYQuanPin
p2354
Vbinhezhangwenjie06
p2355
sVHeadImgUrl
p2356
V/cgi-bin/mmwebwx-bin/webwxgeticon?seq=662768312&username=@77405d2632e47958c7529d02f7633b5e0ab9a299cd2dc1c932ed854346c54593&skey=@crypt_9c3dea4c_60ecfb2e75ead15f0cee966311a887cd
p2357
sVKeyWord
p2358
Vzha
p2359
sVProvince
p2360
V\u5317\u4eac
p2361
sVPYInitial
p2362
VZWJ
p2363
sVRemarkName
p2364
V\u6ee8\u6cb3-\u5f20\u6587\u6770-06
p2365
sVIsOwner
p2366
I0
sVSex
p2367
I1
sVStarFriend
p2368
I0
sVHideInputBarFlag
p2369
I0
sVChatRoomId
p2370
I0
sVEncryChatRoomId
p2371
g56
sVAttrStatus
p2372
I4199
sVStatues
p2373
I0
stp2374
Rp2375
I1
bag34
(g38
g39
(dp2376
VUserName
p2377
V@cacb7831243d040f3047798d51ce115c
p2378
sVCity
p2379
V\u6d77\u6dc0
p2380
sVSnsFlag
p2381
I17
sVDisplayName
p2382
g56
sVUniFriend
p2383
I0
sVMemberCount
p2384
I0
sVOwnerUin
p2385
I0
sVMemberList
p2386
g52
sVAlias
p2387
g56
sVPYQuanPin
p2388
Vmiaoqimiao
p2389
sVSignature
p2390
V\u5fc3\u6709\u731b\u864e\uff0c\u7ec6\u55c5\u8537\u8587
p2391
sVRemarkPYInitial
p2392
VRRZTMXM
p2393
sVContactFlag
p2394
I3
sVUin
p2395
I0
sVNickName
p2396
V\u55b5\u4e03\u79d2
p2397
sVAppAccountFlag
p2398
I0
sVVerifyFlag
p2399
I0
sVRemarkPYQuanPin
p2400
Vrenrenzhaotianmengxiangmu
p2401
sVHeadImgUrl
p2402
V/cgi-bin/mmwebwx-bin/webwxgeticon?seq=662769365&username=@cacb7831243d040f3047798d51ce115c&skey=@crypt_9c3dea4c_60ecfb2e75ead15f0cee966311a887cd
p2403
sVKeyWord
p2404
Vshe
p2405
sVProvince
p2406
V\u5317\u4eac
p2407
sVPYInitial
p2408
VMQM
p2409
sVRemarkName
p2410
V\u4eba\u4eba-\u8d75\u5929\u68a6-\u9879\u76ee
p2411
sVIsOwner
p2412
I0
sVSex
p2413
I2
sVStarFriend
p2414
I0
sVHideInputBarFlag
p2415
I0
sVChatRoomId
p2416
I0
sVEncryChatRoomId
p2417
g56
sVAttrStatus
p2418
I101503
sVStatues
p2419
I0
stp2420
Rp2421
I1
bag34
(g38
g39
(dp2422
VUserName
p2423
V@2bc6d425c203d48a06f4a18fbcd66e4f
p2424
sVCity
p2425
V\u897f\u57ce
p2426
sVSnsFlag
p2427
I17
sVDisplayName
p2428
g56
sVUniFriend
p2429
I0
sVMemberCount
p2430
I0
sVOwnerUin
p2431
I0
sVMemberList
p2432
g52
sVAlias
p2433
g56
sVPYQuanPin
p2434
V???????????????
p2435
sVSignature
p2436
V\u60ef\u7740\u6211\u7684\u4eba\u624d\u6709\u8d44\u683c\u7ba1\u6211
p2437
sVRemarkPYInitial
p2438
VRRWYSSJ
p2439
sVContactFlag
p2440
I3
sVUin
p2441
I0
sVNickName
p2442
V\u0f04\u0f05\u0f02\u0f07\u2081\u2085\u2088\u2080\u2081\u2083\u2080\u2082\u2088\u2088\u2080
p2443
sVAppAccountFlag
p2444
I0
sVVerifyFlag
p2445
I0
sVRemarkPYQuanPin
p2446
Vrenrenwuyashusheji
p2447
sVHeadImgUrl
p2448
V/cgi-bin/mmwebwx-bin/webwxgeticon?seq=662769395&username=@2bc6d425c203d48a06f4a18fbcd66e4f&skey=@crypt_9c3dea4c_60ecfb2e75ead15f0cee966311a887cd
p2449
sVKeyWord
p2450
Vwuy
p2451
sVProvince
p2452
V\u5317\u4eac
p2453
sVPYInitial
p2454
V???????????????
p2455
sVRemarkName
p2456
V\u4eba\u4eba-\u6b66\u96c5\u59dd-\u8bbe\u8ba1
p2457
sVIsOwner
p2458
I0
sVSex
p2459
I2
sVStarFriend
p2460
I0
sVHideInputBarFlag
p2461
I0
sVChatRoomId
p2462
I0
sVEncryChatRoomId
p2463
g56
sVAttrStatus
p2464
I2147588287
sVStatues
p2465
I0
stp2466
Rp2467
I1
bag34
(g38
g39
(dp2468
VUserName
p2469
V@d9ede3a51bd75d3c9bce34ad90af41c273165542f892f9b99aa6250eb6b819db
p2470
sVCity
p2471
g56
sVSnsFlag
p2472
I17
sVDisplayName
p2473
g56
sVUniFriend
p2474
I0
sVMemberCount
p2475
I0
sVOwnerUin
p2476
I0
sVMemberList
p2477
g52
sVAlias
p2478
g56
sVPYQuanPin
p2479
Vyuanlairuci17090045019
p2480
sVSignature
p2481
V\u541b\u5b50\u4ee5\u8bda\u4e3a\u672c\uff0c\u4e8b\u4e1a\u56e0\u4fe1\u800c\u76db\u3002
p2482
sVRemarkPYInitial
p2483
VBHJYMDZYFFD
p2484
sVContactFlag
p2485
I3
sVUin
p2486
I0
sVNickName
p2487
V\u7f18\u6765\u5982\u6b6417090045019
p2488
sVAppAccountFlag
p2489
I0
sVVerifyFlag
p2490
I0
sVRemarkPYQuanPin
p2491
Vbinhejiayuemeidezhangyunfengfangdong
p2492
sVHeadImgUrl
p2493
V/cgi-bin/mmwebwx-bin/webwxgeticon?seq=662767042&username=@d9ede3a51bd75d3c9bce34ad90af41c273165542f892f9b99aa6250eb6b819db&skey=@crypt_9c3dea4c_60ecfb2e75ead15f0cee966311a887cd
p2494
sVKeyWord
p2495
g56
sVProvince
p2496
g56
sVPYInitial
p2497
VYLRC17090045019
p2498
sVRemarkName
p2499
V\u6ee8\u6cb3-\u5bb6\u4e50\u7f8e\u5730-\u5f20\u4e91\u5cf0-\u623f\u4e1c
p2500
sVIsOwner
p2501
I0
sVSex
p2502
I1
sVStarFriend
p2503
I0
sVHideInputBarFlag
p2504
I0
sVChatRoomId
p2505
I0
sVEncryChatRoomId
p2506
g56
sVAttrStatus
p2507
I36965
sVStatues
p2508
I0
stp2509
Rp2510
I1
bag34
(g38
g39
(dp2511
VUserName
p2512
V@ada7a22442c51774cd29e6f5daa5347b3ea2040dac7d55c99e200d1d05345676
p2513
sVCity
p2514
V\u8861\u6c34
p2515
sVSnsFlag
p2516
I17
sVDisplayName
p2517
g56
sVUniFriend
p2518
I0
sVMemberCount
p2519
I0
sVOwnerUin
p2520
I0
sVMemberList
p2521
g52
sVAlias
p2522
g56
sVPYQuanPin
p2523
Vsmile
p2524
sVSignature
p2525
g56
sVRemarkPYInitial
p2526
VYZWXHSBJ
p2527
sVContactFlag
p2528
I3
sVUin
p2529
I0
sVNickName
p2530
Vsmile
p2531
sVAppAccountFlag
p2532
I0
sVVerifyFlag
p2533
I0
sVRemarkPYQuanPin
p2534
Vyizhangweixiaohushibeijing
p2535
sVHeadImgUrl
p2536
V/cgi-bin/mmwebwx-bin/webwxgeticon?seq=625630533&username=@ada7a22442c51774cd29e6f5daa5347b3ea2040dac7d55c99e200d1d05345676&skey=@crypt_9c3dea4c_60ecfb2e75ead15f0cee966311a887cd
p2537
sVKeyWord
p2538
g56
sVProvince
p2539
V\u6cb3\u5317
p2540
sVPYInitial
p2541
VSMILE
p2542
sVRemarkName
p2543
V\u4f0a-\u5f20\u7ef4\u6653-\u62a4\u58eb-\u5317\u4eac
p2544
sVIsOwner
p2545
I0
sVSex
p2546
I2
sVStarFriend
p2547
I0
sVHideInputBarFlag
p2548
I0
sVChatRoomId
p2549
I0
sVEncryChatRoomId
p2550
g56
sVAttrStatus
p2551
I106341
sVStatues
p2552
I0
stp2553
Rp2554
I1
bag34
(g38
g39
(dp2555
VUserName
p2556
V@f4f552a5870efe4709f8ffb3bdc4ad6f
p2557
sVCity
p2558
V\u6e29\u5dde
p2559
sVSnsFlag
p2560
I49
sVDisplayName
p2561
g56
sVUniFriend
p2562
I0
sVMemberCount
p2563
I0
sVOwnerUin
p2564
I0
sVMemberList
p2565
g52
sVAlias
p2566
g56
sVPYQuanPin
p2567
Vwuzhe
p2568
sVSignature
p2569
V\u6ca1\u6709\u4ec0\u4e48\u9053\u8def\u53ef\u4ee5\u901a\u5411\u771f\u8bda\uff0c\u771f\u8bda\u672c\u8eab\u5c31\u662f\u9053\u8def\uff01
p2570
sVRemarkPYInitial
p2571
VMTWZCYZ
p2572
sVContactFlag
p2573
I3
sVUin
p2574
I0
sVNickName
p2575
V\u5434\u54f2
p2576
sVAppAccountFlag
p2577
I0
sVVerifyFlag
p2578
I0
sVRemarkPYQuanPin
p2579
Vmaitianwuzhechuangyezhe
p2580
sVHeadImgUrl
p2581
V/cgi-bin/mmwebwx-bin/webwxgeticon?seq=647549344&username=@f4f552a5870efe4709f8ffb3bdc4ad6f&skey=@crypt_9c3dea4c_60ecfb2e75ead15f0cee966311a887cd
p2582
sVKeyWord
p2583
Vkel
p2584
sVProvince
p2585
V\u6d59\u6c5f
p2586
sVPYInitial
p2587
VWZ
p2588
sVRemarkName
p2589
V\u9ea6\u7530-\u5434\u54f2-\u521b\u4e1a\u8005
p2590
sVIsOwner
p2591
I0
sVSex
p2592
I1
sVStarFriend
p2593
I0
sVHideInputBarFlag
p2594
I0
sVChatRoomId
p2595
I0
sVEncryChatRoomId
p2596
g56
sVAttrStatus
p2597
I4300903
sVStatues
p2598
I0
stp2599
Rp2600
I1
bag34
(g38
g39
(dp2601
VUserName
p2602
V@3810a807f00b0bcaad57e358d3284c0e
p2603
sVCity
p2604
V\u77f3\u5bb6\u5e84
p2605
sVSnsFlag
p2606
I17
sVDisplayName
p2607
g56
sVUniFriend
p2608
I0
sVMemberCount
p2609
I0
sVOwnerUin
p2610
I0
sVMemberList
p2611
g52
sVAlias
p2612
g56
sVPYQuanPin
p2613
Vyouweiqingnian
p2614
sVSignature
p2615
V\u65b0\u2022\u7f8e\u53d1\u7f8e\u7532\u6c99\u9f99 \u4e07\u8fbe\u4f4f\u5b85\u5c0f\u533aB2\u5357\u533a4-1-903 \u7535\u8bdd15200016579
p2616
sVRemarkPYInitial
p2617
VXYWFMFSJZ
p2618
sVContactFlag
p2619
I3
sVUin
p2620
I0
sVNickName
p2621
V\u6709\u4e3a\u9752\u5e74
p2622
sVAppAccountFlag
p2623
I0
sVVerifyFlag
p2624
I0
sVRemarkPYQuanPin
p2625
Vxiuyuanweifeimeifashijiazhuang
p2626
sVHeadImgUrl
p2627
V/cgi-bin/mmwebwx-bin/webwxgeticon?seq=662773845&username=@3810a807f00b0bcaad57e358d3284c0e&skey=@crypt_9c3dea4c_60ecfb2e75ead15f0cee966311a887cd
p2628
sVKeyWord
p2629
VFF6
p2630
sVProvince
p2631
V\u6cb3\u5317
p2632
sVPYInitial
p2633
VYWQN
p2634
sVRemarkName
p2635
V\u4fee\u9662-\u9b4f\u98de-\u7f8e\u53d1-\u77f3\u5bb6\u5e84
p2636
sVIsOwner
p2637
I0
sVSex
p2638
I1
sVStarFriend
p2639
I0
sVHideInputBarFlag
p2640
I0
sVChatRoomId
p2641
I0
sVEncryChatRoomId
p2642
g56
sVAttrStatus
p2643
I71783
sVStatues
p2644
I0
stp2645
Rp2646
I1
bag34
(g38
g39
(dp2647
VUserName
p2648
V@d665be9a0321b10adb19e5913e5642eac3b989bc26b8e3b37eb1ce941ff8e5ea
p2649
sVCity
p2650
V\u829c\u6e56
p2651
sVSnsFlag
p2652
I17
sVDisplayName
p2653
g56
sVUniFriend
p2654
I0
sVMemberCount
p2655
I0
sVOwnerUin
p2656
I0
sVMemberList
p2657
g52
sVAlias
p2658
g56
sVPYQuanPin
p2659
Vfeiyu
p2660
sVSignature
p2661
V15206127573
p2662
sVRemarkPYInitial
p2663
VALYZY
p2664
sVContactFlag
p2665
I3
sVUin
p2666
I0
sVNickName
p2667
V\u98de\u96e8
p2668
sVAppAccountFlag
p2669
I0
sVVerifyFlag
p2670
I0
sVRemarkPYQuanPin
p2671
Vanliyanzhenyu
p2672
sVHeadImgUrl
p2673
V/cgi-bin/mmwebwx-bin/webwxgeticon?seq=662715849&username=@d665be9a0321b10adb19e5913e5642eac3b989bc26b8e3b37eb1ce941ff8e5ea&skey=@crypt_9c3dea4c_60ecfb2e75ead15f0cee966311a887cd
p2674
sVKeyWord
p2675
g56
sVProvince
p2676
V\u5b89\u5fbd
p2677
sVPYInitial
p2678
VFY
p2679
sVRemarkName
p2680
V\u5b89\u7406-\u989c\u632f\u5b87
p2681
sVIsOwner
p2682
I0
sVSex
p2683
I1
sVStarFriend
p2684
I0
sVHideInputBarFlag
p2685
I0
sVChatRoomId
p2686
I0
sVEncryChatRoomId
p2687
g56
sVAttrStatus
p2688
I69733
sVStatues
p2689
I0
stp2690
Rp2691
I1
bag34
(g38
g39
(dp2692
VUserName
p2693
V@fab13bc1683bdb2e0dd0a18bc45073b8065fbbe1d2f3a252dbe54e793199be67
p2694
sVCity
p2695
V\u671d\u9633
p2696
sVSnsFlag
p2697
I49
sVDisplayName
p2698
g56
sVUniFriend
p2699
I0
sVMemberCount
p2700
I0
sVOwnerUin
p2701
I0
sVMemberList
p2702
g52
sVAlias
p2703
g56
sVPYQuanPin
p2704
VChris
p2705
sVSignature
p2706
g56
sVRemarkPYInitial
p2707
VBJCZHTSG
p2708
sVContactFlag
p2709
I3
sVUin
p2710
I0
sVNickName
p2711
VChris
p2712
sVAppAccountFlag
p2713
I0
sVVerifyFlag
p2714
I0
sVRemarkPYQuanPin
p2715
Vbeijingchenzhihaotushuguan
p2716
sVHeadImgUrl
p2717
V/cgi-bin/mmwebwx-bin/webwxgeticon?seq=662710144&username=@fab13bc1683bdb2e0dd0a18bc45073b8065fbbe1d2f3a252dbe54e793199be67&skey=@crypt_9c3dea4c_60ecfb2e75ead15f0cee966311a887cd
p2718
sVKeyWord
p2719
Vche
p2720
sVProvince
p2721
V\u5317\u4eac
p2722
sVPYInitial
p2723
VCHRIS
p2724
sVRemarkName
p2725
V\u5317\u4eac-\u9648\u5fd7\u6d69-\u56fe\u4e66\u9986
p2726
sVIsOwner
p2727
I0
sVSex
p2728
I1
sVStarFriend
p2729
I0
sVHideInputBarFlag
p2730
I0
sVChatRoomId
p2731
I0
sVEncryChatRoomId
p2732
g56
sVAttrStatus
p2733
I67213607
sVStatues
p2734
I0
stp2735
Rp2736
I1
bag34
(g38
g39
(dp2737
VUserName
p2738
V@3befb50bac4842755f1bff4f9296d8d0d35d493c87db8cc8404452dd4fee4041
p2739
sVCity
p2740
V\u9759\u6d77
p2741
sVSnsFlag
p2742
I49
sVDisplayName
p2743
g56
sVUniFriend
p2744
I0
sVMemberCount
p2745
I0
sVOwnerUin
p2746
I0
sVMemberList
p2747
g52
sVAlias
p2748
g56
sVPYQuanPin
p2749
Vxiaoxiaoyun
p2750
sVSignature
p2751
g56
sVRemarkPYInitial
p2752
VMTXSR
p2753
sVContactFlag
p2754
I1
sVUin
p2755
I0
sVNickName
p2756
V\u5c0f\u5c0f\u4e91
p2757
sVAppAccountFlag
p2758
I0
sVVerifyFlag
p2759
I0
sVRemarkPYQuanPin
p2760
Vmaitianxusairu
p2761
sVHeadImgUrl
p2762
V/cgi-bin/mmwebwx-bin/webwxgeticon?seq=662696620&username=@3befb50bac4842755f1bff4f9296d8d0d35d493c87db8cc8404452dd4fee4041&skey=@crypt_9c3dea4c_60ecfb2e75ead15f0cee966311a887cd
p2763
sVKeyWord
p2764
g56
sVProvince
p2765
V\u5929\u6d25
p2766
sVPYInitial
p2767
VXXY
p2768
sVRemarkName
p2769
V\u9ea6\u7530-\u8bb8\u601d\u6c5d
p2770
sVIsOwner
p2771
I0
sVSex
p2772
I2
sVStarFriend
p2773
I0
sVHideInputBarFlag
p2774
I0
sVChatRoomId
p2775
I0
sVEncryChatRoomId
p2776
g56
sVAttrStatus
p2777
I231461
sVStatues
p2778
I0
stp2779
Rp2780
I1
bag34
(g38
g39
(dp2781
VUserName
p2782
V@e148939a9ea5d3043ef7bed5577cc26ab26c247248c63c44fef55adeec49e877
p2783
sVCity
p2784
g56
sVSnsFlag
p2785
I1
sVDisplayName
p2786
g56
sVUniFriend
p2787
I0
sVMemberCount
p2788
I0
sVOwnerUin
p2789
I0
sVMemberList
p2790
g52
sVAlias
p2791
g56
sVPYQuanPin
p2792
VbeibeiBlair
p2793
sVSignature
p2794
g56
sVRemarkPYInitial
p2795
VALZBB
p2796
sVContactFlag
p2797
I3
sVUin
p2798
I0
sVNickName
p2799
V\u84d3\u84d3 Blair
p2800
sVAppAccountFlag
p2801
I0
sVVerifyFlag
p2802
I0
sVRemarkPYQuanPin
p2803
Vanlizhaobeibei
p2804
sVHeadImgUrl
p2805
V/cgi-bin/mmwebwx-bin/webwxgeticon?seq=662775851&username=@e148939a9ea5d3043ef7bed5577cc26ab26c247248c63c44fef55adeec49e877&skey=@crypt_9c3dea4c_60ecfb2e75ead15f0cee966311a887cd
p2806
sVKeyWord
p2807
g56
sVProvince
p2808
g56
sVPYInitial
p2809
VBBBLAIR
p2810
sVRemarkName
p2811
V\u5b89\u7406-\u8d75\u84d3\u84d3
p2812
sVIsOwner
p2813
I0
sVSex
p2814
I2
sVStarFriend
p2815
I0
sVHideInputBarFlag
p2816
I0
sVChatRoomId
p2817
I0
sVEncryChatRoomId
p2818
g56
sVAttrStatus
p2819
I103521
sVStatues
p2820
I0
stp2821
Rp2822
I1
bag34
(g38
g39
(dp2823
VUserName
p2824
V@017f5668fb97c7696224d581eeaf2f7c
p2825
sVCity
p2826
V\u676d\u5dde
p2827
sVSnsFlag
p2828
I177
sVDisplayName
p2829
g56
sVUniFriend
p2830
I0
sVMemberCount
p2831
I0
sVOwnerUin
p2832
I0
sVMemberList
p2833
g52
sVAlias
p2834
g56
sVPYQuanPin
p2835
Valei
p2836
sVSignature
p2837
V\u613f\u4f60\u5fc3\u6709\u6240\u5b89\uff0c\u4ecd\u6000\u8d64\u5b50\u4e4b\u5fc3\u3002
p2838
sVRemarkPYInitial
p2839
VHCLCH
p2840
sVContactFlag
p2841
I3
sVUin
p2842
I0
sVNickName
p2843
V\u963f\u78ca
p2844
sVAppAccountFlag
p2845
I0
sVVerifyFlag
p2846
I0
sVRemarkPYQuanPin
p2847
Vhangchenleichuanhua
p2848
sVHeadImgUrl
p2849
V/cgi-bin/mmwebwx-bin/webwxgeticon?seq=662698071&username=@017f5668fb97c7696224d581eeaf2f7c&skey=@crypt_9c3dea4c_60ecfb2e75ead15f0cee966311a887cd
p2850
sVKeyWord
p2851
Vlei
p2852
sVProvince
p2853
V\u6d59\u6c5f
p2854
sVPYInitial
p2855
VAL
p2856
sVRemarkName
p2857
V\u676d-\u9648\u78ca-\u4f20\u5316
p2858
sVIsOwner
p2859
I0
sVSex
p2860
I1
sVStarFriend
p2861
I0
sVHideInputBarFlag
p2862
I0
sVChatRoomId
p2863
I0
sVEncryChatRoomId
p2864
g56
sVAttrStatus
p2865
I98367
sVStatues
p2866
I0
stp2867
Rp2868
I1
bag34
(g38
g39
(dp2869
VUserName
p2870
V@58f54900783bcae0466e6144c059fa12867ceee8a1b774fcce869127531ce1cc
p2871
sVCity
p2872
g56
sVSnsFlag
p2873
I145
sVDisplayName
p2874
g56
sVUniFriend
p2875
I0
sVMemberCount
p2876
I0
sVOwnerUin
p2877
I0
sVMemberList
p2878
g52
sVAlias
p2879
g56
sVPYQuanPin
p2880
Vmiaodadayuwangxingren
p2881
sVSignature
p2882
VI Do
p2883
sVRemarkPYInitial
p2884
VALFYPSNZX
p2885
sVContactFlag
p2886
I3
sVUin
p2887
I0
sVNickName
p2888
V\u55b5\u5927\u5927\u4e0e\u6c6a\u661f\u4eba
p2889
sVAppAccountFlag
p2890
I0
sVVerifyFlag
p2891
I0
sVRemarkPYQuanPin
p2892
Vanlifangyapingshineizhuangxiu
p2893
sVHeadImgUrl
p2894
V/cgi-bin/mmwebwx-bin/webwxgeticon?seq=662775879&username=@58f54900783bcae0466e6144c059fa12867ceee8a1b774fcce869127531ce1cc&skey=@crypt_9c3dea4c_60ecfb2e75ead15f0cee966311a887cd
p2895
sVKeyWord
p2896
Vfan
p2897
sVProvince
p2898
V\u4e0a\u6d77
p2899
sVPYInitial
p2900
VMDDYWXR
p2901
sVRemarkName
p2902
V\u5b89\u7406-\u65b9\u4e9a\u840d-\u5ba4\u5185\u88c5\u4fee
p2903
sVIsOwner
p2904
I0
sVSex
p2905
I1
sVStarFriend
p2906
I0
sVHideInputBarFlag
p2907
I0
sVChatRoomId
p2908
I0
sVEncryChatRoomId
p2909
g56
sVAttrStatus
p2910
I102439
sVStatues
p2911
I0
stp2912
Rp2913
I1
bag34
(g38
g39
(dp2914
VUserName
p2915
V@f34a385c7546078216e1604b958344cbc8ca13ec97d5fefe2ccc4bb649e8ffe7
p2916
sVCity
p2917
V\u77f3\u5bb6\u5e84
p2918
sVSnsFlag
p2919
I17
sVDisplayName
p2920
g56
sVUniFriend
p2921
I0
sVMemberCount
p2922
I0
sVOwnerUin
p2923
I0
sVMemberList
p2924
g52
sVAlias
p2925
g56
sVPYQuanPin
p2926
VAtianyaspanclassemojiemoji1f60aspan
p2927
sVSignature
p2928
V\u7231\u8981\u5766\u8361\u8361\uff01^O^\u2605:)\u2606*^_^*
p2929
sVRemarkPYInitial
p2930
VXYWTY
p2931
sVContactFlag
p2932
I3
sVUin
p2933
I0
sVNickName
p2934
VA\u5929\u4e9a\U0001f60a
p2935
sVAppAccountFlag
p2936
I0
sVVerifyFlag
p2937
I0
sVRemarkPYQuanPin
p2938
Vxiuyuanwangtianya
p2939
sVHeadImgUrl
p2940
V/cgi-bin/mmwebwx-bin/webwxgeticon?seq=662697096&username=@f34a385c7546078216e1604b958344cbc8ca13ec97d5fefe2ccc4bb649e8ffe7&skey=@crypt_9c3dea4c_60ecfb2e75ead15f0cee966311a887cd
p2941
sVKeyWord
p2942
Vwan
p2943
sVProvince
p2944
V\u6cb3\u5317
p2945
sVPYInitial
p2946
VATYSPANCLASSEMOJIEMOJI1F60ASPAN
p2947
sVRemarkName
p2948
V\u4fee\u9662-\u738b\u5929\u4e9a
p2949
sVIsOwner
p2950
I0
sVSex
p2951
I1
sVStarFriend
p2952
I0
sVHideInputBarFlag
p2953
I0
sVChatRoomId
p2954
I0
sVEncryChatRoomId
p2955
g56
sVAttrStatus
p2956
I118887
sVStatues
p2957
I0
stp2958
Rp2959
I1
bag34
(g38
g39
(dp2960
VUserName
p2961
V@e2bf45b4e918130d658f571c701155f6bcbb2330c3209379191e003010a4a204
p2962
sVCity
p2963
V\u897f\u57ce
p2964
sVSnsFlag
p2965
I1
sVDisplayName
p2966
g56
sVUniFriend
p2967
I0
sVMemberCount
p2968
I0
sVOwnerUin
p2969
I0
sVMemberList
p2970
g52
sVAlias
p2971
g56
sVPYQuanPin
p2972
Vpino
p2973
sVSignature
p2974
V\u4e00\u676f\u656c\u81ea\u7531\u3001\u4e00\u676f\u656c\u6b7b\u4ea1
p2975
sVRemarkPYInitial
p2976
VSCTYSNSJ
p2977
sVContactFlag
p2978
I3
sVUin
p2979
I0
sVNickName
p2980
Vpino
p2981
sVAppAccountFlag
p2982
I0
sVVerifyFlag
p2983
I0
sVRemarkPYQuanPin
p2984
Vshicaotianyushineisheji
p2985
sVHeadImgUrl
p2986
V/cgi-bin/mmwebwx-bin/webwxgeticon?seq=662776745&username=@e2bf45b4e918130d658f571c701155f6bcbb2330c3209379191e003010a4a204&skey=@crypt_9c3dea4c_60ecfb2e75ead15f0cee966311a887cd
p2987
sVKeyWord
p2988
g56
sVProvince
p2989
V\u5317\u4eac
p2990
sVPYInitial
p2991
VPINO
p2992
sVRemarkName
p2993
V\u77f3-\u66f9\u5929\u5b87-\u5ba4\u5185\u8bbe\u8ba1
p2994
sVIsOwner
p2995
I0
sVSex
p2996
I1
sVStarFriend
p2997
I0
sVHideInputBarFlag
p2998
I0
sVChatRoomId
p2999
I0
sVEncryChatRoomId
p3000
g56
sVAttrStatus
p3001
I105061
sVStatues
p3002
I0
stp3003
Rp3004
I1
bag34
(g38
g39
(dp3005
VUserName
p3006
V@6d3e762e84679fa4934c247712f8cdeba2aadcb45c133f709e8a312f7591b762
p3007
sVCity
p3008
V\u4fdd\u5b9a
p3009
sVSnsFlag
p3010
I17
sVDisplayName
p3011
g56
sVUniFriend
p3012
I0
sVMemberCount
p3013
I0
sVOwnerUin
p3014
I0
sVMemberList
p3015
g52
sVAlias
p3016
g56
sVPYQuanPin
p3017
Vwangkaiqiang
p3018
sVSignature
p3019
V\u597d\u597d\u8fc7
p3020
sVRemarkPYInitial
p3021
VWZWKQDL
p3022
sVContactFlag
p3023
I3
sVUin
p3024
I0
sVNickName
p3025
V\u738b\u51ef\u5f3a
p3026
sVAppAccountFlag
p3027
I0
sVVerifyFlag
p3028
I0
sVRemarkPYQuanPin
p3029
Vwuzhongwangkaiqiangdianli
p3030
sVHeadImgUrl
p3031
V/cgi-bin/mmwebwx-bin/webwxgeticon?seq=662776921&username=@6d3e762e84679fa4934c247712f8cdeba2aadcb45c133f709e8a312f7591b762&skey=@crypt_9c3dea4c_60ecfb2e75ead15f0cee966311a887cd
p3032
sVKeyWord
p3033
g56
sVProvince
p3034
V\u6cb3\u5317
p3035
sVPYInitial
p3036
VWKQ
p3037
sVRemarkName
p3038
V\u6b66\u4e2d-\u738b\u51ef\u5f3a-\u7535\u529b
p3039
sVIsOwner
p3040
I0
sVSex
p3041
I1
sVStarFriend
p3042
I0
sVHideInputBarFlag
p3043
I0
sVChatRoomId
p3044
I0
sVEncryChatRoomId
p3045
g56
sVAttrStatus
p3046
I233511
sVStatues
p3047
I0
stp3048
Rp3049
I1
bag34
(g38
g39
(dp3050
VUserName
p3051
V@a78e92f25dfe1d128036144a54b13a0231864c2ecd04fff8bba41ec5efc56dd2
p3052
sVCity
p3053
V\u5357\u901a
p3054
sVSnsFlag
p3055
I49
sVDisplayName
p3056
g56
sVUniFriend
p3057
I0
sVMemberCount
p3058
I0
sVOwnerUin
p3059
I0
sVMemberList
p3060
g52
sVAlias
p3061
g56
sVPYQuanPin
p3062
Vzhidousanlang
p3063
sVSignature
p3064
VTrust The Process
p3065
sVRemarkPYInitial
p3066
VALXEN
p3067
sVContactFlag
p3068
I3
sVUin
p3069
I0
sVNickName
p3070
V\u667a\u9017\u4e09\u90ce
p3071
sVAppAccountFlag
p3072
I0
sVVerifyFlag
p3073
I0
sVRemarkPYQuanPin
p3074
Vanlixieernong
p3075
sVHeadImgUrl
p3076
V/cgi-bin/mmwebwx-bin/webwxgeticon?seq=647571564&username=@a78e92f25dfe1d128036144a54b13a0231864c2ecd04fff8bba41ec5efc56dd2&skey=@crypt_9c3dea4c_60ecfb2e75ead15f0cee966311a887cd
p3077
sVKeyWord
p3078
Vxie
p3079
sVProvince
p3080
V\u6c5f\u82cf
p3081
sVPYInitial
p3082
VZDSL
p3083
sVRemarkName
p3084
V\u5b89\u7406-\u8c22\u5c14\u519c
p3085
sVIsOwner
p3086
I0
sVSex
p3087
I1
sVStarFriend
p3088
I0
sVHideInputBarFlag
p3089
I0
sVChatRoomId
p3090
I0
sVEncryChatRoomId
p3091
g56
sVAttrStatus
p3092
I241767
sVStatues
p3093
I0
stp3094
Rp3095
I1
bag34
(g38
g39
(dp3096
VUserName
p3097
V@465b1090e77d1682b8a1a54dd85bc44b743d9ff7fbcc939a7c8caf584f472ec0
p3098
sVCity
p3099
V\u8bb8\u660c
p3100
sVSnsFlag
p3101
I17
sVDisplayName
p3102
g56
sVUniFriend
p3103
I0
sVMemberCount
p3104
I0
sVOwnerUin
p3105
I0
sVMemberList
p3106
g52
sVAlias
p3107
g56
sVPYQuanPin
p3108
Vqiaolongfei
p3109
sVSignature
p3110
V\u5171\u8d62\u643a\u624b\u672a\u6765\uff0c\u60f3\u60f3\u4f60\u5c31\u884c\uff0c\u884c\u52a8\u4f60\u5c31\u8d62\u3002
p3111
sVRemarkPYInitial
p3112
VBHQLF08
p3113
sVContactFlag
p3114
I3
sVUin
p3115
I0
sVNickName
p3116
V\u4e54\u9f99\u98de
p3117
sVAppAccountFlag
p3118
I0
sVVerifyFlag
p3119
I0
sVRemarkPYQuanPin
p3120
Vbinheqiaolongfei08
p3121
sVHeadImgUrl
p3122
V/cgi-bin/mmwebwx-bin/webwxgeticon?seq=662768165&username=@465b1090e77d1682b8a1a54dd85bc44b743d9ff7fbcc939a7c8caf584f472ec0&skey=@crypt_9c3dea4c_60ecfb2e75ead15f0cee966311a887cd
p3123
sVKeyWord
p3124
g56
sVProvince
p3125
V\u6cb3\u5357
p3126
sVPYInitial
p3127
VQLF
p3128
sVRemarkName
p3129
V\u6ee8\u6cb3-\u4e54\u9f99\u98de-08
p3130
sVIsOwner
p3131
I0
sVSex
p3132
I1
sVStarFriend
p3133
I0
sVHideInputBarFlag
p3134
I0
sVChatRoomId
p3135
I0
sVEncryChatRoomId
p3136
g56
sVAttrStatus
p3137
I102433
sVStatues
p3138
I0
stp3139
Rp3140
I1
bag34
(g38
g39
(dp3141
VUserName
p3142
V@82c517694417db80a016944b6d71576ff04392feb6cb78306a80900b745469a4
p3143
sVCity
p3144
V\u676d\u5dde
p3145
sVSnsFlag
p3146
I1
sVDisplayName
p3147
g56
sVUniFriend
p3148
I0
sVMemberCount
p3149
I0
sVOwnerUin
p3150
I0
sVMemberList
p3151
g52
sVAlias
p3152
g56
sVPYQuanPin
p3153
Vtangyuwuyingyu
p3154
sVSignature
p3155
g56
sVRemarkPYInitial
p3156
VHWXHYY
p3157
sVContactFlag
p3158
I3
sVUin
p3159
I0
sVNickName
p3160
V\u7cd6\u8bed\u5c4b\u82f1\u8bed
p3161
sVAppAccountFlag
p3162
I0
sVVerifyFlag
p3163
I0
sVRemarkPYQuanPin
p3164
Vhangwangxiaohuiyingyu
p3165
sVHeadImgUrl
p3166
V/cgi-bin/mmwebwx-bin/webwxgeticon?seq=662744762&username=@82c517694417db80a016944b6d71576ff04392feb6cb78306a80900b745469a4&skey=@crypt_9c3dea4c_60ecfb2e75ead15f0cee966311a887cd
p3167
sVKeyWord
p3168
g56
sVProvince
p3169
V\u6d59\u6c5f
p3170
sVPYInitial
p3171
VTYWYY
p3172
sVRemarkName
p3173
V\u676d-\u738b\u5c0f\u6167-\u82f1\u8bed
p3174
sVIsOwner
p3175
I0
sVSex
p3176
I2
sVStarFriend
p3177
I0
sVHideInputBarFlag
p3178
I0
sVChatRoomId
p3179
I0
sVEncryChatRoomId
p3180
g56
sVAttrStatus
p3181
I102501
sVStatues
p3182
I0
stp3183
Rp3184
I1
bag34
(g38
g39
(dp3185
VUserName
p3186
V@db460a7a22ed20186b795ed806fdc99d
p3187
sVCity
p3188
V\u6d77\u6dc0
p3189
sVSnsFlag
p3190
I49
sVDisplayName
p3191
g56
sVUniFriend
p3192
I0
sVMemberCount
p3193
I0
sVOwnerUin
p3194
I0
sVMemberList
p3195
g52
sVAlias
p3196
g56
sVPYQuanPin
p3197
g56
sVSignature
p3198
V\u4e0d\u4e70\u80a1\u7968\uff0c\u4e0d\u7406\u8d22\uff0c\u4e0d\u8d37\u6b3e\uff0c\u4e0d\u529e\u5361\uff0c\u4e0d\u8981\u4f18\u60e0\u5238\uff0c\u4e0d\u7ea6\uff01
p3199
sVRemarkPYInitial
p3200
VLYLKYIT
p3201
sVContactFlag
p3202
I3
sVUin
p3203
I0
sVNickName
p3204
V\uff5e~\uff5e
p3205
sVAppAccountFlag
p3206
I0
sVVerifyFlag
p3207
I0
sVRemarkPYQuanPin
p3208
VlinyilikaiyuanIT
p3209
sVHeadImgUrl
p3210
V/cgi-bin/mmwebwx-bin/webwxgeticon?seq=662765476&username=@db460a7a22ed20186b795ed806fdc99d&skey=@crypt_9c3dea4c_60ecfb2e75ead15f0cee966311a887cd
p3211
sVKeyWord
p3212
Vzho
p3213
sVProvince
p3214
V\u5317\u4eac
p3215
sVPYInitial
p3216
g56
sVRemarkName
p3217
V\u4e34\u6c82-\u674e\u5f00\u5143-IT
p3218
sVIsOwner
p3219
I0
sVSex
p3220
I1
sVStarFriend
p3221
I0
sVHideInputBarFlag
p3222
I0
sVChatRoomId
p3223
I0
sVEncryChatRoomId
p3224
g56
sVAttrStatus
p3225
I74149
sVStatues
p3226
I0
stp3227
Rp3228
I1
bag34
(g38
g39
(dp3229
VUserName
p3230
V@852edbca0efcf3f9aa3bc4372692360aed0de6843d6f43f2b547198e5fc2ec78
p3231
sVCity
p3232
V\u5eca\u574a
p3233
sVSnsFlag
p3234
I17
sVDisplayName
p3235
g56
sVUniFriend
p3236
I0
sVMemberCount
p3237
I0
sVOwnerUin
p3238
I0
sVMemberList
p3239
g52
sVAlias
p3240
g56
sVPYQuanPin
p3241
VIDo
p3242
sVSignature
p3243
V\u6c38\u8fdc\u90fd\u4e0d\u4f1a\u665a\uff01
p3244
sVRemarkPYInitial
p3245
VWZSSXF
p3246
sVContactFlag
p3247
I3
sVUin
p3248
I0
sVNickName
p3249
VI   Do
p3250
sVAppAccountFlag
p3251
I0
sVVerifyFlag
p3252
I0
sVRemarkPYQuanPin
p3253
Vwuzhongsunshuoxiaofang
p3254
sVHeadImgUrl
p3255
V/cgi-bin/mmwebwx-bin/webwxgeticon?seq=662697566&username=@852edbca0efcf3f9aa3bc4372692360aed0de6843d6f43f2b547198e5fc2ec78&skey=@crypt_9c3dea4c_60ecfb2e75ead15f0cee966311a887cd
p3256
sVKeyWord
p3257
g56
sVProvince
p3258
V\u6cb3\u5317
p3259
sVPYInitial
p3260
VIDO
p3261
sVRemarkName
p3262
V\u6b66\u4e2d-\u5b59\u7855-\u6d88\u9632
p3263
sVIsOwner
p3264
I0
sVSex
p3265
I1
sVStarFriend
p3266
I0
sVHideInputBarFlag
p3267
I0
sVChatRoomId
p3268
I0
sVEncryChatRoomId
p3269
g56
sVAttrStatus
p3270
I200869
sVStatues
p3271
I0
stp3272
Rp3273
I1
bag34
(g38
g39
(dp3274
VUserName
p3275
V@fcbf02680aa0130710f13295b457ac2a
p3276
sVCity
p3277
V\u8861\u6c34
p3278
sVSnsFlag
p3279
I17
sVDisplayName
p3280
g56
sVUniFriend
p3281
I0
sVMemberCount
p3282
I0
sVOwnerUin
p3283
I0
sVMemberList
p3284
g52
sVAlias
p3285
g56
sVPYQuanPin
p3286
Vshoufengshuangmiannedayishougongwaifa
p3287
sVSignature
p3288
V13582481757
p3289
sVRemarkPYInitial
p3290
VXYWL
p3291
sVContactFlag
p3292
I3
sVUin
p3293
I0
sVNickName
p3294
V\u624b\u7f1d\u53cc\u9762\u5462\u5927\u8863\u624b\u5de5\u5916\u53d1
p3295
sVAppAccountFlag
p3296
I0
sVVerifyFlag
p3297
I0
sVRemarkPYQuanPin
p3298
Vxiuyuanwanglu
p3299
sVHeadImgUrl
p3300
V/cgi-bin/mmwebwx-bin/webwxgeticon?seq=620580112&username=@fcbf02680aa0130710f13295b457ac2a&skey=@crypt_9c3dea4c_60ecfb2e75ead15f0cee966311a887cd
p3301
sVKeyWord
p3302
Vlua
p3303
sVProvince
p3304
V\u6cb3\u5317
p3305
sVPYInitial
p3306
VSFSMNDYSGWF
p3307
sVRemarkName
p3308
V\u4fee\u9662-\u738b\u8def
p3309
sVIsOwner
p3310
I0
sVSex
p3311
I1
sVStarFriend
p3312
I0
sVHideInputBarFlag
p3313
I0
sVChatRoomId
p3314
I0
sVEncryChatRoomId
p3315
g56
sVAttrStatus
p3316
I8259
sVStatues
p3317
I0
stp3318
Rp3319
I1
bag34
(g38
g39
(dp3320
VUserName
p3321
V@98b71ca8d39663b71a29d1533273f6c74c5ca470499ca1cb0d42f840808d16d0
p3322
sVCity
p3323
V\u676d\u5dde
p3324
sVSnsFlag
p3325
I49
sVDisplayName
p3326
g56
sVUniFriend
p3327
I0
sVMemberCount
p3328
I0
sVOwnerUin
p3329
I0
sVMemberList
p3330
g52
sVAlias
p3331
g56
sVPYQuanPin
p3332
Vlizeyang
p3333
sVSignature
p3334
Vstay hungry
p3335
sVRemarkPYInitial
p3336
VHKLZYYD
p3337
sVContactFlag
p3338
I3
sVUin
p3339
I0
sVNickName
p3340
V\u674e\u6cfd\u9633
p3341
sVAppAccountFlag
p3342
I0
sVVerifyFlag
p3343
I0
sVRemarkPYQuanPin
p3344
Vhaikelizeyangyunduan
p3345
sVHeadImgUrl
p3346
V/cgi-bin/mmwebwx-bin/webwxgeticon?seq=662695000&username=@98b71ca8d39663b71a29d1533273f6c74c5ca470499ca1cb0d42f840808d16d0&skey=@crypt_9c3dea4c_60ecfb2e75ead15f0cee966311a887cd
p3347
sVKeyWord
p3348
g56
sVProvince
p3349
V\u6d59\u6c5f
p3350
sVPYInitial
p3351
VLZY
p3352
sVRemarkName
p3353
V\u6c26\u6c2a-\u674e\u6cfd\u6d0b-\u4e91\u7aef
p3354
sVIsOwner
p3355
I0
sVSex
p3356
I1
sVStarFriend
p3357
I0
sVHideInputBarFlag
p3358
I0
sVChatRoomId
p3359
I0
sVEncryChatRoomId
p3360
g56
sVAttrStatus
p3361
I2147586151
sVStatues
p3362
I0
stp3363
Rp3364
I1
bag34
(g38
g39
(dp3365
VUserName
p3366
V@c81f3267a5244a59467d77c92479b75c
p3367
sVCity
p3368
V\u8861\u6c34
p3369
sVSnsFlag
p3370
I1
sVDisplayName
p3371
g56
sVUniFriend
p3372
I0
sVMemberCount
p3373
I0
sVOwnerUin
p3374
I0
sVMemberList
p3375
g52
sVAlias
p3376
g56
sVPYQuanPin
p3377
Vbiandian
p3378
sVSignature
p3379
V\u6c38\u8fdc\u5fc3\u6000\u656c\u754f\uff0c\u6c38\u8fdc\u4fdd\u6301\u63a2\u7d22\u3002
p3380
sVRemarkPYInitial
p3381
VWZCPZTJ
p3382
sVContactFlag
p3383
I3
sVUin
p3384
I0
sVNickName
p3385
V\u5f7c\u5cb8\u4e36
p3386
sVAppAccountFlag
p3387
I0
sVVerifyFlag
p3388
I0
sVRemarkPYQuanPin
p3389
Vwuzhongchangpengzhongtiejian
p3390
sVHeadImgUrl
p3391
V/cgi-bin/mmwebwx-bin/webwxgeticon?seq=631386061&username=@c81f3267a5244a59467d77c92479b75c&skey=@crypt_9c3dea4c_60ecfb2e75ead15f0cee966311a887cd
p3392
sVKeyWord
p3393
Vcp2
p3394
sVProvince
p3395
V\u6cb3\u5317
p3396
sVPYInitial
p3397
VBAD
p3398
sVRemarkName
p3399
V\u6b66\u4e2d-\u5e38\u9e4f-\u4e2d\u94c1\u5efa
p3400
sVIsOwner
p3401
I0
sVSex
p3402
I1
sVStarFriend
p3403
I0
sVHideInputBarFlag
p3404
I0
sVChatRoomId
p3405
I0
sVEncryChatRoomId
p3406
g56
sVAttrStatus
p3407
I17007015
sVStatues
p3408
I0
stp3409
Rp3410
I1
bag34
(g38
g39
(dp3411
VUserName
p3412
V@ffb46ec2718db368e15aeff9c1e4b917
p3413
sVCity
p3414
V\u676d\u5dde
p3415
sVSnsFlag
p3416
I49
sVDisplayName
p3417
g56
sVUniFriend
p3418
I0
sVMemberCount
p3419
I0
sVOwnerUin
p3420
I0
sVMemberList
p3421
g52
sVAlias
p3422
g56
sVPYQuanPin
p3423
VKamisama
p3424
sVSignature
p3425
VFarewell, good hunter.
p3426
sVRemarkPYInitial
p3427
VHKSTQD
p3428
sVContactFlag
p3429
I3
sVUin
p3430
I0
sVNickName
p3431
VKamisama
p3432
sVAppAccountFlag
p3433
I0
sVVerifyFlag
p3434
I0
sVRemarkPYQuanPin
p3435
Vhaikeshentingqianduan
p3436
sVHeadImgUrl
p3437
V/cgi-bin/mmwebwx-bin/webwxgeticon?seq=647563022&username=@ffb46ec2718db368e15aeff9c1e4b917&skey=@crypt_9c3dea4c_60ecfb2e75ead15f0cee966311a887cd
p3438
sVKeyWord
p3439
Vpci
p3440
sVProvince
p3441
V\u6d59\u6c5f
p3442
sVPYInitial
p3443
VKAMISAMA
p3444
sVRemarkName
p3445
V\u6c26\u6c2a-\u6c88\u633a-\u524d\u7aef
p3446
sVIsOwner
p3447
I0
sVSex
p3448
I1
sVStarFriend
p3449
I0
sVHideInputBarFlag
p3450
I0
sVChatRoomId
p3451
I0
sVEncryChatRoomId
p3452
g56
sVAttrStatus
p3453
I33784127
sVStatues
p3454
I0
stp3455
Rp3456
I1
bag34
(g38
g39
(dp3457
VUserName
p3458
V@e173989d3117404e16e46ba7110d3014d17e4b8a89327f0d85d8de5da998fc25
p3459
sVCity
p3460
V\u676d\u5dde
p3461
sVSnsFlag
p3462
I17
sVDisplayName
p3463
g56
sVUniFriend
p3464
I0
sVMemberCount
p3465
I0
sVOwnerUin
p3466
I0
sVMemberList
p3467
g52
sVAlias
p3468
g56
sVPYQuanPin
p3469
VDream
p3470
sVSignature
p3471
g56
sVRemarkPYInitial
p3472
VMTCJH
p3473
sVContactFlag
p3474
I1
sVUin
p3475
I0
sVNickName
p3476
VDream
p3477
sVAppAccountFlag
p3478
I0
sVVerifyFlag
p3479
I0
sVRemarkPYQuanPin
p3480
Vmaitianchenjiahui
p3481
sVHeadImgUrl
p3482
V/cgi-bin/mmwebwx-bin/webwxgeticon?seq=661613474&username=@e173989d3117404e16e46ba7110d3014d17e4b8a89327f0d85d8de5da998fc25&skey=@crypt_9c3dea4c_60ecfb2e75ead15f0cee966311a887cd
p3483
sVKeyWord
p3484
Vche
p3485
sVProvince
p3486
V\u6d59\u6c5f
p3487
sVPYInitial
p3488
VDREAM
p3489
sVRemarkName
p3490
V\u9ea6\u7530-\u9648\u4f73\u8f89-
p3491
sVIsOwner
p3492
I0
sVSex
p3493
I1
sVStarFriend
p3494
I0
sVHideInputBarFlag
p3495
I0
sVChatRoomId
p3496
I0
sVEncryChatRoomId
p3497
g56
sVAttrStatus
p3498
I33667175
sVStatues
p3499
I0
stp3500
Rp3501
I1
bag34
(g38
g39
(dp3502
VUserName
p3503
V@9a819f8a4c429d8d9ae05b919ce3890f4901b8b2bb89a5930b9a128062c9b84a
p3504
sVCity
p3505
V\u77f3\u5bb6\u5e84
p3506
sVSnsFlag
p3507
I17
sVDisplayName
p3508
g56
sVUniFriend
p3509
I0
sVMemberCount
p3510
I0
sVOwnerUin
p3511
I0
sVMemberList
p3512
g52
sVAlias
p3513
g56
sVPYQuanPin
p3514
Vxuan
p3515
sVSignature
p3516
g56
sVRemarkPYInitial
p3517
VSDWJXPYTHONSJZ
p3518
sVContactFlag
p3519
I3
sVUin
p3520
I0
sVNickName
p3521
V\u8f69
p3522
sVAppAccountFlag
p3523
I0
sVVerifyFlag
p3524
I0
sVRemarkPYQuanPin
p3525
Vsandawangjingxuanpythonshijiazhuang
p3526
sVHeadImgUrl
p3527
V/cgi-bin/mmwebwx-bin/webwxgeticon?seq=662734977&username=@9a819f8a4c429d8d9ae05b919ce3890f4901b8b2bb89a5930b9a128062c9b84a&skey=@crypt_9c3dea4c_60ecfb2e75ead15f0cee966311a887cd
p3528
sVKeyWord
p3529
g56
sVProvince
p3530
V\u6cb3\u5317
p3531
sVPYInitial
p3532
VX
p3533
sVRemarkName
p3534
V\u4e09\u5927-\u738b\u656c\u8f69-python-\u77f3\u5bb6\u5e84
p3535
sVIsOwner
p3536
I0
sVSex
p3537
I2
sVStarFriend
p3538
I0
sVHideInputBarFlag
p3539
I0
sVChatRoomId
p3540
I0
sVEncryChatRoomId
p3541
g56
sVAttrStatus
p3542
I99781
sVStatues
p3543
I0
stp3544
Rp3545
I1
bag34
(g38
g39
(dp3546
VUserName
p3547
V@5df55c0d44057bc3cdf05fd6497f3842e3e5235b8a27c70ae312f11a2986ebee
p3548
sVCity
p3549
V\u8861\u6c34
p3550
sVSnsFlag
p3551
I1
sVDisplayName
p3552
g56
sVUniFriend
p3553
I0
sVMemberCount
p3554
I0
sVOwnerUin
p3555
I0
sVMemberList
p3556
g52
sVAlias
p3557
g56
sVPYQuanPin
p3558
Vdixiao
p3559
sVSignature
p3560
V\u62fc\u6211\u60f3\u8981\u7684\uff0c\u6323\u6211\u6ca1\u6709\u7684\uff01
p3561
sVRemarkPYInitial
p3562
VWZLDXXJS
p3563
sVContactFlag
p3564
I3
sVUin
p3565
I0
sVNickName
p3566
V\u7b1b\u7b71
p3567
sVAppAccountFlag
p3568
I0
sVVerifyFlag
p3569
I0
sVRemarkPYQuanPin
p3570
Vwuzhongliudanxiaoxuejiaoshi
p3571
sVHeadImgUrl
p3572
V/cgi-bin/mmwebwx-bin/webwxgeticon?seq=647553265&username=@5df55c0d44057bc3cdf05fd6497f3842e3e5235b8a27c70ae312f11a2986ebee&skey=@crypt_9c3dea4c_60ecfb2e75ead15f0cee966311a887cd
p3573
sVKeyWord
p3574
g56
sVProvince
p3575
V\u6cb3\u5317
p3576
sVPYInitial
p3577
VDX
p3578
sVRemarkName
p3579
V\u6b66\u4e2d-\u5218\u4e39--\u5c0f\u5b66\u6559\u5e08
p3580
sVIsOwner
p3581
I0
sVSex
p3582
I2
sVStarFriend
p3583
I0
sVHideInputBarFlag
p3584
I0
sVChatRoomId
p3585
I0
sVEncryChatRoomId
p3586
g56
sVAttrStatus
p3587
I5093
sVStatues
p3588
I0
stp3589
Rp3590
I1
bag34
(g38
g39
(dp3591
VUserName
p3592
V@ec413ac4caf20ee0aece5c006bdd3e91a53527f47ce4c757cdddaa1d129dc4ec
p3593
sVCity
p3594
V\u5927\u8fde
p3595
sVSnsFlag
p3596
I17
sVDisplayName
p3597
g56
sVUniFriend
p3598
I0
sVMemberCount
p3599
I0
sVOwnerUin
p3600
I0
sVMemberList
p3601
g52
sVAlias
p3602
g56
sVPYQuanPin
p3603
Vdouchongchong
p3604
sVSignature
p3605
V\u7231\u751f\u6d3b\uff0c\u7231\u81ea\u5df1\uff0c\u7231\u4e16\u754c\uff0c\u7231\u5927\u5bb6\uff01
p3606
sVRemarkPYInitial
p3607
VWZFWQYX
p3608
sVContactFlag
p3609
I3
sVUin
p3610
I0
sVNickName
p3611
V\u9017\u866b\u866b
p3612
sVAppAccountFlag
p3613
I0
sVVerifyFlag
p3614
I0
sVRemarkPYQuanPin
p3615
Vwuzhongfengwenqiuyixue
p3616
sVHeadImgUrl
p3617
V/cgi-bin/mmwebwx-bin/webwxgeticon?seq=662707289&username=@ec413ac4caf20ee0aece5c006bdd3e91a53527f47ce4c757cdddaa1d129dc4ec&skey=@crypt_9c3dea4c_60ecfb2e75ead15f0cee966311a887cd
p3618
sVKeyWord
p3619
g56
sVProvince
p3620
V\u8fbd\u5b81
p3621
sVPYInitial
p3622
VDCC
p3623
sVRemarkName
p3624
V\u6b66\u4e2d-\u51af\u6587\u79cb-\u533b\u5b66
p3625
sVIsOwner
p3626
I0
sVSex
p3627
I2
sVStarFriend
p3628
I0
sVHideInputBarFlag
p3629
I0
sVChatRoomId
p3630
I0
sVEncryChatRoomId
p3631
g56
sVAttrStatus
p3632
I33654885
sVStatues
p3633
I0
stp3634
Rp3635
I1
bag34
(g38
g39
(dp3636
VUserName
p3637
V@5d82ea5e9b079997d1387dd932340fb8ae7af38ffa69d8f23d8547c0c1b5de9a
p3638
sVCity
p3639
V\u671d\u9633
p3640
sVSnsFlag
p3641
I49
sVDisplayName
p3642
g56
sVUniFriend
p3643
I0
sVMemberCount
p3644
I0
sVOwnerUin
p3645
I0
sVMemberList
p3646
g52
sVAlias
p3647
g56
sVPYQuanPin
p3648
Vwoyaojianjiankangkang
p3649
sVSignature
p3650
g56
sVRemarkPYInitial
p3651
VWZXQQ
p3652
sVContactFlag
p3653
I3
sVUin
p3654
I0
sVNickName
p3655
V\u6211\u8981\u5065\u5065\u5eb7\u5eb7
p3656
sVAppAccountFlag
p3657
I0
sVVerifyFlag
p3658
I0
sVRemarkPYQuanPin
p3659
Vwuzhongxieqianqian
p3660
sVHeadImgUrl
p3661
V/cgi-bin/mmwebwx-bin/webwxgeticon?seq=662787575&username=@5d82ea5e9b079997d1387dd932340fb8ae7af38ffa69d8f23d8547c0c1b5de9a&skey=@crypt_9c3dea4c_60ecfb2e75ead15f0cee966311a887cd
p3662
sVKeyWord
p3663
g56
sVProvince
p3664
V\u5317\u4eac
p3665
sVPYInitial
p3666
VWYJJKK
p3667
sVRemarkName
p3668
V\u6b66\u4e2d-\u89e3\u831c\u831c
p3669
sVIsOwner
p3670
I0
sVSex
p3671
I2
sVStarFriend
p3672
I0
sVHideInputBarFlag
p3673
I0
sVChatRoomId
p3674
I0
sVEncryChatRoomId
p3675
g56
sVAttrStatus
p3676
I234917
sVStatues
p3677
I0
stp3678
Rp3679
I1
bag34
(g38
g39
(dp3680
VUserName
p3681
V@59c2aa89d3482f3446acf9fabea52a3a
p3682
sVCity
p3683
V\u676d\u5dde
p3684
sVSnsFlag
p3685
I49
sVDisplayName
p3686
g56
sVUniFriend
p3687
I0
sVMemberCount
p3688
I0
sVOwnerUin
p3689
I0
sVMemberList
p3690
g52
sVAlias
p3691
g56
sVPYQuanPin
p3692
g608
sVSignature
p3693
V\u4e91\u4e2d\u98de\u8d3a \u5fc3\u95f4\u85cf\u68a6 \u547d\u91cc\u5ba0\u5a07
p3694
sVRemarkPYInitial
p3695
VHKYMHWEBQD
p3696
sVContactFlag
p3697
I3
sVUin
p3698
I0
sVNickName
p3699
VD\u3002
p3700
sVAppAccountFlag
p3701
I0
sVVerifyFlag
p3702
I0
sVRemarkPYQuanPin
p3703
Vhaikeyumenghuiwebqianduan
p3704
sVHeadImgUrl
p3705
V/cgi-bin/mmwebwx-bin/webwxgeticon?seq=662748359&username=@59c2aa89d3482f3446acf9fabea52a3a&skey=@crypt_9c3dea4c_60ecfb2e75ead15f0cee966311a887cd
p3706
sVKeyWord
p3707
Vymh
p3708
sVProvince
p3709
V\u6d59\u6c5f
p3710
sVPYInitial
p3711
g608
sVRemarkName
p3712
V\u6c26\u6c2a-\u4fde\u5b5f\u8f89-web\u524d\u7aef
p3713
sVIsOwner
p3714
I0
sVSex
p3715
I1
sVStarFriend
p3716
I0
sVHideInputBarFlag
p3717
I0
sVChatRoomId
p3718
I0
sVEncryChatRoomId
p3719
g56
sVAttrStatus
p3720
I112935
sVStatues
p3721
I0
stp3722
Rp3723
I1
bag34
(g38
g39
(dp3724
VUserName
p3725
V@513583beab0fcfb5eda63fd3528faee97799c81ed7cc28830bc7eea300839f87
p3726
sVCity
p3727
g56
sVSnsFlag
p3728
I1
sVDisplayName
p3729
g56
sVUniFriend
p3730
I0
sVMemberCount
p3731
I0
sVOwnerUin
p3732
I0
sVMemberList
p3733
g52
sVAlias
p3734
g56
sVPYQuanPin
p3735
V???chengjianspanclassemojiemoji1f451spanzhengjian???
p3736
sVSignature
p3737
V\u672c\u516c\u53f8  \u4e13\u4e1a \u529e\u7406 \u5404\u79cd \u8bc1\u4ef6\u2705\u516c\u7ae0\uff0c\u6b22\u8fce\u54a8\u8be2 <span class="emoji emoji2648"></span>\ufe0fbanzheng122
p3738
sVRemarkPYInitial
p3739
VGNBZCS
p3740
sVContactFlag
p3741
I3
sVUin
p3742
I0
sVNickName
p3743
V\ua9c1\uaade \u2112\u8bda\u4ef6\U0001f451\u8bc1\u4ef6\u2112 \uaade\ua9c2
p3744
sVAppAccountFlag
p3745
I0
sVVerifyFlag
p3746
I0
sVRemarkPYQuanPin
p3747
Vgongnengbanzhengchangsha
p3748
sVHeadImgUrl
p3749
V/cgi-bin/mmwebwx-bin/webwxgeticon?seq=662721517&username=@513583beab0fcfb5eda63fd3528faee97799c81ed7cc28830bc7eea300839f87&skey=@crypt_9c3dea4c_60ecfb2e75ead15f0cee966311a887cd
p3750
sVKeyWord
p3751
g56
sVProvince
p3752
g56
sVPYInitial
p3753
V???CJSPANCLASSEMOJIEMOJI1F451SPANZJ???
p3754
sVRemarkName
p3755
V\u529f\u80fd-\u529e\u8bc1-\u957f\u6c99
p3756
sVIsOwner
p3757
I0
sVSex
p3758
I2
sVStarFriend
p3759
I0
sVHideInputBarFlag
p3760
I0
sVChatRoomId
p3761
I0
sVEncryChatRoomId
p3762
g56
sVAttrStatus
p3763
I103013
sVStatues
p3764
I0
stp3765
Rp3766
I1
bag34
(g38
g39
(dp3767
VUserName
p3768
V@4f41d1f9026d50387fba4327420c687c
p3769
sVCity
p3770
V\u676d\u5dde
p3771
sVSnsFlag
p3772
I49
sVDisplayName
p3773
g56
sVUniFriend
p3774
I0
sVMemberCount
p3775
I0
sVOwnerUin
p3776
I0
sVMemberList
p3777
g52
sVAlias
p3778
g56
sVPYQuanPin
p3779
Vcaimeiyounameku
p3780
sVSignature
p3781
V\u6587\u827a\u7684\u76ee\u7684\u5c31\u662f\u627e\u4e2a\u7406\u7531\u7231\u4e0a\u67af\u71e5\u7684\u751f\u6d3b\u4ee5\u53ca\u4e0d\u582a\u7684\u81ea\u5df1
p3782
sVRemarkPYInitial
p3783
VHKLXFQD
p3784
sVContactFlag
p3785
I3
sVUin
p3786
I0
sVNickName
p3787
V@\u624d\u6ca1\u6709\u90a3\u4e48\u9177
p3788
sVAppAccountFlag
p3789
I0
sVVerifyFlag
p3790
I0
sVRemarkPYQuanPin
p3791
Vhaikelixiaofengqianduan
p3792
sVHeadImgUrl
p3793
V/cgi-bin/mmwebwx-bin/webwxgeticon?seq=647563025&username=@4f41d1f9026d50387fba4327420c687c&skey=@crypt_9c3dea4c_60ecfb2e75ead15f0cee966311a887cd
p3794
sVKeyWord
p3795
Vkev
p3796
sVProvince
p3797
V\u6d59\u6c5f
p3798
sVPYInitial
p3799
VCMYNMK
p3800
sVRemarkName
p3801
V\u6c26\u6c2a-\u674e\u6653\u5cf0-\u524d\u7aef
p3802
sVIsOwner
p3803
I0
sVSex
p3804
I1
sVStarFriend
p3805
I0
sVHideInputBarFlag
p3806
I0
sVChatRoomId
p3807
I0
sVEncryChatRoomId
p3808
g56
sVAttrStatus
p3809
I113783
sVStatues
p3810
I0
stp3811
Rp3812
I1
bag34
(g38
g39
(dp3813
VUserName
p3814
V@580a7a1a4e60656e8b61fd5ddb2d2a70d659d5c86d02ca12d231167f9a109329
p3815
sVCity
p3816
V\u676d\u5dde
p3817
sVSnsFlag
p3818
I17
sVDisplayName
p3819
g56
sVUniFriend
p3820
I0
sVMemberCount
p3821
I0
sVOwnerUin
p3822
I0
sVMemberList
p3823
g52
sVAlias
p3824
g56
sVPYQuanPin
p3825
Vchunniunai
p3826
sVSignature
p3827
V\u4f60\u82e5\u5b89\u597d\uff0c\u4fbf\u662f\u6674\u5929\u3002
p3828
sVRemarkPYInitial
p3829
VALLGELM
p3830
sVContactFlag
p3831
I3
sVUin
p3832
I0
sVNickName
p3833
V\u7eaf\u725b\u5976
p3834
sVAppAccountFlag
p3835
I0
sVVerifyFlag
p3836
I0
sVRemarkPYQuanPin
p3837
Vanliliugangeleme
p3838
sVHeadImgUrl
p3839
V/cgi-bin/mmwebwx-bin/webwxgeticon?seq=662788394&username=@580a7a1a4e60656e8b61fd5ddb2d2a70d659d5c86d02ca12d231167f9a109329&skey=@crypt_9c3dea4c_60ecfb2e75ead15f0cee966311a887cd
p3840
sVKeyWord
p3841
Vw33
p3842
sVProvince
p3843
V\u6d59\u6c5f
p3844
sVPYInitial
p3845
VCNN
p3846
sVRemarkName
p3847
V\u5b89\u7406-\u5218\u521a--\u997f\u4e86\u4e48
p3848
sVIsOwner
p3849
I0
sVSex
p3850
I1
sVStarFriend
p3851
I0
sVHideInputBarFlag
p3852
I0
sVChatRoomId
p3853
I0
sVEncryChatRoomId
p3854
g56
sVAttrStatus
p3855
I112103
sVStatues
p3856
I0
stp3857
Rp3858
I1
bag34
(g38
g39
(dp3859
VUserName
p3860
V@8d2b49bfa103c91a24a1c26272f2972f60582b107d5d24513eab10a85ee58f5f
p3861
sVCity
p3862
V\u90af\u90f8
p3863
sVSnsFlag
p3864
I17
sVDisplayName
p3865
g56
sVUniFriend
p3866
I0
sVMemberCount
p3867
I0
sVOwnerUin
p3868
I0
sVMemberList
p3869
g52
sVAlias
p3870
g56
sVPYQuanPin
p3871
Vtuxiaoleng
p3872
sVSignature
p3873
V\u4e0d\u629b\u5f03\uff0c\u4e0d\u653e\u5f03\uff01
p3874
sVRemarkPYInitial
p3875
VSDSTQD
p3876
sVContactFlag
p3877
I3
sVUin
p3878
I0
sVNickName
p3879
V\u5154\u5c0f\u51b7
p3880
sVAppAccountFlag
p3881
I0
sVVerifyFlag
p3882
I0
sVRemarkPYQuanPin
p3883
Vshidushitouqianduan
p3884
sVHeadImgUrl
p3885
V/cgi-bin/mmwebwx-bin/webwxgeticon?seq=662789110&username=@8d2b49bfa103c91a24a1c26272f2972f60582b107d5d24513eab10a85ee58f5f&skey=@crypt_9c3dea4c_60ecfb2e75ead15f0cee966311a887cd
p3886
sVKeyWord
p3887
g56
sVProvince
p3888
V\u6cb3\u5317
p3889
sVPYInitial
p3890
VTXL
p3891
sVRemarkName
p3892
V\u77f3-\u675c\u77f3\u5934-\u524d\u7aef
p3893
sVIsOwner
p3894
I0
sVSex
p3895
I1
sVStarFriend
p3896
I0
sVHideInputBarFlag
p3897
I0
sVChatRoomId
p3898
I0
sVEncryChatRoomId
p3899
g56
sVAttrStatus
p3900
I135269
sVStatues
p3901
I0
stp3902
Rp3903
I1
bag34
(g38
g39
(dp3904
VUserName
p3905
V@0533ddfc8598b154d2451174b927dffd52e5c24b56da8a4b1761b8e5e09cb2e2
p3906
sVCity
p3907
V\u8861\u6c34
p3908
sVSnsFlag
p3909
I17
sVDisplayName
p3910
g56
sVUniFriend
p3911
I0
sVMemberCount
p3912
I0
sVOwnerUin
p3913
I0
sVMemberList
p3914
g52
sVAlias
p3915
g56
sVPYQuanPin
p3916
VzhuzaiTardis
p3917
sVSignature
p3918
V\u6211\u662f\u771f\u6ca1\u6709
p3919
sVRemarkPYInitial
p3920
VSDWFTXTJ
p3921
sVContactFlag
p3922
I3
sVUin
p3923
I0
sVNickName
p3924
V\u4f4f\u5728Tardis
p3925
sVAppAccountFlag
p3926
I0
sVVerifyFlag
p3927
I0
sVRemarkPYQuanPin
p3928
Vsandawangfeitongxintianjin
p3929
sVHeadImgUrl
p3930
V/cgi-bin/mmwebwx-bin/webwxgeticon?seq=662789184&username=@0533ddfc8598b154d2451174b927dffd52e5c24b56da8a4b1761b8e5e09cb2e2&skey=@crypt_9c3dea4c_60ecfb2e75ead15f0cee966311a887cd
p3931
sVKeyWord
p3932
g56
sVProvince
p3933
V\u6cb3\u5317
p3934
sVPYInitial
p3935
VZZTARDIS
p3936
sVRemarkName
p3937
V\u4e09\u5927-\u738b\u98de-\u901a\u4fe1-\u5929\u6d25
p3938
sVIsOwner
p3939
I0
sVSex
p3940
I1
sVStarFriend
p3941
I0
sVHideInputBarFlag
p3942
I0
sVChatRoomId
p3943
I0
sVEncryChatRoomId
p3944
g56
sVAttrStatus
p3945
I4133
sVStatues
p3946
I0
stp3947
Rp3948
I1
bag34
(g38
g39
(dp3949
VUserName
p3950
V@37f096916f6ffae50810133d35074a147461d4773d97ca1bddc92236ca469801
p3951
sVCity
p3952
V\u70df\u53f0
p3953
sVSnsFlag
p3954
I17
sVDisplayName
p3955
g56
sVUniFriend
p3956
I0
sVMemberCount
p3957
I0
sVOwnerUin
p3958
I0
sVMemberList
p3959
g52
sVAlias
p3960
g56
sVPYQuanPin
p3961
Vyingxue
p3962
sVSignature
p3963
V\u4e3b\u5185\u5e73\u5b89\uff01
p3964
sVRemarkPYInitial
p3965
VYWZXYT
p3966
sVContactFlag
p3967
I3
sVUin
p3968
I0
sVNickName
p3969
V\u6620\u96ea
p3970
sVAppAccountFlag
p3971
I0
sVVerifyFlag
p3972
I0
sVRemarkPYQuanPin
p3973
Vyiwangzhixianyantai
p3974
sVHeadImgUrl
p3975
V/cgi-bin/mmwebwx-bin/webwxgeticon?seq=620802226&username=@37f096916f6ffae50810133d35074a147461d4773d97ca1bddc92236ca469801&skey=@crypt_9c3dea4c_60ecfb2e75ead15f0cee966311a887cd
p3976
sVKeyWord
p3977
g56
sVProvince
p3978
V\u5c71\u4e1c
p3979
sVPYInitial
p3980
VYX
p3981
sVRemarkName
p3982
V\u4f0a-\u738b\u5fd7\u8d24-\u70df\u53f0
p3983
sVIsOwner
p3984
I0
sVSex
p3985
I2
sVStarFriend
p3986
I0
sVHideInputBarFlag
p3987
I0
sVChatRoomId
p3988
I0
sVEncryChatRoomId
p3989
g56
sVAttrStatus
p3990
I36901
sVStatues
p3991
I0
stp3992
Rp3993
I1
bag34
(g38
g39
(dp3994
VUserName
p3995
V@0eb5a24b5ac2d04e5836252455d89fef
p3996
sVCity
p3997
V\u8861\u6c34
p3998
sVSnsFlag
p3999
I17
sVDisplayName
p4000
g56
sVUniFriend
p4001
I0
sVMemberCount
p4002
I0
sVOwnerUin
p4003
I0
sVMemberList
p4004
g52
sVAlias
p4005
g56
sVPYQuanPin
p4006
Vaijiasheying15030824925
p4007
sVSignature
p4008
g56
sVRemarkPYInitial
p4009
VXYLY
p4010
sVContactFlag
p4011
I1
sVUin
p4012
I0
sVNickName
p4013
V\u7231\u5bb6\u6444\u5f7115030824925
p4014
sVAppAccountFlag
p4015
I0
sVVerifyFlag
p4016
I0
sVRemarkPYQuanPin
p4017
Vxiuyuanliuyang
p4018
sVHeadImgUrl
p4019
V/cgi-bin/mmwebwx-bin/webwxgeticon?seq=662703705&username=@0eb5a24b5ac2d04e5836252455d89fef&skey=@crypt_9c3dea4c_60ecfb2e75ead15f0cee966311a887cd
p4020
sVKeyWord
p4021
VY90
p4022
sVProvince
p4023
V\u6cb3\u5317
p4024
sVPYInitial
p4025
VAJSY15030824925
p4026
sVRemarkName
p4027
V\u4fee\u9662-\u5218\u9633
p4028
sVIsOwner
p4029
I0
sVSex
p4030
I1
sVStarFriend
p4031
I0
sVHideInputBarFlag
p4032
I0
sVChatRoomId
p4033
I0
sVEncryChatRoomId
p4034
g56
sVAttrStatus
p4035
I4133
sVStatues
p4036
I0
stp4037
Rp4038
I1
bag34
(g38
g39
(dp4039
VUserName
p4040
V@1d4a6a11fa5053a470632101101d1899
p4041
sVCity
p4042
VraN9l_
p4043
sVSnsFlag
p4044
I49
sVDisplayName
p4045
g56
sVUniFriend
p4046
I0
sVMemberCount
p4047
I0
sVOwnerUin
p4048
I0
sVMemberList
p4049
g52
sVAlias
p4050
g56
sVPYQuanPin
p4051
Vhejinxi
p4052
sVSignature
p4053
V\u2026
p4054
sVRemarkPYInitial
p4055
VALHJX
p4056
sVContactFlag
p4057
I3
sVUin
p4058
I0
sVNickName
p4059
V\u8d3a\u4eca\u7199
p4060
sVAppAccountFlag
p4061
I0
sVVerifyFlag
p4062
I0
sVRemarkPYQuanPin
p4063
Vanlihejinxi
p4064
sVHeadImgUrl
p4065
V/cgi-bin/mmwebwx-bin/webwxgeticon?seq=628010774&username=@1d4a6a11fa5053a470632101101d1899&skey=@crypt_9c3dea4c_60ecfb2e75ead15f0cee966311a887cd
p4066
sVKeyWord
p4067
Vhjx
p4068
sVProvince
p4069
Vl_
p4070
sVPYInitial
p4071
VHJX
p4072
sVRemarkName
p4073
V\u5b89\u7406-\u8d3a\u4eca\u7199
p4074
sVIsOwner
p4075
I0
sVSex
p4076
I1
sVStarFriend
p4077
I0
sVHideInputBarFlag
p4078
I0
sVChatRoomId
p4079
I0
sVEncryChatRoomId
p4080
g56
sVAttrStatus
p4081
I242151
sVStatues
p4082
I0
stp4083
Rp4084
I1
bag34
(g38
g39
(dp4085
VUserName
p4086
V@29ef82c1754f6203400cc469ebbf80c5b7934fbb2844e59a9bed89c4bf9eb809
p4087
sVCity
p4088
V\u8861\u6c34
p4089
sVSnsFlag
p4090
I145
sVDisplayName
p4091
g56
sVUniFriend
p4092
I0
sVMemberCount
p4093
I0
sVOwnerUin
p4094
I0
sVMemberList
p4095
g52
sVAlias
p4096
g56
sVPYQuanPin
p4097
Vzhenxiyuanfen
p4098
sVSignature
p4099
V\u4e13\u4e1a\u9632\u6c34\uff0c\u627f\u63fd\u9632\u6c34\u5de5\u7a0b\uff0c13012093226
p4100
sVRemarkPYInitial
p4101
VYWYC
p4102
sVContactFlag
p4103
I3
sVUin
p4104
I0
sVNickName
p4105
V\u73cd\u60dc\u7f18\u5206
p4106
sVAppAccountFlag
p4107
I0
sVVerifyFlag
p4108
I0
sVRemarkPYQuanPin
p4109
Vyiwangyucai
p4110
sVHeadImgUrl
p4111
V/cgi-bin/mmwebwx-bin/webwxgeticon?seq=662773056&username=@29ef82c1754f6203400cc469ebbf80c5b7934fbb2844e59a9bed89c4bf9eb809&skey=@crypt_9c3dea4c_60ecfb2e75ead15f0cee966311a887cd
p4112
sVKeyWord
p4113
g56
sVProvince
p4114
V\u6cb3\u5317
p4115
sVPYInitial
p4116
VZXYF
p4117
sVRemarkName
p4118
V\u4f0a-\u738b\u7389\u624d
p4119
sVIsOwner
p4120
I0
sVSex
p4121
I1
sVStarFriend
p4122
I0
sVHideInputBarFlag
p4123
I0
sVChatRoomId
p4124
I0
sVEncryChatRoomId
p4125
g56
sVAttrStatus
p4126
I4257
sVStatues
p4127
I0
stp4128
Rp4129
I1
bag34
(g38
g39
(dp4130
VUserName
p4131
V@f1733a24f826727a6726a5f09a0e7d77
p4132
sVCity
p4133
V\u77f3\u5bb6\u5e84
p4134
sVSnsFlag
p4135
I17
sVDisplayName
p4136
g56
sVUniFriend
p4137
I0
sVMemberCount
p4138
I0
sVOwnerUin
p4139
I0
sVMemberList
p4140
g52
sVAlias
p4141
g56
sVPYQuanPin
p4142
Vyongheng
p4143
sVSignature
p4144
V\u6211\u8fd8\u80fd\u8bf4\u4ec0\u4e48\u5462\uff1f\u6211\u81ea\u5df1\u90fd\u65e0\u8bed
p4145
sVRemarkPYInitial
p4146
VMJXNWX
p4147
sVContactFlag
p4148
I3
sVUin
p4149
I0
sVNickName
p4150
V\u6c38\u6052
p4151
sVAppAccountFlag
p4152
I0
sVVerifyFlag
p4153
I0
sVRemarkPYQuanPin
p4154
Vmujinxinianwangxiao
p4155
sVHeadImgUrl
p4156
V/cgi-bin/mmwebwx-bin/webwxgeticon?seq=662790806&username=@f1733a24f826727a6726a5f09a0e7d77&skey=@crypt_9c3dea4c_60ecfb2e75ead15f0cee966311a887cd
p4157
sVKeyWord
p4158
Vwei
p4159
sVProvince
p4160
V\u6cb3\u5317
p4161
sVPYInitial
p4162
VYH
p4163
sVRemarkName
p4164
V\u6728\u69ff\u6614\u5e74\uff0d\u738b\u7b11
p4165
sVIsOwner
p4166
I0
sVSex
p4167
I2
sVStarFriend
p4168
I0
sVHideInputBarFlag
p4169
I0
sVChatRoomId
p4170
I0
sVEncryChatRoomId
p4171
g56
sVAttrStatus
p4172
I143463
sVStatues
p4173
I0
stp4174
Rp4175
I1
bag34
(g38
g39
(dp4176
VUserName
p4177
V@442c384b12e05511530d7a963a1a9a7de5ff4e80693cee14f9d8a3423350f378
p4178
sVCity
p4179
V\u77f3\u5bb6\u5e84
p4180
sVSnsFlag
p4181
I17
sVDisplayName
p4182
g56
sVUniFriend
p4183
I0
sVMemberCount
p4184
I0
sVOwnerUin
p4185
I0
sVMemberList
p4186
g52
sVAlias
p4187
g56
sVPYQuanPin
p4188
Vqingfengliuyun
p4189
sVSignature
p4190
V\u505a\u4e00\u4e2a\u6de1\u6de1\u7684\u5973\u5b50
p4191
sVRemarkPYInitial
p4192
VSDLLY
p4193
sVContactFlag
p4194
I3
sVUin
p4195
I0
sVNickName
p4196
V\u6e05\u98ce\u6d41\u4e91
p4197
sVAppAccountFlag
p4198
I0
sVVerifyFlag
p4199
I0
sVRemarkPYQuanPin
p4200
Vsandaliulingyun
p4201
sVHeadImgUrl
p4202
V/cgi-bin/mmwebwx-bin/webwxgeticon?seq=662791053&username=@442c384b12e05511530d7a963a1a9a7de5ff4e80693cee14f9d8a3423350f378&skey=@crypt_9c3dea4c_60ecfb2e75ead15f0cee966311a887cd
p4203
sVKeyWord
p4204
g56
sVProvince
p4205
V\u6cb3\u5317
p4206
sVPYInitial
p4207
VQFLY
p4208
sVRemarkName
p4209
V\u4e09\u5927-\u5218\u51cc\u4e91
p4210
sVIsOwner
p4211
I0
sVSex
p4212
I2
sVStarFriend
p4213
I0
sVHideInputBarFlag
p4214
I0
sVChatRoomId
p4215
I0
sVEncryChatRoomId
p4216
g56
sVAttrStatus
p4217
I4133
sVStatues
p4218
I0
stp4219
Rp4220
I1
bag34
(g38
g39
(dp4221
VUserName
p4222
V@866ff2e5d70279305fde71db9ae7f809
p4223
sVCity
p4224
V\u4e1c\u57ce
p4225
sVSnsFlag
p4226
I17
sVDisplayName
p4227
g56
sVUniFriend
p4228
I0
sVMemberCount
p4229
I0
sVOwnerUin
p4230
I0
sVMemberList
p4231
g52
sVAlias
p4232
g56
sVPYQuanPin
p4233
VVIPKIDkechengguwenzhuguanPeterspanclassemojiemoji1f433span
p4234
sVSignature
p4235
V\u624b\u673a\u53f713311515218
p4236
sVRemarkPYInitial
p4237
VWZMKTYYJY
p4238
sVContactFlag
p4239
I3
sVUin
p4240
I0
sVNickName
p4241
VVIPKID\u8bfe\u7a0b\u987e\u95ee\u4e3b\u7ba1Peter\U0001f433
p4242
sVAppAccountFlag
p4243
I0
sVVerifyFlag
p4244
I0
sVRemarkPYQuanPin
p4245
Vwuzhongmaketaiyingyujiaoyu
p4246
sVHeadImgUrl
p4247
V/cgi-bin/mmwebwx-bin/webwxgeticon?seq=662791578&username=@866ff2e5d70279305fde71db9ae7f809&skey=@crypt_9c3dea4c_60ecfb2e75ead15f0cee966311a887cd
p4248
sVKeyWord
p4249
Vmak
p4250
sVProvince
p4251
V\u5317\u4eac
p4252
sVPYInitial
p4253
VVIPKIDKCGWZGPETERSPANCLASSEMOJIEMOJI1F433SPAN
p4254
sVRemarkName
p4255
V\u6b66\u4e2d-\u9a6c\u79d1\u6cf0-\u82f1\u8bed\u6559\u80b2
p4256
sVIsOwner
p4257
I0
sVSex
p4258
I1
sVStarFriend
p4259
I0
sVHideInputBarFlag
p4260
I0
sVChatRoomId
p4261
I0
sVEncryChatRoomId
p4262
g56
sVAttrStatus
p4263
I99365
sVStatues
p4264
I0
stp4265
Rp4266
I1
bag34
(g38
g39
(dp4267
VUserName
p4268
V@768afeb891157b05b65d30dd888fec73651f1d470b3444a7966bccfa72ad8c04
p4269
sVCity
p4270
g56
sVSnsFlag
p4271
I17
sVDisplayName
p4272
g56
sVUniFriend
p4273
I0
sVMemberCount
p4274
I0
sVOwnerUin
p4275
I0
sVMemberList
p4276
g52
sVAlias
p4277
g56
sVPYQuanPin
p4278
Vaimilier
p4279
sVSignature
p4280
V\u6211\u8be5\u4e0b\u5b9a\u51b3\u5fc3\u4e86\u5427\uff1f\uff01
p4281
sVRemarkPYInitial
p4282
VBHCMM01
p4283
sVContactFlag
p4284
I3
sVUin
p4285
I0
sVNickName
p4286
V\u7231\u7c73\u7c92\u513f
p4287
sVAppAccountFlag
p4288
I0
sVVerifyFlag
p4289
I0
sVRemarkPYQuanPin
p4290
Vbinhecuimengmeng01
p4291
sVHeadImgUrl
p4292
V/cgi-bin/mmwebwx-bin/webwxgeticon?seq=662768192&username=@768afeb891157b05b65d30dd888fec73651f1d470b3444a7966bccfa72ad8c04&skey=@crypt_9c3dea4c_60ecfb2e75ead15f0cee966311a887cd
p4293
sVKeyWord
p4294
g56
sVProvince
p4295
g56
sVPYInitial
p4296
VAMLE
p4297
sVRemarkName
p4298
V\u6ee8\u6cb3-\u5d14\u8499\u8499-01
p4299
sVIsOwner
p4300
I0
sVSex
p4301
I2
sVStarFriend
p4302
I0
sVHideInputBarFlag
p4303
I0
sVChatRoomId
p4304
I0
sVEncryChatRoomId
p4305
g56
sVAttrStatus
p4306
I33731685
sVStatues
p4307
I0
stp4308
Rp4309
I1
bag34
(g38
g39
(dp4310
VUserName
p4311
V@5472911fdf65f894819049ec8b2e2223
p4312
sVCity
p4313
V\u9a6c\u978d\u5c71
p4314
sVSnsFlag
p4315
I17
sVDisplayName
p4316
g56
sVUniFriend
p4317
I0
sVMemberCount
p4318
I0
sVOwnerUin
p4319
I0
sVMemberList
p4320
g52
sVAlias
p4321
g56
sVPYQuanPin
p4322
Vyulinjun
p4323
sVSignature
p4324
V\u6c34\u53ef\u8f7d\u821f\uff0c\u4ea6\u53ef\u8d5b\u8247
p4325
sVRemarkPYInitial
p4326
VALFY
p4327
sVContactFlag
p4328
I3
sVUin
p4329
I0
sVNickName
p4330
V\u5fa1\u6797\u83cc
p4331
sVAppAccountFlag
p4332
I0
sVVerifyFlag
p4333
I0
sVRemarkPYQuanPin
p4334
Vanlifangyu
p4335
sVHeadImgUrl
p4336
V/cgi-bin/mmwebwx-bin/webwxgeticon?seq=662792065&username=@5472911fdf65f894819049ec8b2e2223&skey=@crypt_9c3dea4c_60ecfb2e75ead15f0cee966311a887cd
p4337
sVKeyWord
p4338
Vfan
p4339
sVProvince
p4340
V\u5b89\u5fbd
p4341
sVPYInitial
p4342
VYLJ
p4343
sVRemarkName
p4344
V\u5b89\u7406-\u65b9\u6631
p4345
sVIsOwner
p4346
I0
sVSex
p4347
I1
sVStarFriend
p4348
I0
sVHideInputBarFlag
p4349
I0
sVChatRoomId
p4350
I0
sVEncryChatRoomId
p4351
g56
sVAttrStatus
p4352
I99263
sVStatues
p4353
I0
stp4354
Rp4355
I1
bag34
(g38
g39
(dp4356
VUserName
p4357
V@4a3d76e801d6fc3b1fe3c471d18faff51598b894f4e9ab622d74ee5cf0d69ca8
p4358
sVCity
p4359
V\u660c\u5e73
p4360
sVSnsFlag
p4361
I17
sVDisplayName
p4362
g56
sVUniFriend
p4363
I0
sVMemberCount
p4364
I0
sVOwnerUin
p4365
I0
sVMemberList
p4366
g52
sVAlias
p4367
g56
sVPYQuanPin
p4368
Vshizixiaoxi
p4369
sVSignature
p4370
VFiat Lux.
p4371
sVRemarkPYInitial
p4372
VYZXNYYBJ
p4373
sVContactFlag
p4374
I8195
sVUin
p4375
I0
sVNickName
p4376
V\u5341\u5b57\u5c0f\u6eaa
p4377
sVAppAccountFlag
p4378
I0
sVVerifyFlag
p4379
I0
sVRemarkPYQuanPin
p4380
Vyizhangxiaonayingyubeijing
p4381
sVHeadImgUrl
p4382
V/cgi-bin/mmwebwx-bin/webwxgeticon?seq=662703684&username=@4a3d76e801d6fc3b1fe3c471d18faff51598b894f4e9ab622d74ee5cf0d69ca8&skey=@crypt_9c3dea4c_60ecfb2e75ead15f0cee966311a887cd
p4383
sVKeyWord
p4384
g56
sVProvince
p4385
V\u5317\u4eac
p4386
sVPYInitial
p4387
VSZXX
p4388
sVRemarkName
p4389
V\u4f0a-\u5f20\u6653\u5a1c-\u82f1\u8bed-\u5317\u4eac
p4390
sVIsOwner
p4391
I0
sVSex
p4392
I1
sVStarFriend
p4393
I0
sVHideInputBarFlag
p4394
I0
sVChatRoomId
p4395
I0
sVEncryChatRoomId
p4396
g56
sVAttrStatus
p4397
I98661
sVStatues
p4398
I0
stp4399
Rp4400
I1
bag34
(g38
g39
(dp4401
VUserName
p4402
V@aaa568d8562b7a73387e8c04406a4cb6169fe9d6b537ea83531b321ec05fadd1
p4403
sVCity
p4404
g56
sVSnsFlag
p4405
I1
sVDisplayName
p4406
g56
sVUniFriend
p4407
I0
sVMemberCount
p4408
I0
sVOwnerUin
p4409
I0
sVMemberList
p4410
g52
sVAlias
p4411
g56
sVPYQuanPin
p4412
Vgangliang
p4413
sVSignature
p4414
V\u6ca7\u6d77\u4e00\u7b11\uff0c\u4e8e\u7e41\u534e\u843d\u5c3d\u6d17\u5c3d\u94c5\u534e\uff0c\u4e0d\u95fb\u5343\u5c71\u66ae\u96ea\u6697\u9999\u6d6e\u6e38
p4415
sVRemarkPYInitial
p4416
VALGL
p4417
sVContactFlag
p4418
I3
sVUin
p4419
I0
sVNickName
p4420
V\u92fc\u6881
p4421
sVAppAccountFlag
p4422
I0
sVVerifyFlag
p4423
I0
sVRemarkPYQuanPin
p4424
Vanligangliang
p4425
sVHeadImgUrl
p4426
V/cgi-bin/mmwebwx-bin/webwxgeticon?seq=647560553&username=@aaa568d8562b7a73387e8c04406a4cb6169fe9d6b537ea83531b321ec05fadd1&skey=@crypt_9c3dea4c_60ecfb2e75ead15f0cee966311a887cd
p4427
sVKeyWord
p4428
g56
sVProvince
p4429
g56
sVPYInitial
p4430
VGL
p4431
sVRemarkName
p4432
V\u5b89\u7406-\u521a\u826f
p4433
sVIsOwner
p4434
I0
sVSex
p4435
I1
sVStarFriend
p4436
I0
sVHideInputBarFlag
p4437
I0
sVChatRoomId
p4438
I0
sVEncryChatRoomId
p4439
g56
sVAttrStatus
p4440
I17015679
sVStatues
p4441
I0
stp4442
Rp4443
I1
bag34
(g38
g39
(dp4444
VUserName
p4445
V@f04f78ca13fd3b2e6e8ae82714a97d94
p4446
sVCity
p4447
V\u676d\u5dde
p4448
sVSnsFlag
p4449
I49
sVDisplayName
p4450
g56
sVUniFriend
p4451
I0
sVMemberCount
p4452
I0
sVOwnerUin
p4453
I0
sVMemberList
p4454
g52
sVAlias
p4455
g56
sVPYQuanPin
p4456
Vduola
p4457
sVSignature
p4458
V\u81ea\u6211\u8fed\u4ee3\u8005
p4459
sVRemarkPYInitial
p4460
VHKTQHR
p4461
sVContactFlag
p4462
I3
sVUin
p4463
I0
sVNickName
p4464
V\u6735\u62c9
p4465
sVAppAccountFlag
p4466
I0
sVVerifyFlag
p4467
I0
sVRemarkPYQuanPin
p4468
VhaiketangqianHR
p4469
sVHeadImgUrl
p4470
V/cgi-bin/mmwebwx-bin/webwxgeticon?seq=662793260&username=@f04f78ca13fd3b2e6e8ae82714a97d94&skey=@crypt_9c3dea4c_60ecfb2e75ead15f0cee966311a887cd
p4471
sVKeyWord
p4472
Vtan
p4473
sVProvince
p4474
V\u6d59\u6c5f
p4475
sVPYInitial
p4476
VDL
p4477
sVRemarkName
p4478
V\u6c26\u6c2a-\u5510\u5029--HR
p4479
sVIsOwner
p4480
I0
sVSex
p4481
I2
sVStarFriend
p4482
I0
sVHideInputBarFlag
p4483
I0
sVChatRoomId
p4484
I0
sVEncryChatRoomId
p4485
g56
sVAttrStatus
p4486
I229687
sVStatues
p4487
I0
stp4488
Rp4489
I1
bag34
(g38
g39
(dp4490
VUserName
p4491
V@25653b64e83ec60c5bcb4ff190d4a4d5
p4492
sVCity
p4493
V\u5e38\u5dde
p4494
sVSnsFlag
p4495
I49
sVDisplayName
p4496
g56
sVUniFriend
p4497
I0
sVMemberCount
p4498
I0
sVOwnerUin
p4499
I0
sVMemberList
p4500
g52
sVAlias
p4501
g56
sVPYQuanPin
p4502
VBOBBYspanclassemojiemoji1f388span
p4503
sVSignature
p4504
V\u6211\u80fd\u60f3\u5230\u6700\u6d6a\u6f2b\u7684\u4e8b\uff0c\u5c31\u662f\u548c\u4f60\u4e00\u8d77\u653e\u5f03\u6cbb\u7597\u2026
p4505
sVRemarkPYInitial
p4506
VMTCBQDCZ
p4507
sVContactFlag
p4508
I3
sVUin
p4509
I0
sVNickName
p4510
VBOBBY\U0001f388
p4511
sVAppAccountFlag
p4512
I0
sVVerifyFlag
p4513
I0
sVRemarkPYQuanPin
p4514
Vmaitianchenbinqianduanchangzhou
p4515
sVHeadImgUrl
p4516
V/cgi-bin/mmwebwx-bin/webwxgeticon?seq=662793348&username=@25653b64e83ec60c5bcb4ff190d4a4d5&skey=@crypt_9c3dea4c_60ecfb2e75ead15f0cee966311a887cd
p4517
sVKeyWord
p4518
Vlun
p4519
sVProvince
p4520
V\u6c5f\u82cf
p4521
sVPYInitial
p4522
VBOBBYSPANCLASSEMOJIEMOJI1F388SPAN
p4523
sVRemarkName
p4524
V\u9ea6\u7530-\u9648\u658c-\u524d\u7aef-\u5e38\u5dde
p4525
sVIsOwner
p4526
I0
sVSex
p4527
I1
sVStarFriend
p4528
I0
sVHideInputBarFlag
p4529
I0
sVChatRoomId
p4530
I0
sVEncryChatRoomId
p4531
g56
sVAttrStatus
p4532
I106623
sVStatues
p4533
I0
stp4534
Rp4535
I1
bag34
(g38
g39
(dp4536
VUserName
p4537
V@7d148c7496db3c04c88f5b919491401243b6c7d4409511066b283e7b5a2aeb59
p4538
sVCity
p4539
V\u6dee\u5357
p4540
sVSnsFlag
p4541
I17
sVDisplayName
p4542
g56
sVUniFriend
p4543
I0
sVMemberCount
p4544
I0
sVOwnerUin
p4545
I0
sVMemberList
p4546
g52
sVAlias
p4547
g56
sVPYQuanPin
p4548
Vjingtianxin
p4549
sVSignature
p4550
g56
sVRemarkPYInitial
p4551
VALLYJ
p4552
sVContactFlag
p4553
I3
sVUin
p4554
I0
sVNickName
p4555
V\u955c\u5929\u5fc3
p4556
sVAppAccountFlag
p4557
I0
sVVerifyFlag
p4558
I0
sVRemarkPYQuanPin
p4559
Vanliliyuanju
p4560
sVHeadImgUrl
p4561
V/cgi-bin/mmwebwx-bin/webwxgeticon?seq=662793379&username=@7d148c7496db3c04c88f5b919491401243b6c7d4409511066b283e7b5a2aeb59&skey=@crypt_9c3dea4c_60ecfb2e75ead15f0cee966311a887cd
p4562
sVKeyWord
p4563
g56
sVProvince
p4564
V\u5b89\u5fbd
p4565
sVPYInitial
p4566
VJTX
p4567
sVRemarkName
p4568
V\u5b89\u7406-\u9ece\u8fdc\u83ca
p4569
sVIsOwner
p4570
I0
sVSex
p4571
I2
sVStarFriend
p4572
I0
sVHideInputBarFlag
p4573
I0
sVChatRoomId
p4574
I0
sVEncryChatRoomId
p4575
g56
sVAttrStatus
p4576
I17008509
sVStatues
p4577
I0
stp4578
Rp4579
I1
bag34
(g38
g39
(dp4580
VUserName
p4581
V@2f843c9824fbeddc3b79ab78bb97f828fe28a9978149d223f581f40b183c4012
p4582
sVCity
p4583
V\u4fdd\u5b9a
p4584
sVSnsFlag
p4585
I49
sVDisplayName
p4586
g56
sVUniFriend
p4587
I0
sVMemberCount
p4588
I0
sVOwnerUin
p4589
I0
sVMemberList
p4590
g52
sVAlias
p4591
g56
sVPYQuanPin
p4592
Vtaoyuanjinsi
p4593
sVSignature
p4594
g56
sVRemarkPYInitial
p4595
VWZWZWQCWX
p4596
sVContactFlag
p4597
I3
sVUin
p4598
I0
sVNickName
p4599
V\u6843\u56ed\u91d1\u4e1d
p4600
sVAppAccountFlag
p4601
I0
sVVerifyFlag
p4602
I0
sVRemarkPYQuanPin
p4603
Vwuzhongwangzhiweiqicheweixiu
p4604
sVHeadImgUrl
p4605
V/cgi-bin/mmwebwx-bin/webwxgeticon?seq=662793460&username=@2f843c9824fbeddc3b79ab78bb97f828fe28a9978149d223f581f40b183c4012&skey=@crypt_9c3dea4c_60ecfb2e75ead15f0cee966311a887cd
p4606
sVKeyWord
p4607
g56
sVProvince
p4608
V\u6cb3\u5317
p4609
sVPYInitial
p4610
VTYJS
p4611
sVRemarkName
p4612
V\u6b66\u4e2d-\u738b\u5fd7\u4f1f-\u6c7d\u8f66\u7ef4\u4fee
p4613
sVIsOwner
p4614
I0
sVSex
p4615
I1
sVStarFriend
p4616
I0
sVHideInputBarFlag
p4617
I0
sVChatRoomId
p4618
I0
sVEncryChatRoomId
p4619
g56
sVAttrStatus
p4620
I104485
sVStatues
p4621
I0
stp4622
Rp4623
I1
bag34
(g38
g39
(dp4624
VUserName
p4625
V@f74485a33e729c0f8849a6d8c92fab38f17f16fc0f696d4388b69bc516cde10f
p4626
sVCity
p4627
V\u6d66\u4e1c\u65b0\u533a
p4628
sVSnsFlag
p4629
I49
sVDisplayName
p4630
g56
sVUniFriend
p4631
I0
sVMemberCount
p4632
I0
sVOwnerUin
p4633
I0
sVMemberList
p4634
g52
sVAlias
p4635
g56
sVPYQuanPin
p4636
Vmenghuan
p4637
sVSignature
p4638
g56
sVRemarkPYInitial
p4639
VALYWF
p4640
sVContactFlag
p4641
I3
sVUin
p4642
I0
sVNickName
p4643
V\u68a6\u5e7b
p4644
sVAppAccountFlag
p4645
I0
sVVerifyFlag
p4646
I0
sVRemarkPYQuanPin
p4647
Vanliyuwangfang
p4648
sVHeadImgUrl
p4649
V/cgi-bin/mmwebwx-bin/webwxgeticon?seq=647565845&username=@f74485a33e729c0f8849a6d8c92fab38f17f16fc0f696d4388b69bc516cde10f&skey=@crypt_9c3dea4c_60ecfb2e75ead15f0cee966311a887cd
p4650
sVKeyWord
p4651
g56
sVProvince
p4652
V\u4e0a\u6d77
p4653
sVPYInitial
p4654
VMH
p4655
sVRemarkName
p4656
V\u5b89\u7406-\u4f59\u738b\u65b9
p4657
sVIsOwner
p4658
I0
sVSex
p4659
I1
sVStarFriend
p4660
I0
sVHideInputBarFlag
p4661
I0
sVChatRoomId
p4662
I0
sVEncryChatRoomId
p4663
g56
sVAttrStatus
p4664
I102501
sVStatues
p4665
I0
stp4666
Rp4667
I1
bag34
(g38
g39
(dp4668
VUserName
p4669
V@06e6b29653e821856ec0ccfbf6b02faf
p4670
sVCity
p4671
V\u676d\u5dde
p4672
sVSnsFlag
p4673
I17
sVDisplayName
p4674
g56
sVUniFriend
p4675
I0
sVMemberCount
p4676
I0
sVOwnerUin
p4677
I0
sVMemberList
p4678
g52
sVAlias
p4679
g56
sVPYQuanPin
p4680
VLispanclassemojiemoji1f43espan
p4681
sVSignature
p4682
V\u5fcd\u4f4f\u4f60\u7684\u75db\u82e6\uff0c\u4e0d\u53d1\u4e00\u8bed\uff0c\u7a7f\u8fc7\u8fd9\u6574\u5ea7\u57ce\u5e02......
p4683
sVRemarkPYInitial
p4684
VHKMXLQD
p4685
sVContactFlag
p4686
I3
sVUin
p4687
I0
sVNickName
p4688
VLi\U0001f43e
p4689
sVAppAccountFlag
p4690
I0
sVVerifyFlag
p4691
I0
sVRemarkPYQuanPin
p4692
Vhaikemaxiaoliqianduan
p4693
sVHeadImgUrl
p4694
V/cgi-bin/mmwebwx-bin/webwxgeticon?seq=662713715&username=@06e6b29653e821856ec0ccfbf6b02faf&skey=@crypt_9c3dea4c_60ecfb2e75ead15f0cee966311a887cd
p4695
sVKeyWord
p4696
Vmax
p4697
sVProvince
p4698
V\u6d59\u6c5f
p4699
sVPYInitial
p4700
VLISPANCLASSEMOJIEMOJI1F43ESPAN
p4701
sVRemarkName
p4702
V\u6c26\u6c2a-\u9a6c\u5c0f\u4e3d-\u524d\u7aef
p4703
sVIsOwner
p4704
I0
sVSex
p4705
I2
sVStarFriend
p4706
I0
sVHideInputBarFlag
p4707
I0
sVChatRoomId
p4708
I0
sVEncryChatRoomId
p4709
g56
sVAttrStatus
p4710
I17018981
sVStatues
p4711
I0
stp4712
Rp4713
I1
bag34
(g38
g39
(dp4714
VUserName
p4715
V@46c44f969f7c9711421e36a13fad6fb6
p4716
sVCity
p4717
V\u676d\u5dde
p4718
sVSnsFlag
p4719
I49
sVDisplayName
p4720
g56
sVUniFriend
p4721
I0
sVMemberCount
p4722
I0
sVOwnerUin
p4723
I0
sVMemberList
p4724
g52
sVAlias
p4725
g56
sVPYQuanPin
p4726
Vhuabutoujixianchengduo
p4727
sVSignature
p4728
g56
sVRemarkPYInitial
p4729
VHWSQYHSB
p4730
sVContactFlag
p4731
I3
sVUin
p4732
I0
sVNickName
p4733
V\u8bdd\u4e0d\u6295\u673a\u9c9c\u6a59\u591a
p4734
sVAppAccountFlag
p4735
I0
sVVerifyFlag
p4736
I0
sVRemarkPYQuanPin
p4737
Vhangwangshiqiyouhushebei
p4738
sVHeadImgUrl
p4739
V/cgi-bin/mmwebwx-bin/webwxgeticon?seq=662717814&username=@46c44f969f7c9711421e36a13fad6fb6&skey=@crypt_9c3dea4c_60ecfb2e75ead15f0cee966311a887cd
p4740
sVKeyWord
p4741
Vwsq
p4742
sVProvince
p4743
V\u6d59\u6c5f
p4744
sVPYInitial
p4745
VHBTJXCD
p4746
sVRemarkName
p4747
V\u676d-\u738b\u4e16\u7426-\u6e38\u620f\u8bbe\u5907
p4748
sVIsOwner
p4749
I0
sVSex
p4750
I1
sVStarFriend
p4751
I0
sVHideInputBarFlag
p4752
I0
sVChatRoomId
p4753
I0
sVEncryChatRoomId
p4754
g56
sVAttrStatus
p4755
I67623
sVStatues
p4756
I0
stp4757
Rp4758
I1
bag34
(g38
g39
(dp4759
VUserName
p4760
V@6fd5bff0c37efe0dbaa1911183a679da37a9b33ec3adfe7bc163230045ffae42
p4761
sVCity
p4762
g56
sVSnsFlag
p4763
I1
sVDisplayName
p4764
g56
sVUniFriend
p4765
I0
sVMemberCount
p4766
I0
sVOwnerUin
p4767
I0
sVMemberList
p4768
g52
sVAlias
p4769
g56
sVPYQuanPin
p4770
Vhuangsanlian
p4771
sVSignature
p4772
V\u5f00\u5fc3\u6bcf\u4e00\u5929
p4773
sVRemarkPYInitial
p4774
VXHLHSLPABXWZ
p4775
sVContactFlag
p4776
I3
sVUin
p4777
I0
sVNickName
p4778
V\u9ec4\u4e09\u8fde
p4779
sVAppAccountFlag
p4780
I0
sVVerifyFlag
p4781
I0
sVRemarkPYQuanPin
p4782
Vxihulinhuangsanlianpinganbaoxianwenzhou
p4783
sVHeadImgUrl
p4784
V/cgi-bin/mmwebwx-bin/webwxgeticon?seq=662762818&username=@6fd5bff0c37efe0dbaa1911183a679da37a9b33ec3adfe7bc163230045ffae42&skey=@crypt_9c3dea4c_60ecfb2e75ead15f0cee966311a887cd
p4785
sVKeyWord
p4786
g56
sVProvince
p4787
g56
sVPYInitial
p4788
VHSL
p4789
sVRemarkName
p4790
V\u897f\u80e1\u6797-\u9ec4\u4e09\u8fde-\u5e73\u5b89\u4fdd\u9669-\u6e29\u5dde
p4791
sVIsOwner
p4792
I0
sVSex
p4793
I2
sVStarFriend
p4794
I0
sVHideInputBarFlag
p4795
I0
sVChatRoomId
p4796
I0
sVEncryChatRoomId
p4797
g56
sVAttrStatus
p4798
I102437
sVStatues
p4799
I0
stp4800
Rp4801
I1
bag34
(g38
g39
(dp4802
VUserName
p4803
V@a83e33913341e6d7546e0c042aedbdeb895c25ded1ec7d05ff111a8b09f8f805
p4804
sVCity
p4805
V\u77f3\u5bb6\u5e84
p4806
sVSnsFlag
p4807
I17
sVDisplayName
p4808
g56
sVUniFriend
p4809
I0
sVMemberCount
p4810
I0
sVOwnerUin
p4811
I0
sVMemberList
p4812
g52
sVAlias
p4813
g56
sVPYQuanPin
p4814
Vsaiyu
p4815
sVSignature
p4816
g56
sVRemarkPYInitial
p4817
VSCSYZH
p4818
sVContactFlag
p4819
I3
sVUin
p4820
I0
sVNickName
p4821
V\u601d\u96e8
p4822
sVAppAccountFlag
p4823
I0
sVVerifyFlag
p4824
I0
sVRemarkPYQuanPin
p4825
Vshichensaiyuzihua
p4826
sVHeadImgUrl
p4827
V/cgi-bin/mmwebwx-bin/webwxgeticon?seq=662712725&username=@a83e33913341e6d7546e0c042aedbdeb895c25ded1ec7d05ff111a8b09f8f805&skey=@crypt_9c3dea4c_60ecfb2e75ead15f0cee966311a887cd
p4828
sVKeyWord
p4829
g56
sVProvince
p4830
V\u6cb3\u5317
p4831
sVPYInitial
p4832
VSY
p4833
sVRemarkName
p4834
V\u77f3-\u9648\u601d\u96e8-\u5b57\u753b
p4835
sVIsOwner
p4836
I0
sVSex
p4837
I2
sVStarFriend
p4838
I0
sVHideInputBarFlag
p4839
I0
sVChatRoomId
p4840
I0
sVEncryChatRoomId
p4841
g56
sVAttrStatus
p4842
I4133
sVStatues
p4843
I0
stp4844
Rp4845
I1
bag34
(g38
g39
(dp4846
VUserName
p4847
V@1f2047527997993f795a328e9e712cd9a85b4d51277a173cbb489f00a5fe1718
p4848
sVCity
p4849
V\u671d\u9633
p4850
sVSnsFlag
p4851
I145
sVDisplayName
p4852
g56
sVUniFriend
p4853
I0
sVMemberCount
p4854
I0
sVOwnerUin
p4855
I0
sVMemberList
p4856
g52
sVAlias
p4857
g56
sVPYQuanPin
p4858
Vtaohuakai
p4859
sVSignature
p4860
V\u5f00\u5fc3\u5feb\u4e50\u6bcf\u4e00\u5929
p4861
sVRemarkPYInitial
p4862
VYWZT
p4863
sVContactFlag
p4864
I3
sVUin
p4865
I0
sVNickName
p4866
V\u6843\u82b1\u5f00
p4867
sVAppAccountFlag
p4868
I0
sVVerifyFlag
p4869
I0
sVRemarkPYQuanPin
p4870
Vyiwangzhitao
p4871
sVHeadImgUrl
p4872
V/cgi-bin/mmwebwx-bin/webwxgeticon?seq=662712539&username=@1f2047527997993f795a328e9e712cd9a85b4d51277a173cbb489f00a5fe1718&skey=@crypt_9c3dea4c_60ecfb2e75ead15f0cee966311a887cd
p4873
sVKeyWord
p4874
g56
sVProvince
p4875
V\u5317\u4eac
p4876
sVPYInitial
p4877
VTHK
p4878
sVRemarkName
p4879
V\u4f0a-\u738b\u5fd7\u6d9b
p4880
sVIsOwner
p4881
I0
sVSex
p4882
I1
sVStarFriend
p4883
I0
sVHideInputBarFlag
p4884
I0
sVChatRoomId
p4885
I0
sVEncryChatRoomId
p4886
g56
sVAttrStatus
p4887
I16781413
sVStatues
p4888
I0
stp4889
Rp4890
I1
bag34
(g38
g39
(dp4891
VUserName
p4892
V@dae6d839863793aae80c2bbcdf5816f9ae90cc29abdd54608629eb23f95752b6
p4893
sVCity
p4894
V\u6e29\u5dde
p4895
sVSnsFlag
p4896
I177
sVDisplayName
p4897
g56
sVUniFriend
p4898
I0
sVMemberCount
p4899
I0
sVOwnerUin
p4900
I0
sVMemberList
p4901
g52
sVAlias
p4902
g56
sVPYQuanPin
p4903
Vriyaomifei
p4904
sVSignature
p4905
g56
sVRemarkPYInitial
p4906
VMTZXMHR
p4907
sVContactFlag
p4908
I3
sVUin
p4909
I0
sVNickName
p4910
V\u65e5\u7476-\u7c73\u83f2
p4911
sVAppAccountFlag
p4912
I0
sVVerifyFlag
p4913
I0
sVRemarkPYQuanPin
p4914
Vmaitianzhangxiaomeihr
p4915
sVHeadImgUrl
p4916
V/cgi-bin/mmwebwx-bin/webwxgeticon?seq=662746015&username=@dae6d839863793aae80c2bbcdf5816f9ae90cc29abdd54608629eb23f95752b6&skey=@crypt_9c3dea4c_60ecfb2e75ead15f0cee966311a887cd
p4917
sVKeyWord
p4918
Vzha
p4919
sVProvince
p4920
V\u6d59\u6c5f
p4921
sVPYInitial
p4922
VRYMF
p4923
sVRemarkName
p4924
V\u9ea6\u7530-\u5f20\u6653\u6885-hr
p4925
sVIsOwner
p4926
I0
sVSex
p4927
I2
sVStarFriend
p4928
I0
sVHideInputBarFlag
p4929
I0
sVChatRoomId
p4930
I0
sVEncryChatRoomId
p4931
g56
sVAttrStatus
p4932
I229629
sVStatues
p4933
I0
stp4934
Rp4935
I1
bag34
(g38
g39
(dp4936
VUserName
p4937
V@42e51a8e39177b6c18d6525f8ce2f950
p4938
sVCity
p4939
g56
sVSnsFlag
p4940
I17
sVDisplayName
p4941
g56
sVUniFriend
p4942
I0
sVMemberCount
p4943
I0
sVOwnerUin
p4944
I0
sVMemberList
p4945
g52
sVAlias
p4946
g56
sVPYQuanPin
p4947
Vamituofomemeda
p4948
sVSignature
p4949
g56
sVRemarkPYInitial
p4950
VWZTXTYX
p4951
sVContactFlag
p4952
I3
sVUin
p4953
I0
sVNickName
p4954
V\u963f\u5f25\u9640\u4f5b\u4e48\u4e48\u54d2
p4955
sVAppAccountFlag
p4956
I0
sVVerifyFlag
p4957
I0
sVRemarkPYQuanPin
p4958
Vwuzhongtianxiaotongyixue
p4959
sVHeadImgUrl
p4960
V/cgi-bin/mmwebwx-bin/webwxgeticon?seq=662794446&username=@42e51a8e39177b6c18d6525f8ce2f950&skey=@crypt_9c3dea4c_60ecfb2e75ead15f0cee966311a887cd
p4961
sVKeyWord
p4962
Vtia
p4963
sVProvince
p4964
g56
sVPYInitial
p4965
VAMTFMMD
p4966
sVRemarkName
p4967
V\u6b66\u4e2d-\u7530\u6653\u5f64-\u533b\u5b66
p4968
sVIsOwner
p4969
I0
sVSex
p4970
I1
sVStarFriend
p4971
I0
sVHideInputBarFlag
p4972
I0
sVChatRoomId
p4973
I0
sVEncryChatRoomId
p4974
g56
sVAttrStatus
p4975
I106599
sVStatues
p4976
I0
stp4977
Rp4978
I1
bag34
(g38
g39
(dp4979
VUserName
p4980
V@af490524e79ef1d428b081c08bac423328b61f7ee517f0ca8f2782d9c5f3a0f1
p4981
sVCity
p4982
V\u8861\u6c34
p4983
sVSnsFlag
p4984
I17
sVDisplayName
p4985
g56
sVUniFriend
p4986
I0
sVMemberCount
p4987
I0
sVOwnerUin
p4988
I0
sVMemberList
p4989
g52
sVAlias
p4990
g56
sVPYQuanPin
p4991
Vmengtian
p4992
sVSignature
p4993
V\u70ed\u7231\u751f\u6d3b
p4994
sVRemarkPYInitial
p4995
VXYSMLYWHS
p4996
sVContactFlag
p4997
I1
sVUin
p4998
I0
sVNickName
p4999
V\u68a6\u7530
p5000
sVAppAccountFlag
p5001
I0
sVVerifyFlag
p5002
I0
sVRemarkPYQuanPin
p5003
Vxiuyuansunmeiliyuwenhengshui
p5004
sVHeadImgUrl
p5005
V/cgi-bin/mmwebwx-bin/webwxgeticon?seq=662795283&username=@af490524e79ef1d428b081c08bac423328b61f7ee517f0ca8f2782d9c5f3a0f1&skey=@crypt_9c3dea4c_60ecfb2e75ead15f0cee966311a887cd
p5006
sVKeyWord
p5007
g56
sVProvince
p5008
V\u6cb3\u5317
p5009
sVPYInitial
p5010
VMT
p5011
sVRemarkName
p5012
V\u4fee\u9662-\u5b59\u6885\u4e3d-\u8bed\u6587-\u8861\u6c34
p5013
sVIsOwner
p5014
I0
sVSex
p5015
I2
sVStarFriend
p5016
I0
sVHideInputBarFlag
p5017
I0
sVChatRoomId
p5018
I0
sVEncryChatRoomId
p5019
g56
sVAttrStatus
p5020
I2147586145
sVStatues
p5021
I0
stp5022
Rp5023
I1
bag34
(g38
g39
(dp5024
VUserName
p5025
V@cf4226df3d57b2b9e61a6c7e1cdcbea5b6bb2b016402c7e15f4e42228a0ee42c
p5026
sVCity
p5027
V\u8fbd\u9633
p5028
sVSnsFlag
p5029
I49
sVDisplayName
p5030
g56
sVUniFriend
p5031
I0
sVMemberCount
p5032
I0
sVOwnerUin
p5033
I0
sVMemberList
p5034
g52
sVAlias
p5035
g56
sVPYQuanPin
p5036
Vshiguangdaoliu
p5037
sVSignature
p5038
V\u5bf9\u4e0d\u8d77
p5039
sVRemarkPYInitial
p5040
VSLBSCY
p5041
sVContactFlag
p5042
I3
sVUin
p5043
I0
sVNickName
p5044
V\u65f6\u5149\u5012\u6d41
p5045
sVAppAccountFlag
p5046
I0
sVVerifyFlag
p5047
I0
sVRemarkPYQuanPin
p5048
Vshilibaisuicanyin
p5049
sVHeadImgUrl
p5050
V/cgi-bin/mmwebwx-bin/webwxgeticon?seq=662795453&username=@cf4226df3d57b2b9e61a6c7e1cdcbea5b6bb2b016402c7e15f4e42228a0ee42c&skey=@crypt_9c3dea4c_60ecfb2e75ead15f0cee966311a887cd
p5051
sVKeyWord
p5052
g56
sVProvince
p5053
V\u8fbd\u5b81
p5054
sVPYInitial
p5055
VSGDL
p5056
sVRemarkName
p5057
V\u77f3-\u674e\u767e\u5c81-\u9910\u996e
p5058
sVIsOwner
p5059
I0
sVSex
p5060
I1
sVStarFriend
p5061
I0
sVHideInputBarFlag
p5062
I0
sVChatRoomId
p5063
I0
sVEncryChatRoomId
p5064
g56
sVAttrStatus
p5065
I110693
sVStatues
p5066
I0
stp5067
Rp5068
I1
bag34
(g38
g39
(dp5069
VUserName
p5070
V@f627fb181e5da0f868cf00246d1de60523f5e200f283e7d15620284126c44760
p5071
sVCity
p5072
V\u77f3\u5bb6\u5e84
p5073
sVSnsFlag
p5074
I1
sVDisplayName
p5075
g56
sVUniFriend
p5076
I0
sVMemberCount
p5077
I0
sVOwnerUin
p5078
I0
sVMemberList
p5079
g52
sVAlias
p5080
g56
sVPYQuanPin
p5081
Vfei
p5082
sVSignature
p5083
g56
sVRemarkPYInitial
p5084
VSDLPFPABXSJZ
p5085
sVContactFlag
p5086
I3
sVUin
p5087
I0
sVNickName
p5088
V\u98de
p5089
sVAppAccountFlag
p5090
I0
sVVerifyFlag
p5091
I0
sVRemarkPYQuanPin
p5092
Vsandaliupengfeipinganbaoxianshijiazhuang
p5093
sVHeadImgUrl
p5094
V/cgi-bin/mmwebwx-bin/webwxgeticon?seq=647556348&username=@f627fb181e5da0f868cf00246d1de60523f5e200f283e7d15620284126c44760&skey=@crypt_9c3dea4c_60ecfb2e75ead15f0cee966311a887cd
p5095
sVKeyWord
p5096
g56
sVProvince
p5097
V\u6cb3\u5317
p5098
sVPYInitial
p5099
VF
p5100
sVRemarkName
p5101
V\u4e09\u5927-\u5218\u670b\u98de-\u5e73\u5b89\u4fdd\u9669-\u77f3\u5bb6\u5e84
p5102
sVIsOwner
p5103
I0
sVSex
p5104
I1
sVStarFriend
p5105
I0
sVHideInputBarFlag
p5106
I0
sVChatRoomId
p5107
I0
sVEncryChatRoomId
p5108
g56
sVAttrStatus
p5109
I102501
sVStatues
p5110
I0
stp5111
Rp5112
I1
bag34
(g38
g39
(dp5113
VUserName
p5114
V@b53263c8e2cd1d00197c40c8ab4cd31d
p5115
sVCity
p5116
V\u671d\u9633
p5117
sVSnsFlag
p5118
I177
sVDisplayName
p5119
g56
sVUniFriend
p5120
I0
sVMemberCount
p5121
I0
sVOwnerUin
p5122
I0
sVMemberList
p5123
g52
sVAlias
p5124
g56
sVPYQuanPin
p5125
Vzufangqingzhaowo
p5126
sVSignature
p5127
V\u9700\u8981\u5f88\u591a
p5128
sVRemarkPYInitial
p5129
VBJHZDZF
p5130
sVContactFlag
p5131
I3
sVUin
p5132
I0
sVNickName
p5133
V\u79df\u623f\u8bf7\u627e\u6211
p5134
sVAppAccountFlag
p5135
I0
sVVerifyFlag
p5136
I0
sVRemarkPYQuanPin
p5137
Vbeijinghezhendongzufang
p5138
sVHeadImgUrl
p5139
V/cgi-bin/mmwebwx-bin/webwxgeticon?seq=662765435&username=@b53263c8e2cd1d00197c40c8ab4cd31d&skey=@crypt_9c3dea4c_60ecfb2e75ead15f0cee966311a887cd
p5140
sVKeyWord
p5141
VWO9
p5142
sVProvince
p5143
V\u5317\u4eac
p5144
sVPYInitial
p5145
VZFQZW
p5146
sVRemarkName
p5147
V\u5317\u4eac-\u4f55\u632f\u4e1c-\u79df\u623f
p5148
sVIsOwner
p5149
I0
sVSex
p5150
I1
sVStarFriend
p5151
I0
sVHideInputBarFlag
p5152
I0
sVChatRoomId
p5153
I0
sVEncryChatRoomId
p5154
g56
sVAttrStatus
p5155
I69687
sVStatues
p5156
I0
stp5157
Rp5158
I1
bag34
(g38
g39
(dp5159
VUserName
p5160
V@fd02c53b6e2b3ff58e92a6dbb9c0709ada90a2cdf0750c59a3686b7655dcf89d
p5161
sVCity
p5162
V\u6210\u90fd
p5163
sVSnsFlag
p5164
I145
sVDisplayName
p5165
g56
sVUniFriend
p5166
I0
sVMemberCount
p5167
I0
sVOwnerUin
p5168
I0
sVMemberList
p5169
g52
sVAlias
p5170
g56
sVPYQuanPin
p5171
Vliweisheng
p5172
sVSignature
p5173
g56
sVRemarkPYInitial
p5174
VHKLWSWEBQD
p5175
sVContactFlag
p5176
I3
sVUin
p5177
I0
sVNickName
p5178
V\u674e\u851a\u751f
p5179
sVAppAccountFlag
p5180
I0
sVVerifyFlag
p5181
I0
sVRemarkPYQuanPin
p5182
Vhaikeliweishengwebqianduan
p5183
sVHeadImgUrl
p5184
V/cgi-bin/mmwebwx-bin/webwxgeticon?seq=662795904&username=@fd02c53b6e2b3ff58e92a6dbb9c0709ada90a2cdf0750c59a3686b7655dcf89d&skey=@crypt_9c3dea4c_60ecfb2e75ead15f0cee966311a887cd
p5185
sVKeyWord
p5186
g56
sVProvince
p5187
V\u56db\u5ddd
p5188
sVPYInitial
p5189
VLWS
p5190
sVRemarkName
p5191
V\u6c26\u6c2a-\u674e\u851a\u751f--web\u524d\u7aef
p5192
sVIsOwner
p5193
I0
sVSex
p5194
I1
sVStarFriend
p5195
I0
sVHideInputBarFlag
p5196
I0
sVChatRoomId
p5197
I0
sVEncryChatRoomId
p5198
g56
sVAttrStatus
p5199
I100709
sVStatues
p5200
I0
stp5201
Rp5202
I1
bag34
(g38
g39
(dp5203
VUserName
p5204
V@e444e27d0994fcc1d1f1a7a5a6eb691a41cfabc1a0519fc68fcc3c47958485b7
p5205
sVCity
p5206
g56
sVSnsFlag
p5207
I49
sVDisplayName
p5208
g56
sVUniFriend
p5209
I0
sVMemberCount
p5210
I0
sVOwnerUin
p5211
I0
sVMemberList
p5212
g52
sVAlias
p5213
g56
sVPYQuanPin
p5214
Vsunyijie
p5215
sVSignature
p5216
V\u8e0f\u8e0f\u5b9e\u5b9e\u76d6\u5927\u697c\u3002
p5217
sVRemarkPYInitial
p5218
VWZSYJKG
p5219
sVContactFlag
p5220
I3
sVUin
p5221
I0
sVNickName
p5222
V\u5b59\u6021\u6770
p5223
sVAppAccountFlag
p5224
I0
sVVerifyFlag
p5225
I0
sVRemarkPYQuanPin
p5226
Vwuzhongsunyijiekaogu
p5227
sVHeadImgUrl
p5228
V/cgi-bin/mmwebwx-bin/webwxgeticon?seq=662790236&username=@e444e27d0994fcc1d1f1a7a5a6eb691a41cfabc1a0519fc68fcc3c47958485b7&skey=@crypt_9c3dea4c_60ecfb2e75ead15f0cee966311a887cd
p5229
sVKeyWord
p5230
g56
sVProvince
p5231
V\u5929\u6d25
p5232
sVPYInitial
p5233
VSYJ
p5234
sVRemarkName
p5235
V\u6b66\u4e2d-\u5b59\u6021\u6770--\u8003\u53e4
p5236
sVIsOwner
p5237
I0
sVSex
p5238
I2
sVStarFriend
p5239
I0
sVHideInputBarFlag
p5240
I0
sVChatRoomId
p5241
I0
sVEncryChatRoomId
p5242
g56
sVAttrStatus
p5243
I17007549
sVStatues
p5244
I0
stp5245
Rp5246
I1
bag34
(g38
g39
(dp5247
VUserName
p5248
V@df7125dc754a13acfed78ca9ad303ac4
p5249
sVCity
p5250
V\u6df1\u5733
p5251
sVSnsFlag
p5252
I49
sVDisplayName
p5253
g56
sVUniFriend
p5254
I0
sVMemberCount
p5255
I0
sVOwnerUin
p5256
I0
sVMemberList
p5257
g52
sVAlias
p5258
g56
sVPYQuanPin
p5259
VDavis
p5260
sVSignature
p5261
V\u5fc3\u5b58\u611f\u6069
p5262
sVRemarkPYInitial
p5263
VALWJQ
p5264
sVContactFlag
p5265
I3
sVUin
p5266
I0
sVNickName
p5267
VDavis
p5268
sVAppAccountFlag
p5269
I0
sVVerifyFlag
p5270
I0
sVRemarkPYQuanPin
p5271
Vanliwujianqiang
p5272
sVHeadImgUrl
p5273
V/cgi-bin/mmwebwx-bin/webwxgeticon?seq=662796945&username=@df7125dc754a13acfed78ca9ad303ac4&skey=@crypt_9c3dea4c_60ecfb2e75ead15f0cee966311a887cd
p5274
sVKeyWord
p5275
Vwob
p5276
sVProvince
p5277
V\u5e7f\u4e1c
p5278
sVPYInitial
p5279
VDAVIS
p5280
sVRemarkName
p5281
V\u5b89\u7406-\u5434\u5efa\u5f3a
p5282
sVIsOwner
p5283
I0
sVSex
p5284
I1
sVStarFriend
p5285
I0
sVHideInputBarFlag
p5286
I0
sVChatRoomId
p5287
I0
sVEncryChatRoomId
p5288
g56
sVAttrStatus
p5289
I201191
sVStatues
p5290
I0
stp5291
Rp5292
I1
bag34
(g38
g39
(dp5293
VUserName
p5294
V@135bf730ff3e078f4a68503a2adff1a80960bf8566e20ff7742ba2473e20a90f
p5295
sVCity
p5296
g56
sVSnsFlag
p5297
I1
sVDisplayName
p5298
g56
sVUniFriend
p5299
I0
sVMemberCount
p5300
I0
sVOwnerUin
p5301
I0
sVMemberList
p5302
g52
sVAlias
p5303
g56
sVPYQuanPin
p5304
Vwuyongkang
p5305
sVSignature
p5306
V\u4eba\u4eba\u90fd\u7231\u9526\u4e0a\u6dfb\u82b1  \u7f3a\u4e0d\u613f\u610f\u96ea\u4e2d\u9001\u70ad
p5307
sVRemarkPYInitial
p5308
g56
sVContactFlag
p5309
I3
sVUin
p5310
I0
sVNickName
p5311
V\u5449\u9095\u6443
p5312
sVAppAccountFlag
p5313
I0
sVVerifyFlag
p5314
I0
sVRemarkPYQuanPin
p5315
g56
sVHeadImgUrl
p5316
V/cgi-bin/mmwebwx-bin/webwxgeticon?seq=662783295&username=@135bf730ff3e078f4a68503a2adff1a80960bf8566e20ff7742ba2473e20a90f&skey=@crypt_9c3dea4c_60ecfb2e75ead15f0cee966311a887cd
p5317
sVKeyWord
p5318
g56
sVProvince
p5319
g56
sVPYInitial
p5320
VWYK
p5321
sVRemarkName
p5322
g56
sVIsOwner
p5323
I0
sVSex
p5324
I1
sVStarFriend
p5325
I0
sVHideInputBarFlag
p5326
I0
sVChatRoomId
p5327
I0
sVEncryChatRoomId
p5328
g56
sVAttrStatus
p5329
I102437
sVStatues
p5330
I0
stp5331
Rp5332
I1
bag34
(g38
g39
(dp5333
VUserName
p5334
V@a4433712ee3fc72a7e3dcc3032d3743022d698c151660744131e0df2598bd065
p5335
sVCity
p5336
V\u6dee\u5357
p5337
sVSnsFlag
p5338
I17
sVDisplayName
p5339
g56
sVUniFriend
p5340
I0
sVMemberCount
p5341
I0
sVOwnerUin
p5342
I0
sVMemberList
p5343
g52
sVAlias
p5344
g56
sVPYQuanPin
p5345
Vspanclassemojiemoji1f437spanspanclassemojiemoji1f437spanspanclassemojiemoji1f437spanspanclassemojiemoji1f437spanspanclassemojiemoji1f437span
p5346
sVSignature
p5347
g56
sVRemarkPYInitial
p5348
VALZL
p5349
sVContactFlag
p5350
I3
sVUin
p5351
I0
sVNickName
p5352
V\U0001f437\U0001f437\U0001f437\U0001f437\U0001f437
p5353
sVAppAccountFlag
p5354
I0
sVVerifyFlag
p5355
I0
sVRemarkPYQuanPin
p5356
Vanlizhuliang
p5357
sVHeadImgUrl
p5358
V/cgi-bin/mmwebwx-bin/webwxgeticon?seq=662744386&username=@a4433712ee3fc72a7e3dcc3032d3743022d698c151660744131e0df2598bd065&skey=@crypt_9c3dea4c_60ecfb2e75ead15f0cee966311a887cd
p5359
sVKeyWord
p5360
g56
sVProvince
p5361
V\u5b89\u5fbd
p5362
sVPYInitial
p5363
VSPANCLASSEMOJIEMOJI1F437SPANSPANCLASSEMOJIEMOJI1F437SPANSPANCLASSEMOJIEMOJI1F437SPANSPANCLASSEMOJIEMOJI1F437SPANSPANCLASSEMOJIEMOJI1F437SPAN
p5364
sVRemarkName
p5365
V\u5b89\u7406-\u6731\u4eae
p5366
sVIsOwner
p5367
I0
sVSex
p5368
I1
sVStarFriend
p5369
I0
sVHideInputBarFlag
p5370
I0
sVChatRoomId
p5371
I0
sVEncryChatRoomId
p5372
g56
sVAttrStatus
p5373
I102501
sVStatues
p5374
I0
stp5375
Rp5376
I1
bag34
(g38
g39
(dp5377
VUserName
p5378
V@bc5a518ed15c40e24c4396155cd6a8a76dfb124281add2b38e88aaa017c1fc2a
p5379
sVCity
p5380
V\u897f\u57ce
p5381
sVSnsFlag
p5382
I17
sVDisplayName
p5383
g56
sVUniFriend
p5384
I0
sVMemberCount
p5385
I0
sVOwnerUin
p5386
I0
sVMemberList
p5387
g52
sVAlias
p5388
g56
sVPYQuanPin
p5389
Vspanclassemojiemoji1f496spanKerryspanclassemojiemoji1f42cspan
p5390
sVSignature
p5391
g56
sVRemarkPYInitial
p5392
g56
sVContactFlag
p5393
I3
sVUin
p5394
I0
sVNickName
p5395
V\U0001f496Kerry\U0001f42c
p5396
sVAppAccountFlag
p5397
I0
sVVerifyFlag
p5398
I0
sVRemarkPYQuanPin
p5399
g56
sVHeadImgUrl
p5400
V/cgi-bin/mmwebwx-bin/webwxgeticon?seq=662797219&username=@bc5a518ed15c40e24c4396155cd6a8a76dfb124281add2b38e88aaa017c1fc2a&skey=@crypt_9c3dea4c_60ecfb2e75ead15f0cee966311a887cd
p5401
sVKeyWord
p5402
g56
sVProvince
p5403
V\u5317\u4eac
p5404
sVPYInitial
p5405
VSPANCLASSEMOJIEMOJI1F496SPANKERRYSPANCLASSEMOJIEMOJI1F42CSPAN
p5406
sVRemarkName
p5407
g56
sVIsOwner
p5408
I0
sVSex
p5409
I2
sVStarFriend
p5410
I0
sVHideInputBarFlag
p5411
I0
sVChatRoomId
p5412
I0
sVEncryChatRoomId
p5413
g56
sVAttrStatus
p5414
I2147586237
sVStatues
p5415
I0
stp5416
Rp5417
I1
bag34
(g38
g39
(dp5418
VUserName
p5419
V@ffe0a3b10d62ab14083e2c45ef7dc4b3568167656375ad3060308697c7fa1015
p5420
sVCity
p5421
g56
sVSnsFlag
p5422
I49
sVDisplayName
p5423
g56
sVUniFriend
p5424
I0
sVMemberCount
p5425
I0
sVOwnerUin
p5426
I0
sVMemberList
p5427
g52
sVAlias
p5428
g56
sVPYQuanPin
p5429
VKeepreal
p5430
sVSignature
p5431
VNothing is impossible,the word itself says "i'm possible"!
p5432
sVRemarkPYInitial
p5433
VALWY
p5434
sVContactFlag
p5435
I3
sVUin
p5436
I0
sVNickName
p5437
VKeep real
p5438
sVAppAccountFlag
p5439
I0
sVVerifyFlag
p5440
I0
sVRemarkPYQuanPin
p5441
Vanliwangyang
p5442
sVHeadImgUrl
p5443
V/cgi-bin/mmwebwx-bin/webwxgeticon?seq=662791539&username=@ffe0a3b10d62ab14083e2c45ef7dc4b3568167656375ad3060308697c7fa1015&skey=@crypt_9c3dea4c_60ecfb2e75ead15f0cee966311a887cd
p5444
sVKeyWord
p5445
Vwan
p5446
sVProvince
p5447
VChiang Mai
p5448
sVPYInitial
p5449
VKEEPREAL
p5450
sVRemarkName
p5451
V\u5b89\u7406-\u6c6a\u6d0b
p5452
sVIsOwner
p5453
I0
sVSex
p5454
I1
sVStarFriend
p5455
I0
sVHideInputBarFlag
p5456
I0
sVChatRoomId
p5457
I0
sVEncryChatRoomId
p5458
g56
sVAttrStatus
p5459
I104551
sVStatues
p5460
I0
stp5461
Rp5462
I1
bag34
(g38
g39
(dp5463
VUserName
p5464
V@05b80822c93862a41022f02e97fe8522
p5465
sVCity
p5466
V\u676d\u5dde
p5467
sVSnsFlag
p5468
I145
sVDisplayName
p5469
g56
sVUniFriend
p5470
I0
sVMemberCount
p5471
I0
sVOwnerUin
p5472
I0
sVMemberList
p5473
g52
sVAlias
p5474
g56
sVPYQuanPin
p5475
Vjiushan
p5476
sVSignature
p5477
V\u6c85\u6709\u82b7\u516e\u6fa7\u6709\u5170
p5478
sVRemarkPYInitial
p5479
VHKTXFUI
p5480
sVContactFlag
p5481
I3
sVUin
p5482
I0
sVNickName
p5483
V\u4e5d\u5c71
p5484
sVAppAccountFlag
p5485
I0
sVVerifyFlag
p5486
I0
sVRemarkPYQuanPin
p5487
VhaiketongxufengUI
p5488
sVHeadImgUrl
p5489
V/cgi-bin/mmwebwx-bin/webwxgeticon?seq=662780232&username=@05b80822c93862a41022f02e97fe8522&skey=@crypt_9c3dea4c_60ecfb2e75ead15f0cee966311a887cd
p5490
sVKeyWord
p5491
Vtxf
p5492
sVProvince
p5493
V\u6d59\u6c5f
p5494
sVPYInitial
p5495
VJS
p5496
sVRemarkName
p5497
V\u6c26\u6c2a-\u7ae5\u65ed\u5cf0--UI
p5498
sVIsOwner
p5499
I0
sVSex
p5500
I1
sVStarFriend
p5501
I0
sVHideInputBarFlag
p5502
I0
sVChatRoomId
p5503
I0
sVEncryChatRoomId
p5504
g56
sVAttrStatus
p5505
I111719
sVStatues
p5506
I0
stp5507
Rp5508
I1
bag34
(g38
g39
(dp5509
VUserName
p5510
V@614fc7c148aaca6b926a7805624219fa7a51d706f79674c28f8920fe490e5399
p5511
sVCity
p5512
V\u77f3\u5bb6\u5e84
p5513
sVSnsFlag
p5514
I1
sVDisplayName
p5515
g56
sVUniFriend
p5516
I0
sVMemberCount
p5517
I0
sVOwnerUin
p5518
I0
sVMemberList
p5519
g52
sVAlias
p5520
g56
sVPYQuanPin
p5521
Vlairifangchang
p5522
sVSignature
p5523
g56
sVRemarkPYInitial
p5524
VYLRR
p5525
sVContactFlag
p5526
I3
sVUin
p5527
I0
sVNickName
p5528
V\u6765\u65e5\u65b9\u957f
p5529
sVAppAccountFlag
p5530
I0
sVVerifyFlag
p5531
I0
sVRemarkPYQuanPin
p5532
Vyileiruru
p5533
sVHeadImgUrl
p5534
V/cgi-bin/mmwebwx-bin/webwxgeticon?seq=662775192&username=@614fc7c148aaca6b926a7805624219fa7a51d706f79674c28f8920fe490e5399&skey=@crypt_9c3dea4c_60ecfb2e75ead15f0cee966311a887cd
p5535
sVKeyWord
p5536
g56
sVProvince
p5537
V\u6cb3\u5317
p5538
sVPYInitial
p5539
VLRFC
p5540
sVRemarkName
p5541
V\u4f0a\uff0d\u96f7\u8339\u8339
p5542
sVIsOwner
p5543
I0
sVSex
p5544
I2
sVStarFriend
p5545
I0
sVHideInputBarFlag
p5546
I0
sVChatRoomId
p5547
I0
sVEncryChatRoomId
p5548
g56
sVAttrStatus
p5549
I4197
sVStatues
p5550
I0
stp5551
Rp5552
I1
batp5553
Rp5554
I1
bsS'chatroomList'
p5555
g34
(g35
g36
(lp5556
g34
(citchat.storage.templates
Chatroom
p5557
g39
(dp5558
VUserName
p5559
V@@947ab5d15ab05585a7fad0aa171f019caa9f0b8ca9141dcbd457785b504eda84
p5560
sVCity
p5561
g56
sVDisplayName
p5562
g56
sVUniFriend
p5563
I0
sS'Self'
p5564
g34
(g38
g39
(dp5565
g41
g31
sg43
g46
sg45
g46
sg47
I0
sg48
I0
sg49
g34
(g35
g36
(lp5566
tp5567
Rp5568
I1
bsg53
g56
sg55
g56
sg57
I2693546021
sg58
I0
sg59
I0
sg60
g46
sg62
g46
sg63
g56
sg64
g56
sg66
I0
sg68
I0
sg69
I1
sg70
g46
sg71
I0
sg72
I17
sg73
I0
sg74
I0
sg75
g46
sg76
g56
sg77
I0
sg78
Vkiwi
p5569
sg80
g56
sg81
V/cgi-bin/mmwebwx-bin/webwxgeticon?seq=405643179&username=@813e7fe5ee6828290b91124be1b65e5a355d5633a5aefb5c73254715116bbc3a&skey=@crypt_9c3dea4c_60ecfb2e75ead15f0cee966311a887cd
p5570
sg83
I1
sg84
I0
sg85
I0
stp5571
Rp5572
I1
bsVMemberList
p5573
g34
(g35
g36
(lp5574
tp5575
Rp5576
I1
bsVPYQuanPin
p5577
VGayyibaoba
p5578
sVRemarkPYInitial
p5579
g56
sVSex
p5580
I0
sVAppAccountFlag
p5581
I0
sVVerifyFlag
p5582
I0
sVProvince
p5583
g56
sVKeyWord
p5584
g56
sVRemarkName
p5585
g56
sVPYInitial
p5586
VGAYYBB
p5587
sVIsOwner
p5588
I0
sVChatRoomId
p5589
I0
sVHideInputBarFlag
p5590
I0
sVEncryChatRoomId
p5591
g56
sVAttrStatus
p5592
I0
sVSnsFlag
p5593
I0
sVMemberCount
p5594
I8
sVOwnerUin
p5595
I0
sVAlias
p5596
g56
sS'IsAdmin'
p5597
NsVSignature
p5598
g56
sVContactFlag
p5599
I3
sVNickName
p5600
VGay \u4e00\u70ae\u5427\u3002
p5601
sVRemarkPYQuanPin
p5602
g56
sVHeadImgUrl
p5603
V/cgi-bin/mmwebwx-bin/webwxgetheadimg?seq=662732648&username=@@947ab5d15ab05585a7fad0aa171f019caa9f0b8ca9141dcbd457785b504eda84&skey=@crypt_9c3dea4c_60ecfb2e75ead15f0cee966311a887cd
p5604
sVUin
p5605
I0
sVStarFriend
p5606
I0
sVStatues
p5607
I0
stp5608
Rp5609
I1
bag34
(g5557
g39
(dp5610
VUserName
p5611
V@@5ad5398479f82124fdb8afcea87835422b0323d92b94da209fd0c0f482218672
p5612
sVCity
p5613
g56
sVDisplayName
p5614
g56
sVUniFriend
p5615
I0
sg5564
g34
(g38
g39
(dp5616
g41
g31
sg43
g46
sg45
g46
sg47
I0
sg48
I0
sg49
g34
(g35
g36
(lp5617
tp5618
Rp5619
I1
bsg53
g56
sg55
g56
sg57
I2693546021
sg58
I0
sg59
I0
sg60
g46
sg62
g46
sg63
g56
sg64
g56
sg66
I0
sg68
I0
sg69
I1
sg70
g46
sg71
I0
sg72
I17
sg73
I0
sg74
I0
sg75
g46
sg76
g56
sg77
I0
sg78
g5569
sg80
g56
sg81
g5570
sg83
I1
sg84
I0
sg85
I0
stp5620
Rp5621
I1
bsVMemberList
p5622
g34
(g35
g36
(lp5623
tp5624
Rp5625
I1
bsVPYQuanPin
p5626
g56
sVRemarkPYInitial
p5627
g56
sVSex
p5628
I0
sVAppAccountFlag
p5629
I0
sVVerifyFlag
p5630
I0
sVProvince
p5631
g56
sVKeyWord
p5632
g56
sVRemarkName
p5633
g56
sVPYInitial
p5634
g56
sVIsOwner
p5635
I0
sVChatRoomId
p5636
I0
sVHideInputBarFlag
p5637
I0
sVEncryChatRoomId
p5638
g56
sVAttrStatus
p5639
I0
sVSnsFlag
p5640
I0
sVMemberCount
p5641
I18
sVOwnerUin
p5642
I0
sVAlias
p5643
g56
sg5597
NsVSignature
p5644
g56
sVContactFlag
p5645
I0
sVNickName
p5646
V\u8036\u7a23\u4e0e\u6211\u4eec\u540c\u5728
p5647
sVRemarkPYQuanPin
p5648
g56
sVHeadImgUrl
p5649
V/cgi-bin/mmwebwx-bin/webwxgetheadimg?seq=0&username=@@5ad5398479f82124fdb8afcea87835422b0323d92b94da209fd0c0f482218672&skey=@crypt_9c3dea4c_60ecfb2e75ead15f0cee966311a887cd
p5650
sVUin
p5651
I0
sVStarFriend
p5652
I0
sVStatues
p5653
I0
stp5654
Rp5655
I1
bag34
(g5557
g39
(dp5656
VUserName
p5657
V@@7eab543112fc344ecddc7f9590e43f9ec32d901e9bd93942ed9cb169c82660f9
p5658
sVCity
p5659
g56
sVDisplayName
p5660
g56
sVUniFriend
p5661
I0
sg5564
g34
(g38
g39
(dp5662
g41
g31
sg43
g46
sg45
g46
sg47
I0
sg48
I0
sg49
g34
(g35
g36
(lp5663
tp5664
Rp5665
I1
bsg53
g56
sg55
g56
sg57
I2693546021
sg58
I0
sg59
I0
sg60
g46
sg62
g46
sg63
g56
sg64
g56
sg66
I0
sg68
I0
sg69
I1
sg70
g46
sg71
I0
sg72
I17
sg73
I0
sg74
I0
sg75
g46
sg76
g56
sg77
I0
sg78
g5569
sg80
g56
sg81
g5570
sg83
I1
sg84
I0
sg85
I0
stp5666
Rp5667
I1
bsVMemberList
p5668
g34
(g35
g36
(lp5669
tp5670
Rp5671
I1
bsVPYQuanPin
p5672
g56
sVRemarkPYInitial
p5673
g56
sVSex
p5674
I0
sVAppAccountFlag
p5675
I0
sVVerifyFlag
p5676
I0
sVProvince
p5677
g56
sVKeyWord
p5678
g56
sVRemarkName
p5679
g56
sVPYInitial
p5680
g56
sVIsOwner
p5681
I0
sVChatRoomId
p5682
I0
sVHideInputBarFlag
p5683
I0
sVEncryChatRoomId
p5684
g56
sVAttrStatus
p5685
I0
sVSnsFlag
p5686
I0
sVMemberCount
p5687
I72
sVOwnerUin
p5688
I0
sVAlias
p5689
g56
sg5597
NsVSignature
p5690
g56
sVContactFlag
p5691
I2
sVNickName
p5692
V\u77f3\u5bb6\u5e84\u8461\u8404\u56ed
p5693
sVRemarkPYQuanPin
p5694
g56
sVHeadImgUrl
p5695
V/cgi-bin/mmwebwx-bin/webwxgetheadimg?seq=662765172&username=@@7eab543112fc344ecddc7f9590e43f9ec32d901e9bd93942ed9cb169c82660f9&skey=@crypt_9c3dea4c_60ecfb2e75ead15f0cee966311a887cd
p5696
sVUin
p5697
I0
sVStarFriend
p5698
I0
sVStatues
p5699
I0
stp5700
Rp5701
I1
bag34
(g5557
g39
(dp5702
VUserName
p5703
V@@5ee49aed3fd83839b40c08c4f40e84ef3d9c8aeb686c1ffa09d6b3979ca474ed
p5704
sVCity
p5705
g56
sVDisplayName
p5706
g56
sVUniFriend
p5707
I0
sg5564
g34
(g38
g39
(dp5708
g41
g31
sg43
g46
sg45
g46
sg47
I0
sg48
I0
sg49
g34
(g35
g36
(lp5709
tp5710
Rp5711
I1
bsg53
g56
sg55
g56
sg57
I2693546021
sg58
I0
sg59
I0
sg60
g46
sg62
g46
sg63
g56
sg64
g56
sg66
I0
sg68
I0
sg69
I1
sg70
g46
sg71
I0
sg72
I17
sg73
I0
sg74
I0
sg75
g46
sg76
g56
sg77
I0
sg78
g5569
sg80
g56
sg81
g5570
sg83
I1
sg84
I0
sg85
I0
stp5712
Rp5713
I1
bsVMemberList
p5714
g34
(g35
g36
(lp5715
tp5716
Rp5717
I1
bsVPYQuanPin
p5718
Vjiaren
p5719
sVRemarkPYInitial
p5720
g56
sVSex
p5721
I0
sVAppAccountFlag
p5722
I0
sVVerifyFlag
p5723
I0
sVProvince
p5724
g56
sVKeyWord
p5725
g56
sVRemarkName
p5726
g56
sVPYInitial
p5727
VJR
p5728
sVIsOwner
p5729
I1
sVChatRoomId
p5730
I0
sVHideInputBarFlag
p5731
I0
sVEncryChatRoomId
p5732
g56
sVAttrStatus
p5733
I0
sVSnsFlag
p5734
I0
sVMemberCount
p5735
I0
sVOwnerUin
p5736
I0
sVAlias
p5737
g56
sg5597
NsVSignature
p5738
g56
sVContactFlag
p5739
I3
sVNickName
p5740
V\u5bb6\u4eba
p5741
sVRemarkPYQuanPin
p5742
g56
sVHeadImgUrl
p5743
V/cgi-bin/mmwebwx-bin/webwxgetheadimg?seq=662708735&username=@@5ee49aed3fd83839b40c08c4f40e84ef3d9c8aeb686c1ffa09d6b3979ca474ed&skey=@crypt_9c3dea4c_60ecfb2e75ead15f0cee966311a887cd
p5744
sVUin
p5745
I0
sVStarFriend
p5746
I0
sVStatues
p5747
I1
stp5748
Rp5749
I1
bag34
(g5557
g39
(dp5750
VUserName
p5751
V@@a911919eb08f78807064ef8d7c670ea6296c453c9b12d9e1a607981d6d6b506b
p5752
sVCity
p5753
g56
sVDisplayName
p5754
g56
sVUniFriend
p5755
I0
sg5564
g34
(g38
g39
(dp5756
g41
g31
sg43
g46
sg45
g46
sg47
I0
sg48
I0
sg49
g34
(g35
g36
(lp5757
tp5758
Rp5759
I1
bsg53
g56
sg55
g56
sg57
I2693546021
sg58
I0
sg59
I0
sg60
g46
sg62
g46
sg63
g56
sg64
g56
sg66
I0
sg68
I0
sg69
I1
sg70
g46
sg71
I0
sg72
I17
sg73
I0
sg74
I0
sg75
g46
sg76
g56
sg77
I0
sg78
g5569
sg80
g56
sg81
g5570
sg83
I1
sg84
I0
sg85
I0
stp5760
Rp5761
I1
bsVMemberList
p5762
g34
(g35
g36
(lp5763
tp5764
Rp5765
I1
bsVPYQuanPin
p5766
Vsandashixiaohuoban
p5767
sVRemarkPYInitial
p5768
g56
sVSex
p5769
I0
sVAppAccountFlag
p5770
I0
sVVerifyFlag
p5771
I0
sVProvince
p5772
g56
sVKeyWord
p5773
g56
sVRemarkName
p5774
g56
sVPYInitial
p5775
VSDSXHB
p5776
sVIsOwner
p5777
I0
sVChatRoomId
p5778
I0
sVHideInputBarFlag
p5779
I0
sVEncryChatRoomId
p5780
g56
sVAttrStatus
p5781
I0
sVSnsFlag
p5782
I0
sVMemberCount
p5783
I0
sVOwnerUin
p5784
I0
sVAlias
p5785
g56
sg5597
NsVSignature
p5786
g56
sVContactFlag
p5787
I3
sVNickName
p5788
V\u4e09\u5927\u53f2\u5c0f\u4f19\u4f34
p5789
sVRemarkPYQuanPin
p5790
g56
sVHeadImgUrl
p5791
V/cgi-bin/mmwebwx-bin/webwxgetheadimg?seq=662767870&username=@@a911919eb08f78807064ef8d7c670ea6296c453c9b12d9e1a607981d6d6b506b&skey=@crypt_9c3dea4c_60ecfb2e75ead15f0cee966311a887cd
p5792
sVUin
p5793
I0
sVStarFriend
p5794
I0
sVStatues
p5795
I0
stp5796
Rp5797
I1
bag34
(g5557
g39
(dp5798
VUserName
p5799
V@@ada26e7373fffaa2f44d00369f3459cbb30ab434b6d9b648f71c0533d8b73cc7
p5800
sVCity
p5801
g56
sVDisplayName
p5802
g56
sVUniFriend
p5803
I0
sg5564
g34
(g38
g39
(dp5804
g41
g31
sg43
g46
sg45
g46
sg47
I0
sg48
I0
sg49
g34
(g35
g36
(lp5805
tp5806
Rp5807
I1
bsg53
g56
sg55
g56
sg57
I2693546021
sg58
I0
sg59
I0
sg60
g46
sg62
g46
sg63
g56
sg64
g56
sg66
I0
sg68
I0
sg69
I1
sg70
g46
sg71
I0
sg72
I17
sg73
I0
sg74
I0
sg75
g46
sg76
g56
sg77
I0
sg78
g5569
sg80
g56
sg81
g5570
sg83
I1
sg84
I0
sg85
I0
stp5808
Rp5809
I1
bsVMemberList
p5810
g34
(g35
g36
(lp5811
tp5812
Rp5813
I1
bsVPYQuanPin
p5814
Vbeixiuyuan04ban
p5815
sVRemarkPYInitial
p5816
g56
sVSex
p5817
I0
sVAppAccountFlag
p5818
I0
sVVerifyFlag
p5819
I0
sVProvince
p5820
g56
sVKeyWord
p5821
g56
sVRemarkName
p5822
g56
sVPYInitial
p5823
VBXY04B
p5824
sVIsOwner
p5825
I0
sVChatRoomId
p5826
I0
sVHideInputBarFlag
p5827
I0
sVEncryChatRoomId
p5828
g56
sVAttrStatus
p5829
I0
sVSnsFlag
p5830
I0
sVMemberCount
p5831
I0
sVOwnerUin
p5832
I0
sVAlias
p5833
g56
sg5597
NsVSignature
p5834
g56
sVContactFlag
p5835
I3
sVNickName
p5836
V\u5907\u4fee\u966204\u73ed
p5837
sVRemarkPYQuanPin
p5838
g56
sVHeadImgUrl
p5839
V/cgi-bin/mmwebwx-bin/webwxgetheadimg?seq=647551296&username=@@ada26e7373fffaa2f44d00369f3459cbb30ab434b6d9b648f71c0533d8b73cc7&skey=@crypt_9c3dea4c_60ecfb2e75ead15f0cee966311a887cd
p5840
sVUin
p5841
I0
sVStarFriend
p5842
I0
sVStatues
p5843
I0
stp5844
Rp5845
I1
bag34
(g5557
g39
(dp5846
VUserName
p5847
V@@d8e12fe5261b3177f56214cae4a06c7e5aae5df7d1278dff667f6f5ddda16cff
p5848
sVCity
p5849
g56
sVDisplayName
p5850
g56
sVUniFriend
p5851
I0
sg5564
g34
(g38
g39
(dp5852
g41
g31
sg43
g46
sg45
g46
sg47
I0
sg48
I0
sg49
g34
(g35
g36
(lp5853
tp5854
Rp5855
I1
bsg53
g56
sg55
g56
sg57
I2693546021
sg58
I0
sg59
I0
sg60
g46
sg62
g46
sg63
g56
sg64
g56
sg66
I0
sg68
I0
sg69
I1
sg70
g46
sg71
I0
sg72
I17
sg73
I0
sg74
I0
sg75
g46
sg76
g56
sg77
I0
sg78
g5569
sg80
g56
sg81
g5570
sg83
I1
sg84
I0
sg85
I0
stp5856
Rp5857
I1
bsVMemberList
p5858
g34
(g35
g36
(lp5859
tp5860
Rp5861
I1
bsVPYQuanPin
p5862
Vzaishengziyuan
p5863
sVRemarkPYInitial
p5864
g56
sVSex
p5865
I0
sVAppAccountFlag
p5866
I0
sVVerifyFlag
p5867
I0
sVProvince
p5868
g56
sVKeyWord
p5869
g56
sVRemarkName
p5870
g56
sVPYInitial
p5871
VZSZY
p5872
sVIsOwner
p5873
I0
sVChatRoomId
p5874
I0
sVHideInputBarFlag
p5875
I0
sVEncryChatRoomId
p5876
g56
sVAttrStatus
p5877
I0
sVSnsFlag
p5878
I0
sVMemberCount
p5879
I0
sVOwnerUin
p5880
I0
sVAlias
p5881
g56
sg5597
NsVSignature
p5882
g56
sVContactFlag
p5883
I3
sVNickName
p5884
V\u518d\u751f\u8d44\u6e90
p5885
sVRemarkPYQuanPin
p5886
g56
sVHeadImgUrl
p5887
V/cgi-bin/mmwebwx-bin/webwxgetheadimg?seq=647558909&username=@@d8e12fe5261b3177f56214cae4a06c7e5aae5df7d1278dff667f6f5ddda16cff&skey=@crypt_9c3dea4c_60ecfb2e75ead15f0cee966311a887cd
p5888
sVUin
p5889
I0
sVStarFriend
p5890
I0
sVStatues
p5891
I0
stp5892
Rp5893
I1
bag34
(g5557
g39
(dp5894
VUserName
p5895
V@@347edcab8cf912920666554bdf50254b630e4f3aa781af7e24482705c5825ded
p5896
sVCity
p5897
g56
sVDisplayName
p5898
g56
sVUniFriend
p5899
I0
sg5564
g34
(g38
g39
(dp5900
g41
g31
sg43
g46
sg45
g46
sg47
I0
sg48
I0
sg49
g34
(g35
g36
(lp5901
tp5902
Rp5903
I1
bsg53
g56
sg55
g56
sg57
I2693546021
sg58
I0
sg59
I0
sg60
g46
sg62
g46
sg63
g56
sg64
g56
sg66
I0
sg68
I0
sg69
I1
sg70
g46
sg71
I0
sg72
I17
sg73
I0
sg74
I0
sg75
g46
sg76
g56
sg77
I0
sg78
g5569
sg80
g56
sg81
g5570
sg83
I1
sg84
I0
sg85
I0
stp5904
Rp5905
I1
bsVMemberList
p5906
g34
(g35
g36
(lp5907
tp5908
Rp5909
I1
bsVPYQuanPin
p5910
Vxiangnimenledoubi
p5911
sVRemarkPYInitial
p5912
g56
sVSex
p5913
I0
sVAppAccountFlag
p5914
I0
sVVerifyFlag
p5915
I0
sVProvince
p5916
g56
sVKeyWord
p5917
g56
sVRemarkName
p5918
g56
sVPYInitial
p5919
VXNMLDB
p5920
sVIsOwner
p5921
I0
sVChatRoomId
p5922
I0
sVHideInputBarFlag
p5923
I0
sVEncryChatRoomId
p5924
g56
sVAttrStatus
p5925
I0
sVSnsFlag
p5926
I0
sVMemberCount
p5927
I0
sVOwnerUin
p5928
I0
sVAlias
p5929
g56
sg5597
NsVSignature
p5930
g56
sVContactFlag
p5931
I3
sVNickName
p5932
V\u60f3\u4f60\u4eec\u4e86\u9017\u6bd4
p5933
sVRemarkPYQuanPin
p5934
g56
sVHeadImgUrl
p5935
V/cgi-bin/mmwebwx-bin/webwxgetheadimg?seq=662784036&username=@@347edcab8cf912920666554bdf50254b630e4f3aa781af7e24482705c5825ded&skey=@crypt_9c3dea4c_60ecfb2e75ead15f0cee966311a887cd
p5936
sVUin
p5937
I0
sVStarFriend
p5938
I0
sVStatues
p5939
I0
stp5940
Rp5941
I1
bag34
(g5557
g39
(dp5942
VUserName
p5943
V@@5c074d20e3e62bee1005c01096d7e3f1018f3cb883551a2e42418f8f3b4f1227
p5944
sVCity
p5945
g56
sVDisplayName
p5946
g56
sVUniFriend
p5947
I0
sg5564
g34
(g38
g39
(dp5948
g41
g31
sg43
g46
sg45
g46
sg47
I0
sg48
I0
sg49
g34
(g35
g36
(lp5949
tp5950
Rp5951
I1
bsg53
g56
sg55
g56
sg57
I2693546021
sg58
I0
sg59
I0
sg60
g46
sg62
g46
sg63
g56
sg64
g56
sg66
I0
sg68
I0
sg69
I1
sg70
g46
sg71
I0
sg72
I17
sg73
I0
sg74
I0
sg75
g46
sg76
g56
sg77
I0
sg78
g5569
sg80
g56
sg81
g5570
sg83
I1
sg84
I0
sg85
I0
stp5952
Rp5953
I1
bsVMemberList
p5954
g34
(g35
g36
(lp5955
tp5956
Rp5957
I1
bsVPYQuanPin
p5958
Vbinhe802
p5959
sVRemarkPYInitial
p5960
g56
sVSex
p5961
I0
sVAppAccountFlag
p5962
I0
sVVerifyFlag
p5963
I0
sVProvince
p5964
g56
sVKeyWord
p5965
g56
sVRemarkName
p5966
g56
sVPYInitial
p5967
VBH802
p5968
sVIsOwner
p5969
I0
sVChatRoomId
p5970
I0
sVHideInputBarFlag
p5971
I0
sVEncryChatRoomId
p5972
g56
sVAttrStatus
p5973
I0
sVSnsFlag
p5974
I0
sVMemberCount
p5975
I0
sVOwnerUin
p5976
I0
sVAlias
p5977
g56
sg5597
NsVSignature
p5978
g56
sVContactFlag
p5979
I3
sVNickName
p5980
V\u6ee8\u6cb3802
p5981
sVRemarkPYQuanPin
p5982
g56
sVHeadImgUrl
p5983
V/cgi-bin/mmwebwx-bin/webwxgetheadimg?seq=662784975&username=@@5c074d20e3e62bee1005c01096d7e3f1018f3cb883551a2e42418f8f3b4f1227&skey=@crypt_9c3dea4c_60ecfb2e75ead15f0cee966311a887cd
p5984
sVUin
p5985
I0
sVStarFriend
p5986
I0
sVStatues
p5987
I1
stp5988
Rp5989
I1
batp5990
Rp5991
I1
bsS'nickName'
p5992
g5569
sS'mpList'
p5993
g34
(g35
g36
(lp5994
g34
(citchat.storage.templates
MassivePlatform
p5995
g39
(dp5996
VUserName
p5997
V@6bd406ec7012711ee9b44c218b955311
p5998
sVCity
p5999
V\u5a01\u6d77
p6000
sVSnsFlag
p6001
I0
sVDisplayName
p6002
g56
sVUniFriend
p6003
I0
sVMemberCount
p6004
I0
sVOwnerUin
p6005
I0
sVMemberList
p6006
g52
sVAlias
p6007
g56
sVPYQuanPin
p6008
Vweihaixinxigang
p6009
sVSignature
p6010
V\u5a01\u6d77\u4fe1\u606f\u6e2f\u5b98\u65b9\u5fae\u4fe1\uff01\u6709\u8da3\u3001\u6709\u6599\u7684\u5a01\u6d77\u4eba\u513f\u3001\u5a01\u6d77\u4e8b\u513f\uff01
p6011
sVRemarkPYInitial
p6012
g56
sVContactFlag
p6013
I3
sVUin
p6014
I0
sVNickName
p6015
V\u5a01\u6d77\u4fe1\u606f\u6e2f
p6016
sVAppAccountFlag
p6017
I0
sVVerifyFlag
p6018
I24
sVRemarkPYQuanPin
p6019
g56
sVHeadImgUrl
p6020
V/cgi-bin/mmwebwx-bin/webwxgeticon?seq=662693113&username=@6bd406ec7012711ee9b44c218b955311&skey=@crypt_9c3dea4c_60ecfb2e75ead15f0cee966311a887cd
p6021
sVKeyWord
p6022
Vgh_
p6023
sVProvince
p6024
V\u5c71\u4e1c
p6025
sVPYInitial
p6026
VWHXXG
p6027
sVRemarkName
p6028
g56
sVIsOwner
p6029
I0
sVSex
p6030
I0
sVStarFriend
p6031
I0
sVHideInputBarFlag
p6032
I0
sVChatRoomId
p6033
I0
sVEncryChatRoomId
p6034
g56
sVAttrStatus
p6035
I0
sVStatues
p6036
I0
stp6037
Rp6038
I1
bag34
(g5995
g39
(dp6039
VUserName
p6040
V@e37851842fd9e9dfab6e6a75eb46c5b6
p6041
sVCity
p6042
g56
sVSnsFlag
p6043
I0
sVDisplayName
p6044
g56
sVUniFriend
p6045
I0
sVMemberCount
p6046
I0
sVOwnerUin
p6047
I0
sVMemberList
p6048
g52
sVAlias
p6049
g56
sVPYQuanPin
p6050
Vweixinzhifu
p6051
sVSignature
p6052
V\u5e2e\u52a9\u89e3\u51b3\u5fae\u4fe1\u652f\u4ed8\u4e2d\u9047\u5230\u7684\u56f0\u96be\uff0c\u6536\u96c6\u5173\u4e8e\u5fae\u4fe1\u652f\u4ed8\u7684\u5efa\u8bae\u53cd\u9988\u3002
p6053
sVRemarkPYInitial
p6054
g56
sVContactFlag
p6055
I1
sVUin
p6056
I0
sVNickName
p6057
V\u5fae\u4fe1\u652f\u4ed8
p6058
sVAppAccountFlag
p6059
I0
sVVerifyFlag
p6060
I24
sVRemarkPYQuanPin
p6061
g56
sVHeadImgUrl
p6062
V/cgi-bin/mmwebwx-bin/webwxgeticon?seq=620580743&username=@e37851842fd9e9dfab6e6a75eb46c5b6&skey=@crypt_9c3dea4c_60ecfb2e75ead15f0cee966311a887cd
p6063
sVKeyWord
p6064
Vgh_
p6065
sVProvince
p6066
V\u5e7f\u4e1c
p6067
sVPYInitial
p6068
VWXZF
p6069
sVRemarkName
p6070
g56
sVIsOwner
p6071
I0
sVSex
p6072
I0
sVStarFriend
p6073
I0
sVHideInputBarFlag
p6074
I0
sVChatRoomId
p6075
I0
sVEncryChatRoomId
p6076
g56
sVAttrStatus
p6077
I0
sVStatues
p6078
I0
stp6079
Rp6080
I1
bag34
(g5995
g39
(dp6081
VUserName
p6082
V@dd6787112f805bfde5c1ed740ac4ca44
p6083
sVCity
p6084
V\u6df1\u5733
p6085
sVSnsFlag
p6086
I0
sVDisplayName
p6087
g56
sVUniFriend
p6088
I0
sVMemberCount
p6089
I0
sVOwnerUin
p6090
I0
sVMemberList
p6091
g52
sVAlias
p6092
g56
sVPYQuanPin
p6093
Vweixinhongbao
p6094
sVSignature
p6095
V\u5fae\u4fe1\u7ea2\u5305\u5b98\u65b9\u5e73\u53f0\uff0c\u4e3a\u4f60\u63d0\u4f9b\u5feb\u6377\u5b89\u5168\u597d\u73a9\u7684\u53d1\u7ea2\u5305\u670d\u52a1
p6096
sVRemarkPYInitial
p6097
g56
sVContactFlag
p6098
I1
sVUin
p6099
I0
sVNickName
p6100
V\u5fae\u4fe1\u7ea2\u5305
p6101
sVAppAccountFlag
p6102
I0
sVVerifyFlag
p6103
I24
sVRemarkPYQuanPin
p6104
g56
sVHeadImgUrl
p6105
V/cgi-bin/mmwebwx-bin/webwxgeticon?seq=620802182&username=@dd6787112f805bfde5c1ed740ac4ca44&skey=@crypt_9c3dea4c_60ecfb2e75ead15f0cee966311a887cd
p6106
sVKeyWord
p6107
Vgh_
p6108
sVProvince
p6109
V\u5e7f\u4e1c
p6110
sVPYInitial
p6111
VWXHB
p6112
sVRemarkName
p6113
g56
sVIsOwner
p6114
I0
sVSex
p6115
I0
sVStarFriend
p6116
I0
sVHideInputBarFlag
p6117
I0
sVChatRoomId
p6118
I0
sVEncryChatRoomId
p6119
g56
sVAttrStatus
p6120
I0
sVStatues
p6121
I0
stp6122
Rp6123
I1
bag34
(g5995
g39
(dp6124
VUserName
p6125
V@89f6575217d6430432bcfe0e3a1b66b0
p6126
sVCity
p6127
V\u676d\u5dde
p6128
sVSnsFlag
p6129
I0
sVDisplayName
p6130
g56
sVUniFriend
p6131
I0
sVMemberCount
p6132
I0
sVOwnerUin
p6133
I0
sVMemberList
p6134
g52
sVAlias
p6135
g56
sVPYQuanPin
p6136
Vzhejiangyidong
p6137
sVSignature
p6138
V\u4e2d\u56fd\u79fb\u52a8\u6d59\u6c5f\u516c\u53f8\uff08\u7b80\u79f0\uff09\u5b98\u65b9\u516c\u4f17\u53f7\uff01\u4e3a\u60a8\u63d0\u4f9b\u6d59\u6c5f\u79fb\u52a8\u5404\u7c7b\u901a\u4fe1\u8d44\u8baf\u3001\u70ed\u95e8\u4e1a\u52a1\u4fc3\u9500\uff0c\u5168\u9762\u4f18\u60e0\u4fe1\u606f\u3001\u7ed9\u529b\u5fae\u6d3b\u52a8....\u8d34\u5fc3\u3001\u4fbf\u6377\u67e5\u8be2\u3001\u529e\u7406\u670d\u52a1\u8ba9\u60a8\u4e00\u624b\u638c\u63a7\uff01\u5c3d\u5728\u201c\u6d59\u6c5f\u79fb\u52a810086\u201d\uff01
p6139
sVRemarkPYInitial
p6140
g56
sVContactFlag
p6141
I1
sVUin
p6142
I0
sVNickName
p6143
V\u6d59\u6c5f\u79fb\u52a8
p6144
sVAppAccountFlag
p6145
I0
sVVerifyFlag
p6146
I24
sVRemarkPYQuanPin
p6147
g56
sVHeadImgUrl
p6148
V/cgi-bin/mmwebwx-bin/webwxgeticon?seq=627561672&username=@89f6575217d6430432bcfe0e3a1b66b0&skey=@crypt_9c3dea4c_60ecfb2e75ead15f0cee966311a887cd
p6149
sVKeyWord
p6150
Vgh_
p6151
sVProvince
p6152
V\u6d59\u6c5f
p6153
sVPYInitial
p6154
VZJYD
p6155
sVRemarkName
p6156
g56
sVIsOwner
p6157
I0
sVSex
p6158
I0
sVStarFriend
p6159
I0
sVHideInputBarFlag
p6160
I0
sVChatRoomId
p6161
I0
sVEncryChatRoomId
p6162
g56
sVAttrStatus
p6163
I0
sVStatues
p6164
I0
stp6165
Rp6166
I1
bag34
(g5995
g39
(dp6167
VUserName
p6168
V@3b0a4b4a16753dadf97f82ca719e4dd1
p6169
sVCity
p6170
V\u5e7f\u5dde
p6171
sVSnsFlag
p6172
I0
sVDisplayName
p6173
g56
sVUniFriend
p6174
I0
sVMemberCount
p6175
I0
sVOwnerUin
p6176
I0
sVMemberList
p6177
g52
sVAlias
p6178
g56
sVPYQuanPin
p6179
Vgongzhongpingtaianquanzhushou
p6180
sVSignature
p6181
V\u63d0\u4f9b\u5fae\u4fe1\u516c\u4f17\u53f7\u767b\u5f55\u548c\u7fa4\u53d1\u7b49\u5b89\u5168\u64cd\u4f5c\uff0c\u5728\u624b\u673a\u4e0a\u67e5\u6536\u6d88\u606f\u3001\u8bc4\u8bba\u3001\u8d5e\u8d4f\uff0c\u65b0\u5efa\u7fa4\u53d1\u548c\u67e5\u770b\u7fa4\u53d1\u5386\u53f2\u3002
p6182
sVRemarkPYInitial
p6183
g56
sVContactFlag
p6184
I3
sVUin
p6185
I0
sVNickName
p6186
V\u516c\u4f17\u5e73\u53f0\u5b89\u5168\u52a9\u624b
p6187
sVAppAccountFlag
p6188
I0
sVVerifyFlag
p6189
I24
sVRemarkPYQuanPin
p6190
g56
sVHeadImgUrl
p6191
V/cgi-bin/mmwebwx-bin/webwxgeticon?seq=628763548&username=@3b0a4b4a16753dadf97f82ca719e4dd1&skey=@crypt_9c3dea4c_60ecfb2e75ead15f0cee966311a887cd
p6192
sVKeyWord
p6193
Vmph
p6194
sVProvince
p6195
V\u5e7f\u4e1c
p6196
sVPYInitial
p6197
VGZPTAQZS
p6198
sVRemarkName
p6199
g56
sVIsOwner
p6200
I0
sVSex
p6201
I0
sVStarFriend
p6202
I0
sVHideInputBarFlag
p6203
I0
sVChatRoomId
p6204
I0
sVEncryChatRoomId
p6205
g56
sVAttrStatus
p6206
I98459
sVStatues
p6207
I0
stp6208
Rp6209
I1
bag34
(g5995
g39
(dp6210
VUserName
p6211
V@703ee028907de43694b4d463eabe2028
p6212
sVCity
p6213
V\u5f90\u6c47
p6214
sVSnsFlag
p6215
I0
sVDisplayName
p6216
g56
sVUniFriend
p6217
I0
sVMemberCount
p6218
I0
sVOwnerUin
p6219
I0
sVMemberList
p6220
g52
sVAlias
p6221
g56
sVPYQuanPin
p6222
Vkendeji
p6223
sVSignature
p6224
V\u968f\u65f6\u968f\u5730\u83b7\u53d6KFC\u4f18\u60e0\u5238\u3001\u6700\u65b0\u4ea7\u54c1\u548c\u6d3b\u52a8\u4fe1\u606f
p6225
sVRemarkPYInitial
p6226
g56
sVContactFlag
p6227
I3
sVUin
p6228
I0
sVNickName
p6229
V\u80af\u5fb7\u57fa
p6230
sVAppAccountFlag
p6231
I0
sVVerifyFlag
p6232
I24
sVRemarkPYQuanPin
p6233
g56
sVHeadImgUrl
p6234
V/cgi-bin/mmwebwx-bin/webwxgeticon?seq=647569609&username=@703ee028907de43694b4d463eabe2028&skey=@crypt_9c3dea4c_60ecfb2e75ead15f0cee966311a887cd
p6235
sVKeyWord
p6236
Vgh_
p6237
sVProvince
p6238
V\u4e0a\u6d77
p6239
sVPYInitial
p6240
VKDJ
p6241
sVRemarkName
p6242
g56
sVIsOwner
p6243
I0
sVSex
p6244
I0
sVStarFriend
p6245
I0
sVHideInputBarFlag
p6246
I0
sVChatRoomId
p6247
I0
sVEncryChatRoomId
p6248
g56
sVAttrStatus
p6249
I0
sVStatues
p6250
I0
stp6251
Rp6252
I1
bag34
(g5995
g39
(dp6253
VUserName
p6254
V@c264908dca3301007a2aab243e9359fb
p6255
sVCity
p6256
V\u5408\u80a5
p6257
sVSnsFlag
p6258
I0
sVDisplayName
p6259
g56
sVUniFriend
p6260
I0
sVMemberCount
p6261
I0
sVOwnerUin
p6262
I0
sVMemberList
p6263
g52
sVAlias
p6264
g56
sVPYQuanPin
p6265
Vhuamikeji
p6266
sVSignature
p6267
V\u534e\u7c73\u79d1\u6280\u516c\u53f8\u5b98\u65b9\u516c\u4f17\u53f7\uff0c\u4e3a\u534e\u7c73\u79d1\u6280\u516c\u53f8\u76f8\u5173\u4ea7\u54c1\u63d0\u4f9b\u670d\u52a1\u3002
p6268
sVRemarkPYInitial
p6269
g56
sVContactFlag
p6270
I3
sVUin
p6271
I0
sVNickName
p6272
V\u534e\u7c73\u79d1\u6280
p6273
sVAppAccountFlag
p6274
I0
sVVerifyFlag
p6275
I24
sVRemarkPYQuanPin
p6276
g56
sVHeadImgUrl
p6277
V/cgi-bin/mmwebwx-bin/webwxgeticon?seq=647571495&username=@c264908dca3301007a2aab243e9359fb&skey=@crypt_9c3dea4c_60ecfb2e75ead15f0cee966311a887cd
p6278
sVKeyWord
p6279
Vgh_
p6280
sVProvince
p6281
V\u5b89\u5fbd
p6282
sVPYInitial
p6283
VHMKJ
p6284
sVRemarkName
p6285
g56
sVIsOwner
p6286
I0
sVSex
p6287
I0
sVStarFriend
p6288
I0
sVHideInputBarFlag
p6289
I0
sVChatRoomId
p6290
I0
sVEncryChatRoomId
p6291
g56
sVAttrStatus
p6292
I0
sVStatues
p6293
I0
stp6294
Rp6295
I1
bag34
(g5995
g39
(dp6296
VUserName
p6297
V@dae3e0c7f027c3f99b787df1e19a75ad1dd4b071d3530670d3d79c8bea1da145
p6298
sVCity
p6299
V\u5e7f\u5dde
p6300
sVSnsFlag
p6301
I0
sVDisplayName
p6302
g56
sVUniFriend
p6303
I0
sVMemberCount
p6304
I0
sVOwnerUin
p6305
I0
sVMemberList
p6306
g52
sVAlias
p6307
g56
sVPYQuanPin
p6308
Vweixingongzhongpingtai
p6309
sVSignature
p6310
V\u5e2e\u52a9\u60a8\u4e86\u89e3\u516c\u4f17\u5e10\u53f7\uff0c\u66f4\u597d\u5730\u8fd0\u8425\u5fae\u4fe1\u516c\u4f17\u5e10\u53f7\u3002
p6311
sVRemarkPYInitial
p6312
g56
sVContactFlag
p6313
I3
sVUin
p6314
I0
sVNickName
p6315
V\u5fae\u4fe1\u516c\u4f17\u5e73\u53f0
p6316
sVAppAccountFlag
p6317
I0
sVVerifyFlag
p6318
I24
sVRemarkPYQuanPin
p6319
g56
sVHeadImgUrl
p6320
V/cgi-bin/mmwebwx-bin/webwxgeticon?seq=661610187&username=@dae3e0c7f027c3f99b787df1e19a75ad1dd4b071d3530670d3d79c8bea1da145&skey=@crypt_9c3dea4c_60ecfb2e75ead15f0cee966311a887cd
p6321
sVKeyWord
p6322
Vwei
p6323
sVProvince
p6324
V\u5e7f\u4e1c
p6325
sVPYInitial
p6326
VWXGZPT
p6327
sVRemarkName
p6328
g56
sVIsOwner
p6329
I0
sVSex
p6330
I0
sVStarFriend
p6331
I0
sVHideInputBarFlag
p6332
I0
sVChatRoomId
p6333
I0
sVEncryChatRoomId
p6334
g56
sVAttrStatus
p6335
I0
sVStatues
p6336
I0
stp6337
Rp6338
I1
bag34
(g5995
g39
(dp6339
VUserName
p6340
V@07cb1cad975f7550f0d4152657f996a5
p6341
sVCity
p6342
V\u897f\u57ce
p6343
sVSnsFlag
p6344
I0
sVDisplayName
p6345
g56
sVUniFriend
p6346
I0
sVMemberCount
p6347
I0
sVOwnerUin
p6348
I0
sVMemberList
p6349
g52
sVAlias
p6350
g56
sVPYQuanPin
p6351
Vmifenkazhushou
p6352
sVSignature
p6353
V\u7c73\u7c89\u5361\u7528\u6237\u7684\u4e13\u5c5e\u670d\u52a1\u52a9\u624b\uff0c\u53f7\u5361\u6fc0\u6d3b\u3001\u6d41\u91cf\u8d60\u9001\uff0c\u66f4\u591a\u4f18\u60e0\u60ca\u559c\u5c3d\u5728\u201c\u7c73\u7c89\u5361\u52a9\u624b\u201d\uff01
p6354
sVRemarkPYInitial
p6355
g56
sVContactFlag
p6356
I3
sVUin
p6357
I0
sVNickName
p6358
V\u7c73\u7c89\u5361\u52a9\u624b
p6359
sVAppAccountFlag
p6360
I0
sVVerifyFlag
p6361
I24
sVRemarkPYQuanPin
p6362
g56
sVHeadImgUrl
p6363
V/cgi-bin/mmwebwx-bin/webwxgeticon?seq=662708809&username=@07cb1cad975f7550f0d4152657f996a5&skey=@crypt_9c3dea4c_60ecfb2e75ead15f0cee966311a887cd
p6364
sVKeyWord
p6365
Vgh_
p6366
sVProvince
p6367
V\u5317\u4eac
p6368
sVPYInitial
p6369
VMFKZS
p6370
sVRemarkName
p6371
g56
sVIsOwner
p6372
I0
sVSex
p6373
I0
sVStarFriend
p6374
I0
sVHideInputBarFlag
p6375
I0
sVChatRoomId
p6376
I0
sVEncryChatRoomId
p6377
g56
sVAttrStatus
p6378
I0
sVStatues
p6379
I0
stp6380
Rp6381
I1
bag34
(g5995
g39
(dp6382
VUserName
p6383
V@6e8f784f96b7962c4858478796e7ae76
p6384
sVCity
p6385
V\u6df1\u5733
p6386
sVSnsFlag
p6387
I0
sVDisplayName
p6388
g56
sVUniFriend
p6389
I0
sVMemberCount
p6390
I0
sVOwnerUin
p6391
I0
sVMemberList
p6392
g52
sVAlias
p6393
g56
sVPYQuanPin
p6394
Vyankan
p6395
sVSignature
p6396
V\u6709\u6001\u5ea6\uff0c\u4e00\u4e2a\u5e74\u8f7b\u4eba\u7684\u805a\u96c6\u5730\u3002
p6397
sVRemarkPYInitial
p6398
g56
sVContactFlag
p6399
I3
sVUin
p6400
I0
sVNickName
p6401
V\u8a00\u520a
p6402
sVAppAccountFlag
p6403
I0
sVVerifyFlag
p6404
I24
sVRemarkPYQuanPin
p6405
g56
sVHeadImgUrl
p6406
V/cgi-bin/mmwebwx-bin/webwxgeticon?seq=662762618&username=@6e8f784f96b7962c4858478796e7ae76&skey=@crypt_9c3dea4c_60ecfb2e75ead15f0cee966311a887cd
p6407
sVKeyWord
p6408
Vgh_
p6409
sVProvince
p6410
V\u5e7f\u4e1c
p6411
sVPYInitial
p6412
VYK
p6413
sVRemarkName
p6414
g56
sVIsOwner
p6415
I0
sVSex
p6416
I0
sVStarFriend
p6417
I0
sVHideInputBarFlag
p6418
I0
sVChatRoomId
p6419
I0
sVEncryChatRoomId
p6420
g56
sVAttrStatus
p6421
I0
sVStatues
p6422
I0
stp6423
Rp6424
I1
bag34
(g5995
g39
(dp6425
VUserName
p6426
V@d81e3d54cb3c2230110b78c1d449ee89
p6427
sVCity
p6428
V\u6e1d\u4e2d
p6429
sVSnsFlag
p6430
I0
sVDisplayName
p6431
g56
sVUniFriend
p6432
I0
sVMemberCount
p6433
I0
sVOwnerUin
p6434
I0
sVMemberList
p6435
g52
sVAlias
p6436
g56
sVPYQuanPin
p6437
Vsuwei
p6438
sVSignature
p6439
V\u8d85\u7ea7\u201c\u4e91\u98df\u5802\u201d\uff0c\u624b\u673a\u70b9\u9910\u5e76\u652f\u4ed8\uff0c\u9910\u5385\u5907\u9910\u653e\u5165\u9910\u683c\uff0c\u987e\u5ba2\u5230\u8fbe\u9910\u5385\u624b\u673a\u9065\u63a7\u5f00\u683c\u53d6\u9910\uff0c\u65e0\u9700\u6392\u961f\u7b49\u9910\uff0c\u4e09\u79d2\u5403\u5230\u6700\u65b0\u9c9c\u7684\u9910\u54c1\u3002\u6574\u5957\u7cfb\u7edf\u514d\u8d39\u4e13\u4f9b\u5feb\u9910\u5385\uff0c\u8be24008775571.\u6548\u7387\u518d\u63d0\u5347\u3002
p6440
sVRemarkPYInitial
p6441
g56
sVContactFlag
p6442
I3
sVUin
p6443
I0
sVNickName
p6444
V\u901f\u4f4d
p6445
sVAppAccountFlag
p6446
I0
sVVerifyFlag
p6447
I24
sVRemarkPYQuanPin
p6448
g56
sVHeadImgUrl
p6449
V/cgi-bin/mmwebwx-bin/webwxgeticon?seq=662764773&username=@d81e3d54cb3c2230110b78c1d449ee89&skey=@crypt_9c3dea4c_60ecfb2e75ead15f0cee966311a887cd
p6450
sVKeyWord
p6451
Vgh_
p6452
sVProvince
p6453
V\u91cd\u5e86
p6454
sVPYInitial
p6455
VSW
p6456
sVRemarkName
p6457
g56
sVIsOwner
p6458
I0
sVSex
p6459
I0
sVStarFriend
p6460
I0
sVHideInputBarFlag
p6461
I0
sVChatRoomId
p6462
I0
sVEncryChatRoomId
p6463
g56
sVAttrStatus
p6464
I0
sVStatues
p6465
I0
stp6466
Rp6467
I1
bag34
(g5995
g39
(dp6468
VUserName
p6469
V@fb8e556f1e6a3c4a6356fd5882f280df
p6470
sVCity
p6471
V\u5f90\u6c47
p6472
sVSnsFlag
p6473
I0
sVDisplayName
p6474
g56
sVUniFriend
p6475
I0
sVMemberCount
p6476
I0
sVOwnerUin
p6477
I0
sVMemberList
p6478
g52
sVAlias
p6479
g56
sVPYQuanPin
p6480
Vyijiajuyuebu
p6481
sVSignature
p6482
V\u5b9c\u5bb6\u4f1a\u5458\u4ff1\u4e50\u90e8\u4fe1\u606f
p6483
sVRemarkPYInitial
p6484
g56
sVContactFlag
p6485
I3
sVUin
p6486
I0
sVNickName
p6487
V\u5b9c\u5bb6\u4ff1\u4e50\u90e8
p6488
sVAppAccountFlag
p6489
I0
sVVerifyFlag
p6490
I24
sVRemarkPYQuanPin
p6491
g56
sVHeadImgUrl
p6492
V/cgi-bin/mmwebwx-bin/webwxgeticon?seq=662774012&username=@fb8e556f1e6a3c4a6356fd5882f280df&skey=@crypt_9c3dea4c_60ecfb2e75ead15f0cee966311a887cd
p6493
sVKeyWord
p6494
Vgh_
p6495
sVProvince
p6496
V\u4e0a\u6d77
p6497
sVPYInitial
p6498
VYJJYB
p6499
sVRemarkName
p6500
g56
sVIsOwner
p6501
I0
sVSex
p6502
I0
sVStarFriend
p6503
I0
sVHideInputBarFlag
p6504
I0
sVChatRoomId
p6505
I0
sVEncryChatRoomId
p6506
g56
sVAttrStatus
p6507
I0
sVStatues
p6508
I0
stp6509
Rp6510
I1
bag34
(g5995
g39
(dp6511
VUserName
p6512
V@5317b3b21261ceb0083ffa91cd227ee8
p6513
sVCity
p6514
V\u79e6\u7687\u5c9b
p6515
sVSnsFlag
p6516
I0
sVDisplayName
p6517
g56
sVUniFriend
p6518
I0
sVMemberCount
p6519
I0
sVOwnerUin
p6520
I0
sVMemberList
p6521
g52
sVAlias
p6522
g56
sVPYQuanPin
p6523
Vxiaozhoubaogao
p6524
sVSignature
p6525
V\u8fd9\u662f\u4e00\u4e2a\u7a0b\u5e8f\u5458\u7684\u4e16\u754c
p6526
sVRemarkPYInitial
p6527
g56
sVContactFlag
p6528
I3
sVUin
p6529
I0
sVNickName
p6530
V\u6653\u821f\u62a5\u544a
p6531
sVAppAccountFlag
p6532
I0
sVVerifyFlag
p6533
I8
sVRemarkPYQuanPin
p6534
g56
sVHeadImgUrl
p6535
V/cgi-bin/mmwebwx-bin/webwxgeticon?seq=662784767&username=@5317b3b21261ceb0083ffa91cd227ee8&skey=@crypt_9c3dea4c_60ecfb2e75ead15f0cee966311a887cd
p6536
sVKeyWord
p6537
Vgh_
p6538
sVProvince
p6539
V\u6cb3\u5317
p6540
sVPYInitial
p6541
VXZBG
p6542
sVRemarkName
p6543
g56
sVIsOwner
p6544
I0
sVSex
p6545
I0
sVStarFriend
p6546
I0
sVHideInputBarFlag
p6547
I0
sVChatRoomId
p6548
I0
sVEncryChatRoomId
p6549
g56
sVAttrStatus
p6550
I0
sVStatues
p6551
I0
stp6552
Rp6553
I1
bag34
(g5995
g39
(dp6554
VUserName
p6555
V@4f0039af631870cc6fcf2291b8728968
p6556
sVCity
p6557
V\u5e7f\u5dde
p6558
sVSnsFlag
p6559
I0
sVDisplayName
p6560
g56
sVUniFriend
p6561
I0
sVMemberCount
p6562
I0
sVOwnerUin
p6563
I0
sVMemberList
p6564
g52
sVAlias
p6565
g56
sVPYQuanPin
p6566
Vweixinyundong
p6567
sVSignature
p6568
V\u4e5f\u8bb8\u4f60\u65e9\u5df2\u4e60\u60ef\u4e00\u4e2a\u4eba\u8fd0\u52a8\u7684\u5b64\u72ec\uff0c\u5374\u4e5f\u5076\u5c14\u6e34\u671b\u5f97\u5230\u8d5e\u8d4f\u3002\u52a0\u5165\u5fae\u4fe1\u8fd0\u52a8\uff0c\u548c\u670b\u53cb\u4e00\u8d77\u70b9\u8d5e\u4e92\u52a8\u3001\u62a2\u5360\u5c01\u9762\uff0c\u5206\u4eab\u8fd0\u52a8\u7684\u5feb\u4e50\u3002
p6569
sVRemarkPYInitial
p6570
g56
sVContactFlag
p6571
I3
sVUin
p6572
I0
sVNickName
p6573
V\u5fae\u4fe1\u8fd0\u52a8
p6574
sVAppAccountFlag
p6575
I0
sVVerifyFlag
p6576
I24
sVRemarkPYQuanPin
p6577
g56
sVHeadImgUrl
p6578
V/cgi-bin/mmwebwx-bin/webwxgeticon?seq=647545046&username=@4f0039af631870cc6fcf2291b8728968&skey=@crypt_9c3dea4c_60ecfb2e75ead15f0cee966311a887cd
p6579
sVKeyWord
p6580
Vgh_
p6581
sVProvince
p6582
V\u5e7f\u4e1c
p6583
sVPYInitial
p6584
VWXYD
p6585
sVRemarkName
p6586
g56
sVIsOwner
p6587
I0
sVSex
p6588
I0
sVStarFriend
p6589
I0
sVHideInputBarFlag
p6590
I0
sVChatRoomId
p6591
I0
sVEncryChatRoomId
p6592
g56
sVAttrStatus
p6593
I0
sVStatues
p6594
I0
stp6595
Rp6596
I1
bag34
(g5995
g39
(dp6597
VUserName
p6598
V@d91af5783dfbdf1edd8dd9b272e463d3
p6599
sVCity
p6600
V\u5e7f\u5dde
p6601
sVSnsFlag
p6602
I0
sVDisplayName
p6603
g56
sVUniFriend
p6604
I0
sVMemberCount
p6605
I0
sVOwnerUin
p6606
I0
sVMemberList
p6607
g52
sVAlias
p6608
g56
sVPYQuanPin
p6609
Vhulitan
p6610
sVSignature
p6611
V\u4e00\u4e2a\u4ea7\u54c1\u4eba\u7684\u5b66\u4e60\u3001\u6210\u957f\u548c\u81ea\u6211\u6574\u7406\uff0c\u6709\u5e72\u8d27\u4e5f\u6709\u89c2\u70b9\u3002
p6612
sVRemarkPYInitial
p6613
g56
sVContactFlag
p6614
I3
sVUin
p6615
I0
sVNickName
p6616
V\u72d0\u72f8\u8c08
p6617
sVAppAccountFlag
p6618
I0
sVVerifyFlag
p6619
I8
sVRemarkPYQuanPin
p6620
g56
sVHeadImgUrl
p6621
V/cgi-bin/mmwebwx-bin/webwxgeticon?seq=662798158&username=@d91af5783dfbdf1edd8dd9b272e463d3&skey=@crypt_9c3dea4c_60ecfb2e75ead15f0cee966311a887cd
p6622
sVKeyWord
p6623
Vgh_
p6624
sVProvince
p6625
V\u5e7f\u4e1c
p6626
sVPYInitial
p6627
VHLT
p6628
sVRemarkName
p6629
g56
sVIsOwner
p6630
I0
sVSex
p6631
I0
sVStarFriend
p6632
I0
sVHideInputBarFlag
p6633
I0
sVChatRoomId
p6634
I0
sVEncryChatRoomId
p6635
g56
sVAttrStatus
p6636
I1
sVStatues
p6637
I0
stp6638
Rp6639
I1
batp6640
Rp6641
I1
bssS'loginInfo'
p6642
(dp6643
S'SyncKey'
p6644
(dp6645
VCount
p6646
I4
sVList
p6647
(lp6648
(dp6649
VVal
p6650
I662798157
sVKey
p6651
I1
sa(dp6652
VVal
p6653
I662798717
sVKey
p6654
I2
sa(dp6655
VVal
p6656
I662798376
sVKey
p6657
I3
sa(dp6658
VVal
p6659
I1511328675
sVKey
p6660
I1000
sassS'syncUrl'
p6661
S'https://webpush.wx.qq.com/cgi-bin/mmwebwx-bin'
p6662
sS'skey'
p6663
V@crypt_9c3dea4c_60ecfb2e75ead15f0cee966311a887cd
p6664
sS'wxuin'
p6665
V2693546021
p6666
sS'synckey'
p6667
S'1_662798157|2_662798717|3_662798376|1000_1511328675'
p6668
sS'url'
p6669
Vhttps://wx.qq.com/cgi-bin/mmwebwx-bin
p6670
sS'pass_ticket'
p6671
VvD5eQ7i8njQCLqGTi2YyPF%2B7yzNUot0yEp%2BDFwGPuPq2eAejchdoijd%2F3%2B9Bi5o3
p6672
sS'wxsid'
p6673
V/XRLlFbJWeMvRMDe
p6674
sS'User'
p6675
g34
(g38
g39
(dp6676
g41
g31
sg43
g46
sg45
g46
sg47
I0
sg49
g52
sg53
g56
sg55
g56
sg83
I1
sg58
I0
sg59
I0
sg60
g46
sg62
g46
sg63
g56
sg64
g56
sg66
I0
sg68
I0
sg69
I1
sg70
g46
sg71
I0
sg74
I0
sg72
I17
sg73
I0
sg48
I0
sg75
g46
sg76
g56
sg77
I0
sg78
g5569
sg80
g56
sg81
g5570
sg57
I2693546021
sg84
I0
sg85
I0
stp6677
Rp6678
I1
bsS'InviteStartCount'
p6679
I40
sS'fileUrl'
p6680
S'https://file.wx.qq.com/cgi-bin/mmwebwx-bin'
p6681
sS'BaseRequest'
p6682
(dp6683
g57
g6666
sS'Skey'
p6684
g6664
sS'DeviceID'
p6685
g6672
sS'Sid'
p6686
g6674
ssS'deviceid'
p6687
S'e707405166869420'
p6688
ss.