(dp0
S'cookies'
p1
(dp2
S'wxloadtime'
p3
S'1511527271'
p4
sS'webwx_data_ticket'
p5
S'gScBPdUwqnVYrpCDbgMmJGhp'
p6
sS'wxuin'
p7
S'2693546021'
p8
sS'login_frequency'
p9
S'2'
p10
sS'MM_WX_NOTIFY_STATE'
p11
S'1'
p12
sS'MM_WX_SOUND_STATE'
p13
g12
sS'webwx_auth_ticket'
p14
S'CIsBEMb9reoEGoABCQl0YupBXNluocPkhzuO8gTFhWxHUz4m195O0BCQYwkBB/h72JmoXHJiOHWd0vuW5TDrjZDvERd5hlIIAF4VlPHivJb7IWHQMhwJg4Z497ji+GaqMW0/KkryZgZgo1E3tVjsrtqOAJtc5sY78DPYHTupElVvUiX1VdIrOdDGwZs='
p15
sS'last_wxuin'
p16
S'2693546021'
p17
sS'webwxuvid'
p18
S'a29028be717eaf2649178db4e0fd08cdc103f739d63e1eedafaf9b8408e1df49ced50a11f1ede9f1fb7826ed8a598de2'
p19
sS'wxpluginkey'
p20
S'1511526384'
p21
sS'wxsid'
p22
S'qSwKZK3FVmytbYpJ'
p23
sS'mm_lang'
p24
S'zh_CN'
p25
ssS'version'
p26
S'1.3.10'
p27
sS'storage'
p28
(dp29
S'userName'
p30
V@aac10f671c59d0c878e1548e0c53630b2f010f138bcf14f1cf910ea53b662910
p31
sS'lastInputUserName'
p32
NsS'memberList'
p33
ccopy_reg
_reconstructor
p34
(citchat.storage.templates
ContactList
p35
c__builtin__
list
p36
(lp37
g34
(citchat.storage.templates
User
p38
c__builtin__
dict
p39
(dp40
S'UserName'
p41
V@aac10f671c59d0c878e1548e0c53630b2f010f138bcf14f1cf910ea53b662910
p42
sS'City'
p43
V\u671d\u9633
p44
sS'DisplayName'
p45
S''
p46
sS'UniFriend'
p47
I0
sS'OwnerUin'
p48
I0
sS'MemberList'
p49
g34
(g35
g36
(lp50
tp51
Rp52
I1
bsS'PYQuanPin'
p53
Vkiwi
p54
sS'RemarkPYInitial'
p55
V
p56
sS'Uin'
p57
I2693546021
sS'AppAccountFlag'
p58
I0
sS'VerifyFlag'
p59
I0
sS'Province'
p60
V\u5317\u4eac
p61
sS'KeyWord'
p62
g46
sS'RemarkName'
p63
g56
sS'PYInitial'
p64
VKIWI
p65
sS'ChatRoomId'
p66
I0
sVIsOwner
p67
I0
sS'HideInputBarFlag'
p68
I0
sVHeadImgFlag
p69
I1
sS'EncryChatRoomId'
p70
g46
sS'AttrStatus'
p71
I98405
sS'SnsFlag'
p72
I17
sS'MemberCount'
p73
I0
sVWebWxPluginSwitch
p74
I0
sS'Alias'
p75
g46
sS'Signature'
p76
g56
sS'ContactFlag'
p77
I1
sS'NickName'
p78
Vkiwi
p79
sS'RemarkPYQuanPin'
p80
g56
sS'HeadImgUrl'
p81
V/cgi-bin/mmwebwx-bin/webwxgeticon?seq=500029&username=@aac10f671c59d0c878e1548e0c53630b2f010f138bcf14f1cf910ea53b662910&skey=@crypt_9c3dea4c_40bcca64877cc7f6d3ac377ba4298757
p82
sS'Sex'
p83
I1
sS'StarFriend'
p84
I0
sS'Statues'
p85
I0
stp86
Rp87
I1
bag34
(g38
g39
(dp88
VUserName
p89
V@a1d804dc642581121787612bd31c1053175dd94acdf170bf511c59e1ea41a5b2
p90
sVCity
p91
V\u8861\u6c34
p92
sVSnsFlag
p93
I1
sVDisplayName
p94
g56
sVUniFriend
p95
I0
sVMemberCount
p96
I0
sVOwnerUin
p97
I0
sVMemberList
p98
g52
sVAlias
p99
g56
sVPYQuanPin
p100
Vyiluxiangqian
p101
sVSignature
p102
V\u8033\u4e0d\u95fb\u4eba\u4e4b\u975e\uff0c\u76ee\u4e0d\u89c6\u4eba\u4e4b\u77ed\uff0c\u53e3\u4e0d\u8a00\u4eba\u4e4b\u8fc7\u3002 \u200b\u200b\u200b
p103
sVRemarkPYInitial
p104
VKFJ
p105
sVContactFlag
p106
I3
sVUin
p107
I0
sVNickName
p108
V\u4e00\u8def\u5411\u524d
p109
sVAppAccountFlag
p110
I0
sVVerifyFlag
p111
I0
sVRemarkPYQuanPin
p112
Vkoufengjie
p113
sVHeadImgUrl
p114
V/cgi-bin/mmwebwx-bin/webwxgeticon?seq=662799804&username=@a1d804dc642581121787612bd31c1053175dd94acdf170bf511c59e1ea41a5b2&skey=@crypt_9c3dea4c_40bcca64877cc7f6d3ac377ba4298757
p115
sVKeyWord
p116
g56
sVProvince
p117
V\u6cb3\u5317
p118
sVPYInitial
p119
VYLXQ
p120
sVRemarkName
p121
V\u5bc7\u51e4\u6770
p122
sVIsOwner
p123
I0
sVSex
p124
I2
sVStarFriend
p125
I0
sVHideInputBarFlag
p126
I0
sVChatRoomId
p127
I0
sVEncryChatRoomId
p128
g56
sVAttrStatus
p129
I135293
sVStatues
p130
I0
stp131
Rp132
I1
bag34
(g38
g39
(dp133
VUserName
p134
V@7eca4e5ad8d1b491677009be2f02f09003275303f342d049e86d796b52eb64cc
p135
sVCity
p136
g56
sVSnsFlag
p137
I1
sVDisplayName
p138
g56
sVUniFriend
p139
I0
sVMemberCount
p140
I0
sVOwnerUin
p141
I0
sVMemberList
p142
g52
sVAlias
p143
g56
sVPYQuanPin
p144
Vwangbaishitian
p145
sVSignature
p146
V\u5f97\u5230\u597d\u4e1c\u897f\u7684\u529e\u6cd5\uff0c\u5c31\u662f\u8ba9\u81ea\u5df1\u914d\u7684\u4e0a\u5b83\u3002
p147
sVRemarkPYInitial
p148
VXYTZB
p149
sVContactFlag
p150
I3
sVUin
p151
I0
sVNickName
p152
V\u738b\u767d\u77f3\u7530
p153
sVAppAccountFlag
p154
I0
sVVerifyFlag
p155
I0
sVRemarkPYQuanPin
p156
Vxiuyuantianzengbi
p157
sVHeadImgUrl
p158
V/cgi-bin/mmwebwx-bin/webwxgeticon?seq=662781118&username=@7eca4e5ad8d1b491677009be2f02f09003275303f342d049e86d796b52eb64cc&skey=@crypt_9c3dea4c_40bcca64877cc7f6d3ac377ba4298757
p159
sVKeyWord
p160
g56
sVProvince
p161
V\u5317\u4eac
p162
sVPYInitial
p163
VWBST
p164
sVRemarkName
p165
V\u4fee\u9662-\u7530\u589e\u74a7
p166
sVIsOwner
p167
I0
sVSex
p168
I1
sVStarFriend
p169
I0
sVHideInputBarFlag
p170
I0
sVChatRoomId
p171
I0
sVEncryChatRoomId
p172
g56
sVAttrStatus
p173
I102501
sVStatues
p174
I0
stp175
Rp176
I1
bag34
(g38
g39
(dp177
VUserName
p178
V@115c3715307b089ff21a2879eb68c51776c48cf435489fb0d40d870487aa2514
p179
sVCity
p180
g56
sVSnsFlag
p181
I17
sVDisplayName
p182
g56
sVUniFriend
p183
I0
sVMemberCount
p184
I0
sVOwnerUin
p185
I0
sVMemberList
p186
g52
sVAlias
p187
g56
sVPYQuanPin
p188
VBenYo
p189
sVSignature
p190
V\u96c6\u96e8\u6210\u955c \u5012\u6620\u6210\u62f1
p191
sVRemarkPYInitial
p192
VLYLH
p193
sVContactFlag
p194
I3
sVUin
p195
I0
sVNickName
p196
VBenYo
p197
sVAppAccountFlag
p198
I0
sVVerifyFlag
p199
I0
sVRemarkPYQuanPin
p200
Vlinyilihao
p201
sVHeadImgUrl
p202
V/cgi-bin/mmwebwx-bin/webwxgeticon?seq=662765466&username=@115c3715307b089ff21a2879eb68c51776c48cf435489fb0d40d870487aa2514&skey=@crypt_9c3dea4c_40bcca64877cc7f6d3ac377ba4298757
p203
sVKeyWord
p204
g56
sVProvince
p205
g56
sVPYInitial
p206
VBENYO
p207
sVRemarkName
p208
V\u4e34\u6c82-\u674e\u8c6a
p209
sVIsOwner
p210
I0
sVSex
p211
I0
sVStarFriend
p212
I0
sVHideInputBarFlag
p213
I0
sVChatRoomId
p214
I0
sVEncryChatRoomId
p215
g56
sVAttrStatus
p216
I247717
sVStatues
p217
I0
stp218
Rp219
I1
bag34
(g38
g39
(dp220
VUserName
p221
V@17d420c525ffa08507a3420ffa36de7148b96bb3d8005e7e5f013071abcaebb8
p222
sVCity
p223
V\u6e29\u5dde
p224
sVSnsFlag
p225
I17
sVDisplayName
p226
g56
sVUniFriend
p227
I0
sVMemberCount
p228
I0
sVOwnerUin
p229
I0
sVMemberList
p230
g52
sVAlias
p231
g56
sVPYQuanPin
p232
Vjiaxiaolan
p233
sVSignature
p234
V\u9002\u5408\u662f\u6700\u597d\u7684
p235
sVRemarkPYInitial
p236
VMTJXLCW
p237
sVContactFlag
p238
I3
sVUin
p239
I0
sVNickName
p240
V\u8d3e\u5c0f\u5170
p241
sVAppAccountFlag
p242
I0
sVVerifyFlag
p243
I0
sVRemarkPYQuanPin
p244
Vmaitianjiaxiaolancaiwu
p245
sVHeadImgUrl
p246
V/cgi-bin/mmwebwx-bin/webwxgeticon?seq=640120208&username=@17d420c525ffa08507a3420ffa36de7148b96bb3d8005e7e5f013071abcaebb8&skey=@crypt_9c3dea4c_40bcca64877cc7f6d3ac377ba4298757
p247
sVKeyWord
p248
g56
sVProvince
p249
V\u6d59\u6c5f
p250
sVPYInitial
p251
VJXL
p252
sVRemarkName
p253
V\u9ea6\u7530-\u8d3e\u5c0f\u5170--\u8d22\u52a1
p254
sVIsOwner
p255
I0
sVSex
p256
I2
sVStarFriend
p257
I0
sVHideInputBarFlag
p258
I0
sVChatRoomId
p259
I0
sVEncryChatRoomId
p260
g56
sVAttrStatus
p261
I104517
sVStatues
p262
I0
stp263
Rp264
I1
bag34
(g38
g39
(dp265
VUserName
p266
V@b0e03b47a3ccb0122f0f301c8eeae662
p267
sVCity
p268
V\u6dee\u5357
p269
sVSnsFlag
p270
I16
sVDisplayName
p271
g56
sVUniFriend
p272
I0
sVMemberCount
p273
I0
sVOwnerUin
p274
I0
sVMemberList
p275
g52
sVAlias
p276
g56
sVPYQuanPin
p277
VQuiet
p278
sVSignature
p279
g56
sVRemarkPYInitial
p280
VALLK
p281
sVContactFlag
p282
I3
sVUin
p283
I0
sVNickName
p284
VQuiet
p285
sVAppAccountFlag
p286
I0
sVVerifyFlag
p287
I0
sVRemarkPYQuanPin
p288
Vanliliukang
p289
sVHeadImgUrl
p290
V/cgi-bin/mmwebwx-bin/webwxgeticon?seq=620970157&username=@b0e03b47a3ccb0122f0f301c8eeae662&skey=@crypt_9c3dea4c_40bcca64877cc7f6d3ac377ba4298757
p291
sVKeyWord
p292
VLK1
p293
sVProvince
p294
V\u5b89\u5fbd
p295
sVPYInitial
p296
VQUIET
p297
sVRemarkName
p298
V\u5b89\u7406-\u5218\u5eb7
p299
sVIsOwner
p300
I0
sVSex
p301
I1
sVStarFriend
p302
I0
sVHideInputBarFlag
p303
I0
sVChatRoomId
p304
I0
sVEncryChatRoomId
p305
g56
sVAttrStatus
p306
I4283
sVStatues
p307
I0
stp308
Rp309
I1
bag34
(g38
g39
(dp310
VUserName
p311
V@24752350f835456e0d1f3125db5fbd6f15d5b620a2b0fe55c43938db754ffe7b
p312
sVCity
p313
V\u8861\u6c34
p314
sVSnsFlag
p315
I1
sVDisplayName
p316
g56
sVUniFriend
p317
I0
sVMemberCount
p318
I0
sVOwnerUin
p319
I0
sVMemberList
p320
g52
sVAlias
p321
g56
sVPYQuanPin
p322
Vzcy15503298217
p323
sVSignature
p324
V\u52aa\u529b\u594b\u6597\uff0c\u4ee5\u6700\u597d\u7684\u5fc3\u6001\u8fce\u63a5\u65b0\u4e00\u6bb5\u65f6\u95f4\u7684\u5de5\u4f5c\u3002
p325
sVRemarkPYInitial
p326
VYHXL
p327
sVContactFlag
p328
I3
sVUin
p329
I0
sVNickName
p330
Vzcy15503298217
p331
sVAppAccountFlag
p332
I0
sVVerifyFlag
p333
I0
sVRemarkPYQuanPin
p334
Vyihanxingliu
p335
sVHeadImgUrl
p336
V/cgi-bin/mmwebwx-bin/webwxgeticon?seq=647556546&username=@24752350f835456e0d1f3125db5fbd6f15d5b620a2b0fe55c43938db754ffe7b&skey=@crypt_9c3dea4c_40bcca64877cc7f6d3ac377ba4298757
p337
sVKeyWord
p338
g56
sVProvince
p339
V\u6cb3\u5317
p340
sVPYInitial
p341
VZCY15503298217
p342
sVRemarkName
p343
V\u4f0a-\u97e9\u674f\u67f3
p344
sVIsOwner
p345
I0
sVSex
p346
I2
sVStarFriend
p347
I0
sVHideInputBarFlag
p348
I0
sVChatRoomId
p349
I0
sVEncryChatRoomId
p350
g56
sVAttrStatus
p351
I135265
sVStatues
p352
I0
stp353
Rp354
I1
bag34
(g38
g39
(dp355
VUserName
p356
V@e2faf302c068f75f3b04ba69c833cf975fee6291b4f28120a32989e5a9646e60
p357
sVCity
p358
g56
sVSnsFlag
p359
I1
sVDisplayName
p360
g56
sVUniFriend
p361
I0
sVMemberCount
p362
I0
sVOwnerUin
p363
I0
sVMemberList
p364
g52
sVAlias
p365
g56
sVPYQuanPin
p366
Vbaihe
p367
sVSignature
p368
g56
sVRemarkPYInitial
p369
VYMHL
p370
sVContactFlag
p371
I3
sVUin
p372
I0
sVNickName
p373
V\u767e\u5408
p374
sVAppAccountFlag
p375
I0
sVVerifyFlag
p376
I0
sVRemarkPYQuanPin
p377
Vyimeihualing
p378
sVHeadImgUrl
p379
V/cgi-bin/mmwebwx-bin/webwxgeticon?seq=662690959&username=@e2faf302c068f75f3b04ba69c833cf975fee6291b4f28120a32989e5a9646e60&skey=@crypt_9c3dea4c_40bcca64877cc7f6d3ac377ba4298757
p380
sVKeyWord
p381
g56
sVProvince
p382
g56
sVPYInitial
p383
VBH
p384
sVRemarkName
p385
V\u4f0a-\u6885\u82b1\u73b2
p386
sVIsOwner
p387
I0
sVSex
p388
I2
sVStarFriend
p389
I0
sVHideInputBarFlag
p390
I0
sVChatRoomId
p391
I0
sVEncryChatRoomId
p392
g56
sVAttrStatus
p393
I4133
sVStatues
p394
I0
stp395
Rp396
I1
bag34
(g38
g39
(dp397
VUserName
p398
V@e26836560ba5f73aee11fc20e26a397b8635e404660c39e568b5d8d31905408c
p399
sVCity
p400
V\u6e29\u5dde
p401
sVSnsFlag
p402
I1
sVDisplayName
p403
g56
sVUniFriend
p404
I0
sVMemberCount
p405
I0
sVOwnerUin
p406
I0
sVMemberList
p407
g52
sVAlias
p408
g56
sVPYQuanPin
p409
Vdayinlaxiehuan
p410
sVSignature
p411
V\u6211\u662f\u6253\u5370\u5566\uff08dayinl.a\uff09\u7684\u8c22\u6b22
p412
sVRemarkPYInitial
p413
VMTXH
p414
sVContactFlag
p415
I3
sVUin
p416
I0
sVNickName
p417
V\u6253\u5370\u5566\u8c22\u6b22
p418
sVAppAccountFlag
p419
I0
sVVerifyFlag
p420
I0
sVRemarkPYQuanPin
p421
Vmaitianxiehuan
p422
sVHeadImgUrl
p423
V/cgi-bin/mmwebwx-bin/webwxgeticon?seq=640121875&username=@e26836560ba5f73aee11fc20e26a397b8635e404660c39e568b5d8d31905408c&skey=@crypt_9c3dea4c_40bcca64877cc7f6d3ac377ba4298757
p424
sVKeyWord
p425
g56
sVProvince
p426
V\u6d59\u6c5f
p427
sVPYInitial
p428
VDYLXH
p429
sVRemarkName
p430
V\u9ea6\u7530-\u8c22\u6b22-
p431
sVIsOwner
p432
I0
sVSex
p433
I2
sVStarFriend
p434
I0
sVHideInputBarFlag
p435
I0
sVChatRoomId
p436
I0
sVEncryChatRoomId
p437
g56
sVAttrStatus
p438
I233573
sVStatues
p439
I0
stp440
Rp441
I1
bag34
(g38
g39
(dp442
VUserName
p443
V@4bf57bcc1d9d90b2863e8e427ba7b0996fae6eaaa0bd7794e1eee784c36ddcfd
p444
sVCity
p445
V\u6e29\u5dde
p446
sVSnsFlag
p447
I17
sVDisplayName
p448
g56
sVUniFriend
p449
I0
sVMemberCount
p450
I0
sVOwnerUin
p451
I0
sVMemberList
p452
g52
sVAlias
p453
g56
sVPYQuanPin
p454
Vspanclassemojiemoji2747span
p455
sVSignature
p456
g56
sVRemarkPYInitial
p457
VMTXLLCW
p458
sVContactFlag
p459
I3
sVUin
p460
I0
sVNickName
p461
V\u2747
p462
sVAppAccountFlag
p463
I0
sVVerifyFlag
p464
I0
sVRemarkPYQuanPin
p465
Vmaitianxielilicaiwu
p466
sVHeadImgUrl
p467
V/cgi-bin/mmwebwx-bin/webwxgeticon?seq=647548850&username=@4bf57bcc1d9d90b2863e8e427ba7b0996fae6eaaa0bd7794e1eee784c36ddcfd&skey=@crypt_9c3dea4c_40bcca64877cc7f6d3ac377ba4298757
p468
sVKeyWord
p469
g56
sVProvince
p470
V\u6d59\u6c5f
p471
sVPYInitial
p472
VSPANCLASSEMOJIEMOJI2747SPAN
p473
sVRemarkName
p474
V\u9ea6\u7530-\u8c22\u8389\u8389-\u8d22\u52a1
p475
sVIsOwner
p476
I0
sVSex
p477
I2
sVStarFriend
p478
I0
sVHideInputBarFlag
p479
I0
sVChatRoomId
p480
I0
sVEncryChatRoomId
p481
g56
sVAttrStatus
p482
I104487
sVStatues
p483
I0
stp484
Rp485
I1
bag34
(g38
g39
(dp486
VUserName
p487
V@96a3fb90174d83d649ce28c1811b6431
p488
sVCity
p489
V\u6e29\u5dde
p490
sVSnsFlag
p491
I49
sVDisplayName
p492
g56
sVUniFriend
p493
I0
sVMemberCount
p494
I0
sVOwnerUin
p495
I0
sVMemberList
p496
g52
sVAlias
p497
g56
sVPYQuanPin
p498
Vchenzhonghui?
p499
sVSignature
p500
g56
sVRemarkPYInitial
p501
VMTCZHDN
p502
sVContactFlag
p503
I3
sVUin
p504
I0
sVNickName
p505
V\u5c18\u4e2d\u7070\u2705
p506
sVAppAccountFlag
p507
I0
sVVerifyFlag
p508
I0
sVRemarkPYQuanPin
p509
Vmaitianchenzhonghuidaniu
p510
sVHeadImgUrl
p511
V/cgi-bin/mmwebwx-bin/webwxgeticon?seq=662704114&username=@96a3fb90174d83d649ce28c1811b6431&skey=@crypt_9c3dea4c_40bcca64877cc7f6d3ac377ba4298757
p512
sVKeyWord
p513
Vahu
p514
sVProvince
p515
V\u6d59\u6c5f
p516
sVPYInitial
p517
VCZH?
p518
sVRemarkName
p519
V\u9ea6\u7530-\u9648\u5fe0\u8f89--\u5927\u725b
p520
sVIsOwner
p521
I0
sVSex
p522
I1
sVStarFriend
p523
I0
sVHideInputBarFlag
p524
I0
sVChatRoomId
p525
I0
sVEncryChatRoomId
p526
g56
sVAttrStatus
p527
I50440295
sVStatues
p528
I0
stp529
Rp530
I1
bag34
(g38
g39
(dp531
VUserName
p532
V@c9a9c65fa2ba2a7c3bd8c9efd067e8f3
p533
sVCity
p534
V\u7126\u4f5c
p535
sVSnsFlag
p536
I49
sVDisplayName
p537
g56
sVUniFriend
p538
I0
sVMemberCount
p539
I0
sVOwnerUin
p540
I0
sVMemberList
p541
g52
sVAlias
p542
g56
sVPYQuanPin
p543
Vdou
p544
sVSignature
p545
VAee\uff5e
p546
sVRemarkPYInitial
p547
VALZSJ
p548
sVContactFlag
p549
I3
sVUin
p550
I0
sVNickName
p551
V\u8c46\uff5e
p552
sVAppAccountFlag
p553
I0
sVVerifyFlag
p554
I0
sVRemarkPYQuanPin
p555
Vanlizhangshijun
p556
sVHeadImgUrl
p557
V/cgi-bin/mmwebwx-bin/webwxgeticon?seq=642360655&username=@c9a9c65fa2ba2a7c3bd8c9efd067e8f3&skey=@crypt_9c3dea4c_40bcca64877cc7f6d3ac377ba4298757
p558
sVKeyWord
p559
Vvnd
p560
sVProvince
p561
V\u6cb3\u5357
p562
sVPYInitial
p563
VD
p564
sVRemarkName
p565
V\u5b89\u7406-\u5f20\u77f3\u541b
p566
sVIsOwner
p567
I0
sVSex
p568
I1
sVStarFriend
p569
I0
sVHideInputBarFlag
p570
I0
sVChatRoomId
p571
I0
sVEncryChatRoomId
p572
g56
sVAttrStatus
p573
I239551
sVStatues
p574
I0
stp575
Rp576
I1
bag34
(g38
g39
(dp577
VUserName
p578
V@15d0b4f1e5fe1190fea8d97816bd63ac
p579
sVCity
p580
V\u5357\u4eac
p581
sVSnsFlag
p582
I17
sVDisplayName
p583
g56
sVUniFriend
p584
I0
sVMemberCount
p585
I0
sVOwnerUin
p586
I0
sVMemberList
p587
g52
sVAlias
p588
g56
sVPYQuanPin
p589
Vzifeiyu
p590
sVSignature
p591
g56
sVRemarkPYInitial
p592
VALCY
p593
sVContactFlag
p594
I3
sVUin
p595
I0
sVNickName
p596
V\u5b50\u975e\u9c7c
p597
sVAppAccountFlag
p598
I0
sVVerifyFlag
p599
I0
sVRemarkPYQuanPin
p600
Vanlichuyu
p601
sVHeadImgUrl
p602
V/cgi-bin/mmwebwx-bin/webwxgeticon?seq=647540927&username=@15d0b4f1e5fe1190fea8d97816bd63ac&skey=@crypt_9c3dea4c_40bcca64877cc7f6d3ac377ba4298757
p603
sVKeyWord
p604
Vyuc
p605
sVProvince
p606
V\u6c5f\u82cf
p607
sVPYInitial
p608
VZFY
p609
sVRemarkName
p610
V\u5b89\u7406-\u50a8\u6e1d
p611
sVIsOwner
p612
I0
sVSex
p613
I1
sVStarFriend
p614
I0
sVHideInputBarFlag
p615
I0
sVChatRoomId
p616
I0
sVEncryChatRoomId
p617
g56
sVAttrStatus
p618
I102499
sVStatues
p619
I0
stp620
Rp621
I1
bag34
(g38
g39
(dp622
VUserName
p623
V@20f66c92a7b74481f1d913926ce3539718575c4dd78dd6d265762b8317cdd844
p624
sVCity
p625
V\u868c\u57e0
p626
sVSnsFlag
p627
I17
sVDisplayName
p628
g56
sVUniFriend
p629
I0
sVMemberCount
p630
I0
sVOwnerUin
p631
I0
sVMemberList
p632
g52
sVAlias
p633
g56
sVPYQuanPin
p634
Vqianyuan
p635
sVSignature
p636
V\u2026
p637
sVRemarkPYInitial
p638
VALQY
p639
sVContactFlag
p640
I3
sVUin
p641
I0
sVNickName
p642
V\u94b1\u6e90
p643
sVAppAccountFlag
p644
I0
sVVerifyFlag
p645
I0
sVRemarkPYQuanPin
p646
Vanliqianying
p647
sVHeadImgUrl
p648
V/cgi-bin/mmwebwx-bin/webwxgeticon?seq=620800091&username=@20f66c92a7b74481f1d913926ce3539718575c4dd78dd6d265762b8317cdd844&skey=@crypt_9c3dea4c_40bcca64877cc7f6d3ac377ba4298757
p649
sVKeyWord
p650
g56
sVProvince
p651
V\u5b89\u5fbd
p652
sVPYInitial
p653
VQY
p654
sVRemarkName
p655
V\u5b89\u7406-\u94b1\u83b9
p656
sVIsOwner
p657
I0
sVSex
p658
I1
sVStarFriend
p659
I0
sVHideInputBarFlag
p660
I0
sVChatRoomId
p661
I0
sVEncryChatRoomId
p662
g56
sVAttrStatus
p663
I16880673
sVStatues
p664
I0
stp665
Rp666
I1
bag34
(g38
g39
(dp667
VUserName
p668
V@f2dac6d0cfafed8285a2ceef4bcd365341315d9f25cbd91f15aeb369e10b62a5
p669
sVCity
p670
V\u5408\u80a5
p671
sVSnsFlag
p672
I17
sVDisplayName
p673
g56
sVUniFriend
p674
I0
sVMemberCount
p675
I0
sVOwnerUin
p676
I0
sVMemberList
p677
g52
sVAlias
p678
g56
sVPYQuanPin
p679
Vzhanganan
p680
sVSignature
p681
VMan proposes,God disposes
p682
sVRemarkPYInitial
p683
VALZAA
p684
sVContactFlag
p685
I3
sVUin
p686
I0
sVNickName
p687
V\u5f20\u5b89\u5b89
p688
sVAppAccountFlag
p689
I0
sVVerifyFlag
p690
I0
sVRemarkPYQuanPin
p691
Vanlizhanganan
p692
sVHeadImgUrl
p693
V/cgi-bin/mmwebwx-bin/webwxgeticon?seq=662697362&username=@f2dac6d0cfafed8285a2ceef4bcd365341315d9f25cbd91f15aeb369e10b62a5&skey=@crypt_9c3dea4c_40bcca64877cc7f6d3ac377ba4298757
p694
sVKeyWord
p695
g56
sVProvince
p696
V\u5b89\u5fbd
p697
sVPYInitial
p698
VZAA
p699
sVRemarkName
p700
V\u5b89\u7406-\u5f20\u5b89\u5b89
p701
sVIsOwner
p702
I0
sVSex
p703
I1
sVStarFriend
p704
I0
sVHideInputBarFlag
p705
I0
sVChatRoomId
p706
I0
sVEncryChatRoomId
p707
g56
sVAttrStatus
p708
I103613
sVStatues
p709
I0
stp710
Rp711
I1
bag34
(g38
g39
(dp712
VUserName
p713
V@e776f9e45a20911958da22729e310fe8
p714
sVCity
p715
g56
sVSnsFlag
p716
I17
sVDisplayName
p717
g56
sVUniFriend
p718
I0
sVMemberCount
p719
I0
sVOwnerUin
p720
I0
sVMemberList
p721
g52
sVAlias
p722
g56
sVPYQuanPin
p723
VxiPxi
p724
sVSignature
p725
V\u751f\u6d3b\u4e0d\u6b62\u773c\u524d\u7684\u82df\u4e14\uff0c\u8fd8\u6709\u8bfb\u4e0d\u61c2\u7684\u8bd7\u548c\u5230\u4e0d\u4e86\u7684\u8fdc\u65b9
p726
sVRemarkPYInitial
p727
VALCW
p728
sVContactFlag
p729
I3
sVUin
p730
I0
sVNickName
p731
V\u5e0cP\u60dc
p732
sVAppAccountFlag
p733
I0
sVVerifyFlag
p734
I0
sVRemarkPYQuanPin
p735
Vanlicuiwang
p736
sVHeadImgUrl
p737
V/cgi-bin/mmwebwx-bin/webwxgeticon?seq=625632466&username=@e776f9e45a20911958da22729e310fe8&skey=@crypt_9c3dea4c_40bcca64877cc7f6d3ac377ba4298757
p738
sVKeyWord
p739
Vcw6
p740
sVProvince
p741
g56
sVPYInitial
p742
VXPX
p743
sVRemarkName
p744
V\u5b89\u7406-\u50ac\u65fa
p745
sVIsOwner
p746
I0
sVSex
p747
I1
sVStarFriend
p748
I0
sVHideInputBarFlag
p749
I0
sVChatRoomId
p750
I0
sVEncryChatRoomId
p751
g56
sVAttrStatus
p752
I98343
sVStatues
p753
I0
stp754
Rp755
I1
bag34
(g38
g39
(dp756
VUserName
p757
V@9334956b264c04bb18a661087ce4ea34
p758
sVCity
p759
V\u5408\u80a5
p760
sVSnsFlag
p761
I145
sVDisplayName
p762
g56
sVUniFriend
p763
I0
sVMemberCount
p764
I0
sVOwnerUin
p765
I0
sVMemberList
p766
g52
sVAlias
p767
g56
sVPYQuanPin
p768
VZLM
p769
sVSignature
p770
V\u8bb0\u5f97\u90a3\u65f6\u5e74\u7eaa\u5c0f\uff0c\u4f60\u7231\u8c08\u5929\u6211\u7231\u7b11\u3002
p771
sVRemarkPYInitial
p772
VALZLM
p773
sVContactFlag
p774
I3
sVUin
p775
I0
sVNickName
p776
VZLM
p777
sVAppAccountFlag
p778
I0
sVVerifyFlag
p779
I0
sVRemarkPYQuanPin
p780
Vanlizhanglimin
p781
sVHeadImgUrl
p782
V/cgi-bin/mmwebwx-bin/webwxgeticon?seq=631380420&username=@9334956b264c04bb18a661087ce4ea34&skey=@crypt_9c3dea4c_40bcca64877cc7f6d3ac377ba4298757
p783
sVKeyWord
p784
Vzha
p785
sVProvince
p786
V\u5b89\u5fbd
p787
sVPYInitial
p788
VZLM
p789
sVRemarkName
p790
V\u5b89\u7406-\u5f20\u5229\u6c11
p791
sVIsOwner
p792
I0
sVSex
p793
I1
sVStarFriend
p794
I0
sVHideInputBarFlag
p795
I0
sVChatRoomId
p796
I0
sVEncryChatRoomId
p797
g56
sVAttrStatus
p798
I16889959
sVStatues
p799
I0
stp800
Rp801
I1
bag34
(g38
g39
(dp802
VUserName
p803
V@e32fa22733473b43ac2de43fcc0bd2427e6ee86b6e9c0899a10b7965654828e4
p804
sVCity
p805
g56
sVSnsFlag
p806
I17
sVDisplayName
p807
g56
sVUniFriend
p808
I0
sVMemberCount
p809
I0
sVOwnerUin
p810
I0
sVMemberList
p811
g52
sVAlias
p812
g56
sVPYQuanPin
p813
Vxiaoshizi
p814
sVSignature
p815
V\u505a\u4e2a\u81ea\u5df1\u4e0d\u8ba8\u538c\u7684\u660e\u5a9a\u7684\u5973\u5b50\uff01\u54c8\u54c8<span class="emoji emoji1f604"></span>\u6602\u626c\u7684\u59ff\u6001\u8fce\u63a5\u6bcf\u4e00\u5929\uff01
p816
sVRemarkPYInitial
p817
VALSAP
p818
sVContactFlag
p819
I3
sVUin
p820
I0
sVNickName
p821
V\u5c0f\u5e08\u5b50
p822
sVAppAccountFlag
p823
I0
sVVerifyFlag
p824
I0
sVRemarkPYQuanPin
p825
Vanlishiaiping
p826
sVHeadImgUrl
p827
V/cgi-bin/mmwebwx-bin/webwxgeticon?seq=662715418&username=@e32fa22733473b43ac2de43fcc0bd2427e6ee86b6e9c0899a10b7965654828e4&skey=@crypt_9c3dea4c_40bcca64877cc7f6d3ac377ba4298757
p828
sVKeyWord
p829
g56
sVProvince
p830
V\u5929\u6d25
p831
sVPYInitial
p832
VXSZ
p833
sVRemarkName
p834
V\u5b89\u7406-\u5e08\u7231\u5e73
p835
sVIsOwner
p836
I0
sVSex
p837
I2
sVStarFriend
p838
I0
sVHideInputBarFlag
p839
I0
sVChatRoomId
p840
I0
sVEncryChatRoomId
p841
g56
sVAttrStatus
p842
I230437
sVStatues
p843
I0
stp844
Rp845
I1
bag34
(g38
g39
(dp846
VUserName
p847
V@8ba526c4bd7312d8350ec2907f3e52273c2d89bb9faed01cb252f048e8fe83e0
p848
sVCity
p849
VSan Francisco
p850
sVSnsFlag
p851
I17
sVDisplayName
p852
g56
sVUniFriend
p853
I0
sVMemberCount
p854
I0
sVOwnerUin
p855
I0
sVMemberList
p856
g52
sVAlias
p857
g56
sVPYQuanPin
p858
Vduiyixiananjifenpian
p859
sVSignature
p860
V\u73cd\u60dc\u4e00\u5207\uff0c\u5927\u6b65\u5411\u524d\uff0c\u62e5\u62b1\u672a\u6765\u3002
p861
sVRemarkPYInitial
p862
VALZQM
p863
sVContactFlag
p864
I3
sVUin
p865
I0
sVNickName
p866
V\u5bf9\u4e59\u9170\u6c28\u57fa\u915a\u7247
p867
sVAppAccountFlag
p868
I0
sVVerifyFlag
p869
I0
sVRemarkPYQuanPin
p870
Vanlizhangqiming
p871
sVHeadImgUrl
p872
V/cgi-bin/mmwebwx-bin/webwxgeticon?seq=625180693&username=@8ba526c4bd7312d8350ec2907f3e52273c2d89bb9faed01cb252f048e8fe83e0&skey=@crypt_9c3dea4c_40bcca64877cc7f6d3ac377ba4298757
p873
sVKeyWord
p874
g56
sVProvince
p875
VCalifornia
p876
sVPYInitial
p877
VDYXAJFP
p878
sVRemarkName
p879
V\u5b89\u7406-\u5f20\u542f\u660e
p880
sVIsOwner
p881
I0
sVSex
p882
I1
sVStarFriend
p883
I0
sVHideInputBarFlag
p884
I0
sVChatRoomId
p885
I0
sVEncryChatRoomId
p886
g56
sVAttrStatus
p887
I136487
sVStatues
p888
I0
stp889
Rp890
I1
bag34
(g38
g39
(dp891
VUserName
p892
V@0a2439c24c692e583520f4115ad9b3d1
p893
sVCity
p894
V\u5609\u5174
p895
sVSnsFlag
p896
I17
sVDisplayName
p897
g56
sVUniFriend
p898
I0
sVMemberCount
p899
I0
sVOwnerUin
p900
I0
sVMemberList
p901
g52
sVAlias
p902
g56
sVPYQuanPin
p903
V?sihunqishi
p904
sVSignature
p905
g56
sVRemarkPYInitial
p906
VALCJHELM
p907
sVContactFlag
p908
I3
sVUin
p909
I0
sVNickName
p910
V\U0001f990\u6b7b\u9b42\u9a91\u58eb
p911
sVAppAccountFlag
p912
I0
sVVerifyFlag
p913
I0
sVRemarkPYQuanPin
p914
Vanlicaojiahuielema
p915
sVHeadImgUrl
p916
V/cgi-bin/mmwebwx-bin/webwxgeticon?seq=661610344&username=@0a2439c24c692e583520f4115ad9b3d1&skey=@crypt_9c3dea4c_40bcca64877cc7f6d3ac377ba4298757
p917
sVKeyWord
p918
Vshq
p919
sVProvince
p920
V\u6d59\u6c5f
p921
sVPYInitial
p922
V?SHQS
p923
sVRemarkName
p924
V\u5b89\u7406-\u66f9\u4f73\u6656-\u997f\u4e86\u5417
p925
sVIsOwner
p926
I0
sVSex
p927
I1
sVStarFriend
p928
I0
sVHideInputBarFlag
p929
I0
sVChatRoomId
p930
I0
sVEncryChatRoomId
p931
g56
sVAttrStatus
p932
I241767
sVStatues
p933
I0
stp934
Rp935
I1
bag34
(g38
g39
(dp936
VUserName
p937
V@f1c7b2968b8ac203ead93a88f074d49d
p938
sVCity
p939
V\u6d77\u6dc0
p940
sVSnsFlag
p941
I17
sVDisplayName
p942
g56
sVUniFriend
p943
I0
sVMemberCount
p944
I0
sVOwnerUin
p945
I0
sVMemberList
p946
g52
sVAlias
p947
g56
sVPYQuanPin
p948
Vwendaoxiangdewoniu
p949
sVSignature
p950
V\u4e00\u7b11\u98ce\u96e8\u4efb\u5e73\u751f
p951
sVRemarkPYInitial
p952
VHKZHCS
p953
sVContactFlag
p954
I3
sVUin
p955
I0
sVNickName
p956
V\u95fb\u7a3b\u9999\u7684\u8717\u725b
p957
sVAppAccountFlag
p958
I0
sVVerifyFlag
p959
I0
sVRemarkPYQuanPin
p960
Vhaikezhanghuiceshi
p961
sVHeadImgUrl
p962
V/cgi-bin/mmwebwx-bin/webwxgeticon?seq=662717680&username=@f1c7b2968b8ac203ead93a88f074d49d&skey=@crypt_9c3dea4c_40bcca64877cc7f6d3ac377ba4298757
p963
sVKeyWord
p964
Vcar
p965
sVProvince
p966
V\u5317\u4eac
p967
sVPYInitial
p968
VWDXDWN
p969
sVRemarkName
p970
V\u6c26\u6c2a-\u5f20\u6167-\u6d4b\u8bd5
p971
sVIsOwner
p972
I0
sVSex
p973
I2
sVStarFriend
p974
I0
sVHideInputBarFlag
p975
I0
sVChatRoomId
p976
I0
sVEncryChatRoomId
p977
g56
sVAttrStatus
p978
I102503
sVStatues
p979
I0
stp980
Rp981
I1
bag34
(g38
g39
(dp982
VUserName
p983
V@45c0f9b308097cd2506e5002345a093c
p984
sVCity
p985
V\u8861\u6c34
p986
sVSnsFlag
p987
I17
sVDisplayName
p988
g56
sVUniFriend
p989
I0
sVMemberCount
p990
I0
sVOwnerUin
p991
I0
sVMemberList
p992
g52
sVAlias
p993
g56
sVPYQuanPin
p994
Vbingdi
p995
sVSignature
p996
V\u9760\u9760\u9760\u9760\u2026\u2029\u2029\u2029\u81ea\u5df1\u52aa\u529b
p997
sVRemarkPYInitial
p998
VXYFTL
p999
sVContactFlag
p1000
I3
sVUin
p1001
I0
sVNickName
p1002
V\u51b0\u6ef4
p1003
sVAppAccountFlag
p1004
I0
sVVerifyFlag
p1005
I0
sVRemarkPYQuanPin
p1006
Vxiuyuanfutianlu
p1007
sVHeadImgUrl
p1008
V/cgi-bin/mmwebwx-bin/webwxgeticon?seq=662696031&username=@45c0f9b308097cd2506e5002345a093c&skey=@crypt_9c3dea4c_40bcca64877cc7f6d3ac377ba4298757
p1009
sVKeyWord
p1010
Vfug
p1011
sVProvince
p1012
V\u6cb3\u5317
p1013
sVPYInitial
p1014
VBD
p1015
sVRemarkName
p1016
V\u4fee\u9662-\u5085\u5929\u8def
p1017
sVIsOwner
p1018
I0
sVSex
p1019
I1
sVStarFriend
p1020
I0
sVHideInputBarFlag
p1021
I0
sVChatRoomId
p1022
I0
sVEncryChatRoomId
p1023
g56
sVAttrStatus
p1024
I102437
sVStatues
p1025
I0
stp1026
Rp1027
I1
bag34
(g38
g39
(dp1028
VUserName
p1029
V@d8572f2a50d0f725bf326f514108b50500a61132c38d2133c22b0a7783308a84
p1030
sVCity
p1031
g56
sVSnsFlag
p1032
I0
sVDisplayName
p1033
g56
sVUniFriend
p1034
I0
sVMemberCount
p1035
I0
sVOwnerUin
p1036
I0
sVMemberList
p1037
g52
sVAlias
p1038
g56
sVPYQuanPin
p1039
VGio
p1040
sVSignature
p1041
g56
sVRemarkPYInitial
p1042
VXYWCL
p1043
sVContactFlag
p1044
I3
sVUin
p1045
I0
sVNickName
p1046
VGio
p1047
sVAppAccountFlag
p1048
I0
sVVerifyFlag
p1049
I0
sVRemarkPYQuanPin
p1050
Vxiuyuanwangchangliang
p1051
sVHeadImgUrl
p1052
V/cgi-bin/mmwebwx-bin/webwxgeticon?seq=662693979&username=@d8572f2a50d0f725bf326f514108b50500a61132c38d2133c22b0a7783308a84&skey=@crypt_9c3dea4c_40bcca64877cc7f6d3ac377ba4298757
p1053
sVKeyWord
p1054
g56
sVProvince
p1055
VPisa
p1056
sVPYInitial
p1057
VGIO
p1058
sVRemarkName
p1059
V\u4fee\u9662-\u738b\u5e38\u4eae
p1060
sVIsOwner
p1061
I0
sVSex
p1062
I1
sVStarFriend
p1063
I0
sVHideInputBarFlag
p1064
I0
sVChatRoomId
p1065
I0
sVEncryChatRoomId
p1066
g56
sVAttrStatus
p1067
I233573
sVStatues
p1068
I0
stp1069
Rp1070
I1
bag34
(g38
g39
(dp1071
VUserName
p1072
V@c6cd29f6797bf3e59437cb091cdf00079a6baf650285a6648e48c869c0bc990d
p1073
sVCity
p1074
g56
sVSnsFlag
p1075
I1
sVDisplayName
p1076
g56
sVUniFriend
p1077
I0
sVMemberCount
p1078
I0
sVOwnerUin
p1079
I0
sVMemberList
p1080
g52
sVAlias
p1081
g56
sVPYQuanPin
p1082
VDanny
p1083
sVSignature
p1084
V\u4e00\u5207\u5e73\u5e38\u5fc3
p1085
sVRemarkPYInitial
p1086
VHDANNYJDGL
p1087
sVContactFlag
p1088
I3
sVUin
p1089
I0
sVNickName
p1090
VDanny
p1091
sVAppAccountFlag
p1092
I0
sVVerifyFlag
p1093
I0
sVRemarkPYQuanPin
p1094
VhangDannyjiudianguanli
p1095
sVHeadImgUrl
p1096
V/cgi-bin/mmwebwx-bin/webwxgeticon?seq=662702742&username=@c6cd29f6797bf3e59437cb091cdf00079a6baf650285a6648e48c869c0bc990d&skey=@crypt_9c3dea4c_40bcca64877cc7f6d3ac377ba4298757
p1097
sVKeyWord
p1098
g56
sVProvince
p1099
V\u6fb3\u95e8
p1100
sVPYInitial
p1101
VDANNY
p1102
sVRemarkName
p1103
V\u676d-Danny-\u9152\u5e97\u7ba1\u7406
p1104
sVIsOwner
p1105
I0
sVSex
p1106
I1
sVStarFriend
p1107
I0
sVHideInputBarFlag
p1108
I0
sVChatRoomId
p1109
I0
sVEncryChatRoomId
p1110
g56
sVAttrStatus
p1111
I33820677
sVStatues
p1112
I0
stp1113
Rp1114
I1
bag34
(g38
g39
(dp1115
VUserName
p1116
V@5435e0c4785502b2d7da97d26c457c4910904b0bb65948c2aa9ce82fbeebcc1b
p1117
sVCity
p1118
V\u6210\u90fd
p1119
sVSnsFlag
p1120
I49
sVDisplayName
p1121
g56
sVUniFriend
p1122
I0
sVMemberCount
p1123
I0
sVOwnerUin
p1124
I0
sVMemberList
p1125
g52
sVAlias
p1126
g56
sVPYQuanPin
p1127
Vqisicaizonggongsi
p1128
sVSignature
p1129
V\U0001f46a<span class="emoji emoji1f487"></span>
p1130
sVRemarkPYInitial
p1131
VYWZYJJCD
p1132
sVContactFlag
p1133
I3
sVUin
p1134
I0
sVNickName
p1135
V\u4e03\u4e1d\u5f69\u603b\u516c\u53f8
p1136
sVAppAccountFlag
p1137
I0
sVVerifyFlag
p1138
I0
sVRemarkPYQuanPin
p1139
Vyiwangzhiyongjiajuchengdu
p1140
sVHeadImgUrl
p1141
V/cgi-bin/mmwebwx-bin/webwxgeticon?seq=642362303&username=@5435e0c4785502b2d7da97d26c457c4910904b0bb65948c2aa9ce82fbeebcc1b&skey=@crypt_9c3dea4c_40bcca64877cc7f6d3ac377ba4298757
p1142
sVKeyWord
p1143
g56
sVProvince
p1144
V\u56db\u5ddd
p1145
sVPYInitial
p1146
VQSCZGS
p1147
sVRemarkName
p1148
V\u4f0a-\u738b\u5fd7\u52c7-\u5bb6\u5177-\u6210\u90fd
p1149
sVIsOwner
p1150
I0
sVSex
p1151
I1
sVStarFriend
p1152
I0
sVHideInputBarFlag
p1153
I0
sVChatRoomId
p1154
I0
sVEncryChatRoomId
p1155
g56
sVAttrStatus
p1156
I105375
sVStatues
p1157
I0
stp1158
Rp1159
I1
bag34
(g38
g39
(dp1160
VUserName
p1161
V@698ba923e261e69fbdac3f0f53648abc
p1162
sVCity
p1163
V\u90af\u90f8
p1164
sVSnsFlag
p1165
I49
sVDisplayName
p1166
g56
sVUniFriend
p1167
I0
sVMemberCount
p1168
I0
sVOwnerUin
p1169
I0
sVMemberList
p1170
g52
sVAlias
p1171
g56
sVPYQuanPin
p1172
Vhuishichao
p1173
sVSignature
p1174
V\u9003\u907f\u81ea\u5df1\u5230\u4f55\u65f6
p1175
sVRemarkPYInitial
p1176
VWZHSCTX
p1177
sVContactFlag
p1178
I3
sVUin
p1179
I0
sVNickName
p1180
Vhuishichao
p1181
sVAppAccountFlag
p1182
I0
sVVerifyFlag
p1183
I0
sVRemarkPYQuanPin
p1184
Vwuzhonghuishichaotongxin
p1185
sVHeadImgUrl
p1186
V/cgi-bin/mmwebwx-bin/webwxgeticon?seq=620580582&username=@698ba923e261e69fbdac3f0f53648abc&skey=@crypt_9c3dea4c_40bcca64877cc7f6d3ac377ba4298757
p1187
sVKeyWord
p1188
Vhui
p1189
sVProvince
p1190
V\u6cb3\u5317
p1191
sVPYInitial
p1192
VHUISHICHAO
p1193
sVRemarkName
p1194
V\u6b66\u4e2d-\u60e0\u4e16\u8d85-\u901a\u4fe1
p1195
sVIsOwner
p1196
I0
sVSex
p1197
I1
sVStarFriend
p1198
I0
sVHideInputBarFlag
p1199
I0
sVChatRoomId
p1200
I0
sVEncryChatRoomId
p1201
g56
sVAttrStatus
p1202
I102435
sVStatues
p1203
I0
stp1204
Rp1205
I1
bag34
(g38
g39
(dp1206
VUserName
p1207
V@08fb8f9873de79e0c27c898d6675c6e2
p1208
sVCity
p1209
V\u77f3\u5bb6\u5e84
p1210
sVSnsFlag
p1211
I17
sVDisplayName
p1212
g56
sVUniFriend
p1213
I0
sVMemberCount
p1214
I0
sVOwnerUin
p1215
I0
sVMemberList
p1216
g52
sVAlias
p1217
g56
sVPYQuanPin
p1218
Vhanfeizi
p1219
sVSignature
p1220
V\u6e05\u5fc3\u5be1\u6b32 \u6e05\u51c0\u65e0\u4e3a
p1221
sVRemarkPYInitial
p1222
VWZHFZTJ
p1223
sVContactFlag
p1224
I3
sVUin
p1225
I0
sVNickName
p1226
V\u97e9\u98de\u5b50
p1227
sVAppAccountFlag
p1228
I0
sVVerifyFlag
p1229
I0
sVRemarkPYQuanPin
p1230
Vwuzhonghanfeizhongtiejian
p1231
sVHeadImgUrl
p1232
V/cgi-bin/mmwebwx-bin/webwxgeticon?seq=662541113&username=@08fb8f9873de79e0c27c898d6675c6e2&skey=@crypt_9c3dea4c_40bcca64877cc7f6d3ac377ba4298757
p1233
sVKeyWord
p1234
Vhan
p1235
sVProvince
p1236
V\u6cb3\u5317
p1237
sVPYInitial
p1238
VHFZ
p1239
sVRemarkName
p1240
V\u6b66\u4e2d-\u97e9\u975e-\u4e2d\u94c1\u5efa
p1241
sVIsOwner
p1242
I0
sVSex
p1243
I1
sVStarFriend
p1244
I0
sVHideInputBarFlag
p1245
I0
sVChatRoomId
p1246
I0
sVEncryChatRoomId
p1247
g56
sVAttrStatus
p1248
I71783
sVStatues
p1249
I0
stp1250
Rp1251
I1
bag34
(g38
g39
(dp1252
VUserName
p1253
V@012b5b5d9ff3759228a034c215535929
p1254
sVCity
p1255
g56
sVSnsFlag
p1256
I49
sVDisplayName
p1257
g56
sVUniFriend
p1258
I0
sVMemberCount
p1259
I0
sVOwnerUin
p1260
I0
sVMemberList
p1261
g52
sVAlias
p1262
g56
sVPYQuanPin
p1263
Vtong
p1264
sVSignature
p1265
V\u4e0d\u77e5\u9053\u4e0d\u660e\u4e86\u4e0d\u60f3\u8981 \u4e3a\u4ec0\u4e48\u6211\u7684\u5fc3\uff0c\u660e\u660e\u662f\u60f3\u9760\u8fd1\uff0c\u5374\u5b64\u5355\u5230\u9ece\u660e
p1266
sVRemarkPYInitial
p1267
VMTTZYPHP
p1268
sVContactFlag
p1269
I3
sVUin
p1270
I0
sVNickName
p1271
V\u7ae5
p1272
sVAppAccountFlag
p1273
I0
sVVerifyFlag
p1274
I0
sVRemarkPYQuanPin
p1275
VmaitiantongzongyanPHP
p1276
sVHeadImgUrl
p1277
V/cgi-bin/mmwebwx-bin/webwxgeticon?seq=628760251&username=@012b5b5d9ff3759228a034c215535929&skey=@crypt_9c3dea4c_40bcca64877cc7f6d3ac377ba4298757
p1278
sVKeyWord
p1279
Vton
p1280
sVProvince
p1281
g56
sVPYInitial
p1282
VT
p1283
sVRemarkName
p1284
V\u9ea6\u7530-\u7ae5\u5b97\u5ef6-PHP
p1285
sVIsOwner
p1286
I0
sVSex
p1287
I1
sVStarFriend
p1288
I0
sVHideInputBarFlag
p1289
I0
sVChatRoomId
p1290
I0
sVEncryChatRoomId
p1291
g56
sVAttrStatus
p1292
I129383
sVStatues
p1293
I0
stp1294
Rp1295
I1
bag34
(g38
g39
(dp1296
VUserName
p1297
V@8940ed12f14f3dca84ea6f94f8fe1a26
p1298
sVCity
p1299
V\u82cf\u5dde
p1300
sVSnsFlag
p1301
I17
sVDisplayName
p1302
g56
sVUniFriend
p1303
I0
sVMemberCount
p1304
I0
sVOwnerUin
p1305
I0
sVMemberList
p1306
g52
sVAlias
p1307
g56
sVPYQuanPin
p1308
Vanjing
p1309
sVSignature
p1310
V\u5b89\u9759
p1311
sVRemarkPYInitial
p1312
VALLXY
p1313
sVContactFlag
p1314
I3
sVUin
p1315
I0
sVNickName
p1316
V\u5b89\u9759
p1317
sVAppAccountFlag
p1318
I0
sVVerifyFlag
p1319
I0
sVRemarkPYQuanPin
p1320
Vanliliuxiangyin
p1321
sVHeadImgUrl
p1322
V/cgi-bin/mmwebwx-bin/webwxgeticon?seq=662731738&username=@8940ed12f14f3dca84ea6f94f8fe1a26&skey=@crypt_9c3dea4c_40bcca64877cc7f6d3ac377ba4298757
p1323
sVKeyWord
p1324
VA13
p1325
sVProvince
p1326
V\u6c5f\u82cf
p1327
sVPYInitial
p1328
VAJ
p1329
sVRemarkName
p1330
V\u5b89\u7406-\u5218\u7fd4\u97f3
p1331
sVIsOwner
p1332
I0
sVSex
p1333
I1
sVStarFriend
p1334
I0
sVHideInputBarFlag
p1335
I0
sVChatRoomId
p1336
I0
sVEncryChatRoomId
p1337
g56
sVAttrStatus
p1338
I102439
sVStatues
p1339
I0
stp1340
Rp1341
I1
bag34
(g38
g39
(dp1342
VUserName
p1343
V@0881c992722616224389e291718474bb4ba1a21f216e9b7f4fd4489ab010c4e8
p1344
sVCity
p1345
g56
sVSnsFlag
p1346
I17
sVDisplayName
p1347
g56
sVUniFriend
p1348
I0
sVMemberCount
p1349
I0
sVOwnerUin
p1350
I0
sVMemberList
p1351
g52
sVAlias
p1352
g56
sVPYQuanPin
p1353
Vbaishuo
p1354
sVSignature
p1355
V\u552f\u6709\u5320\u5fc3\uff0c\u4e0d\u8d1f\u5149\u9634
p1356
sVRemarkPYInitial
p1357
VWZYJM
p1358
sVContactFlag
p1359
I3
sVUin
p1360
I0
sVNickName
p1361
V\u767d\u8bf4
p1362
sVAppAccountFlag
p1363
I0
sVVerifyFlag
p1364
I0
sVRemarkPYQuanPin
p1365
Vwuzhongyangjinming
p1366
sVHeadImgUrl
p1367
V/cgi-bin/mmwebwx-bin/webwxgeticon?seq=647544245&username=@0881c992722616224389e291718474bb4ba1a21f216e9b7f4fd4489ab010c4e8&skey=@crypt_9c3dea4c_40bcca64877cc7f6d3ac377ba4298757
p1368
sVKeyWord
p1369
g56
sVProvince
p1370
V\u9752\u6d77
p1371
sVPYInitial
p1372
VBS
p1373
sVRemarkName
p1374
V\u6b66\u4e2d-\u6768\u91d1\u94ed
p1375
sVIsOwner
p1376
I0
sVSex
p1377
I1
sVStarFriend
p1378
I0
sVHideInputBarFlag
p1379
I0
sVChatRoomId
p1380
I0
sVEncryChatRoomId
p1381
g56
sVAttrStatus
p1382
I111717
sVStatues
p1383
I0
stp1384
Rp1385
I1
bag34
(g38
g39
(dp1386
VUserName
p1387
V@c33b633bd67a5f974280e40cca59c7a5163beeb2ab6493363674ee04848841e2
p1388
sVCity
p1389
V\u6dee\u5357
p1390
sVSnsFlag
p1391
I17
sVDisplayName
p1392
g56
sVUniFriend
p1393
I0
sVMemberCount
p1394
I0
sVOwnerUin
p1395
I0
sVMemberList
p1396
g52
sVAlias
p1397
g56
sVPYQuanPin
p1398
Vxiaohui
p1399
sVSignature
p1400
V\u81ea\u4fe1\u7684\u5973\u5b69\u6700\u7f8e\uff01
p1401
sVRemarkPYInitial
p1402
VALCXH
p1403
sVContactFlag
p1404
I3
sVUin
p1405
I0
sVNickName
p1406
V\u5c0f\u60e0
p1407
sVAppAccountFlag
p1408
I0
sVVerifyFlag
p1409
I0
sVRemarkPYQuanPin
p1410
Vanlichenxihui
p1411
sVHeadImgUrl
p1412
V/cgi-bin/mmwebwx-bin/webwxgeticon?seq=647548201&username=@c33b633bd67a5f974280e40cca59c7a5163beeb2ab6493363674ee04848841e2&skey=@crypt_9c3dea4c_40bcca64877cc7f6d3ac377ba4298757
p1413
sVKeyWord
p1414
g56
sVProvince
p1415
V\u5b89\u5fbd
p1416
sVPYInitial
p1417
VXH
p1418
sVRemarkName
p1419
V\u5b89\u7406-\u9648\u7199\u60e0
p1420
sVIsOwner
p1421
I0
sVSex
p1422
I2
sVStarFriend
p1423
I0
sVHideInputBarFlag
p1424
I0
sVChatRoomId
p1425
I0
sVEncryChatRoomId
p1426
g56
sVAttrStatus
p1427
I131429
sVStatues
p1428
I0
stp1429
Rp1430
I1
bag34
(g38
g39
(dp1431
VUserName
p1432
V@67bb6ef1ff79609462c445792b7861d32619c9b8d3957cc368163797ec820dcf
p1433
sVCity
p1434
V\u6f5c\u6c5f
p1435
sVSnsFlag
p1436
I17
sVDisplayName
p1437
g56
sVUniFriend
p1438
I0
sVMemberCount
p1439
I0
sVOwnerUin
p1440
I0
sVMemberList
p1441
g52
sVAlias
p1442
g56
sVPYQuanPin
p1443
VDmy
p1444
sVSignature
p1445
g56
sVRemarkPYInitial
p1446
VHKDMYUI
p1447
sVContactFlag
p1448
I3
sVUin
p1449
I0
sVNickName
p1450
VDmy
p1451
sVAppAccountFlag
p1452
I0
sVVerifyFlag
p1453
I0
sVRemarkPYQuanPin
p1454
VhaikedengmengyingUI
p1455
sVHeadImgUrl
p1456
V/cgi-bin/mmwebwx-bin/webwxgeticon?seq=662738719&username=@67bb6ef1ff79609462c445792b7861d32619c9b8d3957cc368163797ec820dcf&skey=@crypt_9c3dea4c_40bcca64877cc7f6d3ac377ba4298757
p1457
sVKeyWord
p1458
g56
sVProvince
p1459
V\u6e56\u5317
p1460
sVPYInitial
p1461
VDMY
p1462
sVRemarkName
p1463
V\u6c26\u6c2a-\u9093\u68a6\u83b9-UI
p1464
sVIsOwner
p1465
I0
sVSex
p1466
I2
sVStarFriend
p1467
I0
sVHideInputBarFlag
p1468
I0
sVChatRoomId
p1469
I0
sVEncryChatRoomId
p1470
g56
sVAttrStatus
p1471
I103207
sVStatues
p1472
I0
stp1473
Rp1474
I1
bag34
(g38
g39
(dp1475
VUserName
p1476
V@25a001f1a282378cf759e0fd8d82e348dcd2c26b3b7f32f84452400b59ca2895
p1477
sVCity
p1478
V\u6d66\u4e1c\u65b0\u533a
p1479
sVSnsFlag
p1480
I17
sVDisplayName
p1481
g56
sVUniFriend
p1482
I0
sVMemberCount
p1483
I0
sVOwnerUin
p1484
I0
sVMemberList
p1485
g52
sVAlias
p1486
g56
sVPYQuanPin
p1487
VCherryZhao
p1488
sVSignature
p1489
g56
sVRemarkPYInitial
p1490
VYZXXSH
p1491
sVContactFlag
p1492
I3
sVUin
p1493
I0
sVNickName
p1494
VCherry Zhao
p1495
sVAppAccountFlag
p1496
I0
sVVerifyFlag
p1497
I0
sVRemarkPYQuanPin
p1498
Vyizhaoxiaoxiashanghai
p1499
sVHeadImgUrl
p1500
V/cgi-bin/mmwebwx-bin/webwxgeticon?seq=662740908&username=@25a001f1a282378cf759e0fd8d82e348dcd2c26b3b7f32f84452400b59ca2895&skey=@crypt_9c3dea4c_40bcca64877cc7f6d3ac377ba4298757
p1501
sVKeyWord
p1502
Vsho
p1503
sVProvince
p1504
V\u4e0a\u6d77
p1505
sVPYInitial
p1506
VCHERRYZHAO
p1507
sVRemarkName
p1508
V\u4f0a-\u8d75\u6653\u971e-\u4e0a\u6d77
p1509
sVIsOwner
p1510
I0
sVSex
p1511
I2
sVStarFriend
p1512
I0
sVHideInputBarFlag
p1513
I0
sVChatRoomId
p1514
I0
sVEncryChatRoomId
p1515
g56
sVAttrStatus
p1516
I103719
sVStatues
p1517
I0
stp1518
Rp1519
I1
bag34
(g38
g39
(dp1520
VUserName
p1521
V@4b0737e99e7e67b84367b921cd65a05c
p1522
sVCity
p1523
V\u8861\u6c34
p1524
sVSnsFlag
p1525
I17
sVDisplayName
p1526
g56
sVUniFriend
p1527
I0
sVMemberCount
p1528
I0
sVOwnerUin
p1529
I0
sVMemberList
p1530
g52
sVAlias
p1531
g56
sVPYQuanPin
p1532
Vqigongzi
p1533
sVSignature
p1534
g56
sVRemarkPYInitial
p1535
VYMBTJJ
p1536
sVContactFlag
p1537
I3
sVUin
p1538
I0
sVNickName
p1539
V\u4e03\u516c\u5b50
p1540
sVAppAccountFlag
p1541
I0
sVVerifyFlag
p1542
I0
sVRemarkPYQuanPin
p1543
Vyimeibutianjijian
p1544
sVHeadImgUrl
p1545
V/cgi-bin/mmwebwx-bin/webwxgeticon?seq=662741304&username=@4b0737e99e7e67b84367b921cd65a05c&skey=@crypt_9c3dea4c_40bcca64877cc7f6d3ac377ba4298757
p1546
sVKeyWord
p1547
Vmmc
p1548
sVProvince
p1549
V\u6cb3\u5317
p1550
sVPYInitial
p1551
VQGZ
p1552
sVRemarkName
p1553
V\u4f0a-\u6885\u5e03\u5929-\u57fa\u5efa
p1554
sVIsOwner
p1555
I0
sVSex
p1556
I1
sVStarFriend
p1557
I0
sVHideInputBarFlag
p1558
I0
sVChatRoomId
p1559
I0
sVEncryChatRoomId
p1560
g56
sVAttrStatus
p1561
I4135
sVStatues
p1562
I0
stp1563
Rp1564
I1
bag34
(g38
g39
(dp1565
VUserName
p1566
V@59faaff8d180f5f3210dfbc6d80d058b3427229c45f87d22e85e2d781fadeb2a
p1567
sVCity
p1568
V\u5408\u80a5
p1569
sVSnsFlag
p1570
I17
sVDisplayName
p1571
g56
sVUniFriend
p1572
I0
sVMemberCount
p1573
I0
sVOwnerUin
p1574
I0
sVMemberList
p1575
g52
sVAlias
p1576
g56
sVPYQuanPin
p1577
Vkjzy
p1578
sVSignature
p1579
VStay Hungry, Stay Foolish
p1580
sVRemarkPYInitial
p1581
VALSJ
p1582
sVContactFlag
p1583
I3
sVUin
p1584
I0
sVNickName
p1585
Vkjzy
p1586
sVAppAccountFlag
p1587
I0
sVVerifyFlag
p1588
I0
sVRemarkPYQuanPin
p1589
Vanlisongjian
p1590
sVHeadImgUrl
p1591
V/cgi-bin/mmwebwx-bin/webwxgeticon?seq=662694445&username=@59faaff8d180f5f3210dfbc6d80d058b3427229c45f87d22e85e2d781fadeb2a&skey=@crypt_9c3dea4c_40bcca64877cc7f6d3ac377ba4298757
p1592
sVKeyWord
p1593
g56
sVProvince
p1594
V\u5b89\u5fbd
p1595
sVPYInitial
p1596
VKJZY
p1597
sVRemarkName
p1598
V\u5b89\u7406-\u5b8b\u5065
p1599
sVIsOwner
p1600
I0
sVSex
p1601
I1
sVStarFriend
p1602
I0
sVHideInputBarFlag
p1603
I0
sVChatRoomId
p1604
I0
sVEncryChatRoomId
p1605
g56
sVAttrStatus
p1606
I17006599
sVStatues
p1607
I0
stp1608
Rp1609
I1
bag34
(g38
g39
(dp1610
VUserName
p1611
V@160a70be66b8bf64ef9f85caf01466de1f46d371f782676cfc86c9af9a4f99be
p1612
sVCity
p1613
g56
sVSnsFlag
p1614
I145
sVDisplayName
p1615
g56
sVUniFriend
p1616
I0
sVMemberCount
p1617
I0
sVOwnerUin
p1618
I0
sVMemberList
p1619
g52
sVAlias
p1620
g56
sVPYQuanPin
p1621
Vyushi
p1622
sVSignature
p1623
V\u51b2\u51b2\u51b2\u000a\u505a\u6211\u81ea\u5df1\u7684\u82f1\u96c4\u000a\u4e16\u754c\u5728\u6211\u9762\u524d\u000a\u672a\u6765\u5728\u6211\u773c\u4e2d
p1624
sVRemarkPYInitial
p1625
VALYC
p1626
sVContactFlag
p1627
I3
sVUin
p1628
I0
sVNickName
p1629
V\u4e8e\u662f
p1630
sVAppAccountFlag
p1631
I0
sVVerifyFlag
p1632
I0
sVRemarkPYQuanPin
p1633
Vanliyuchong
p1634
sVHeadImgUrl
p1635
V/cgi-bin/mmwebwx-bin/webwxgeticon?seq=662753050&username=@160a70be66b8bf64ef9f85caf01466de1f46d371f782676cfc86c9af9a4f99be&skey=@crypt_9c3dea4c_40bcca64877cc7f6d3ac377ba4298757
p1636
sVKeyWord
p1637
g56
sVProvince
p1638
g56
sVPYInitial
p1639
VYS
p1640
sVRemarkName
p1641
V\u5b89\u7406-\u4e8e\u51b2
p1642
sVIsOwner
p1643
I0
sVSex
p1644
I1
sVStarFriend
p1645
I0
sVHideInputBarFlag
p1646
I0
sVChatRoomId
p1647
I0
sVEncryChatRoomId
p1648
g56
sVAttrStatus
p1649
I110693
sVStatues
p1650
I0
stp1651
Rp1652
I1
bag34
(g38
g39
(dp1653
VUserName
p1654
V@023ed989230220398a4bc7bd704fa1b745e324e7252040ebd97abf295484bbfc
p1655
sVCity
p1656
V\u79e6\u7687\u5c9b
p1657
sVSnsFlag
p1658
I17
sVDisplayName
p1659
g56
sVUniFriend
p1660
I0
sVMemberCount
p1661
I0
sVOwnerUin
p1662
I0
sVMemberList
p1663
g52
sVAlias
p1664
g56
sVPYQuanPin
p1665
Vwangshilei
p1666
sVSignature
p1667
V\u4f60\u731c
p1668
sVRemarkPYInitial
p1669
VWZWSLSJWJ
p1670
sVContactFlag
p1671
I3
sVUin
p1672
I0
sVNickName
p1673
V\u738b\u77f3\u78ca
p1674
sVAppAccountFlag
p1675
I0
sVVerifyFlag
p1676
I0
sVRemarkPYQuanPin
p1677
Vwuzhongwangshileishujuwajue
p1678
sVHeadImgUrl
p1679
V/cgi-bin/mmwebwx-bin/webwxgeticon?seq=662753192&username=@023ed989230220398a4bc7bd704fa1b745e324e7252040ebd97abf295484bbfc&skey=@crypt_9c3dea4c_40bcca64877cc7f6d3ac377ba4298757
p1680
sVKeyWord
p1681
g56
sVProvince
p1682
V\u6cb3\u5317
p1683
sVPYInitial
p1684
VWSL
p1685
sVRemarkName
p1686
V\u6b66\u4e2d-\u738b\u77f3\u78ca-\u6570\u636e\u6316\u6398
p1687
sVIsOwner
p1688
I0
sVSex
p1689
I1
sVStarFriend
p1690
I0
sVHideInputBarFlag
p1691
I0
sVChatRoomId
p1692
I0
sVEncryChatRoomId
p1693
g56
sVAttrStatus
p1694
I102949
sVStatues
p1695
I0
stp1696
Rp1697
I1
bag34
(g38
g39
(dp1698
VUserName
p1699
V@fc0edcb7d22412fb04fd5f2897772464
p1700
sVCity
p1701
V\u6ca7\u5dde
p1702
sVSnsFlag
p1703
I49
sVDisplayName
p1704
g56
sVUniFriend
p1705
I0
sVMemberCount
p1706
I0
sVOwnerUin
p1707
I0
sVMemberList
p1708
g52
sVAlias
p1709
g56
sVPYQuanPin
p1710
Vzhangxiwang
p1711
sVSignature
p1712
V\u54c8\u54c8\u54c8\u54c8
p1713
sVRemarkPYInitial
p1714
VXYZXWJJ
p1715
sVContactFlag
p1716
I3
sVUin
p1717
I0
sVNickName
p1718
V\u5f20\u5e0c\u671b
p1719
sVAppAccountFlag
p1720
I0
sVVerifyFlag
p1721
I0
sVRemarkPYQuanPin
p1722
Vxiuyuanzhangxiwangjijian
p1723
sVHeadImgUrl
p1724
V/cgi-bin/mmwebwx-bin/webwxgeticon?seq=662719291&username=@fc0edcb7d22412fb04fd5f2897772464&skey=@crypt_9c3dea4c_40bcca64877cc7f6d3ac377ba4298757
p1725
sVKeyWord
p1726
Vzha
p1727
sVProvince
p1728
V\u6cb3\u5317
p1729
sVPYInitial
p1730
VZXW
p1731
sVRemarkName
p1732
V\u4fee\u9662-\u5f20\u5e0c\u671b-\u57fa\u5efa
p1733
sVIsOwner
p1734
I0
sVSex
p1735
I1
sVStarFriend
p1736
I0
sVHideInputBarFlag
p1737
I0
sVChatRoomId
p1738
I0
sVEncryChatRoomId
p1739
g56
sVAttrStatus
p1740
I102435
sVStatues
p1741
I0
stp1742
Rp1743
I1
bag34
(g38
g39
(dp1744
VUserName
p1745
V@2c876abaed38456e07851ca47e510eefd6a5e6a067f64a17f68e0b47d577def0
p1746
sVCity
p1747
VLos Angeles
p1748
sVSnsFlag
p1749
I177
sVDisplayName
p1750
g56
sVUniFriend
p1751
I0
sVMemberCount
p1752
I0
sVOwnerUin
p1753
I0
sVMemberList
p1754
g52
sVAlias
p1755
g56
sVPYQuanPin
p1756
VMagicD
p1757
sVSignature
p1758
V<span class="emoji emoji1f64f"></span><span class="emoji emoji1f64f"></span><span class="emoji emoji1f64f"></span>
p1759
sVRemarkPYInitial
p1760
VALBDRLX
p1761
sVContactFlag
p1762
I3
sVUin
p1763
I0
sVNickName
p1764
VMagic. D
p1765
sVAppAccountFlag
p1766
I0
sVVerifyFlag
p1767
I0
sVRemarkPYQuanPin
p1768
Vanlibaidianrangliuxue
p1769
sVHeadImgUrl
p1770
V/cgi-bin/mmwebwx-bin/webwxgeticon?seq=662714444&username=@2c876abaed38456e07851ca47e510eefd6a5e6a067f64a17f68e0b47d577def0&skey=@crypt_9c3dea4c_40bcca64877cc7f6d3ac377ba4298757
p1771
sVKeyWord
p1772
g56
sVProvince
p1773
VCalifornia
p1774
sVPYInitial
p1775
VMAGICD
p1776
sVRemarkName
p1777
V\u5b89\u7406-\u767d\u5178\u8ba9-\u7559\u5b66
p1778
sVIsOwner
p1779
I0
sVSex
p1780
I2
sVStarFriend
p1781
I0
sVHideInputBarFlag
p1782
I0
sVChatRoomId
p1783
I0
sVEncryChatRoomId
p1784
g56
sVAttrStatus
p1785
I4296309
sVStatues
p1786
I0
stp1787
Rp1788
I1
bag34
(g38
g39
(dp1789
VUserName
p1790
V@845747ee2aca9d2db1195724ee81b2cf
p1791
sVCity
p1792
V\u901a\u5dde
p1793
sVSnsFlag
p1794
I17
sVDisplayName
p1795
g56
sVUniFriend
p1796
I0
sVMemberCount
p1797
I0
sVOwnerUin
p1798
I0
sVMemberList
p1799
g52
sVAlias
p1800
g56
sVPYQuanPin
p1801
Vtianyi
p1802
sVSignature
p1803
V\u770b\u522b\u4eba\u4e0d\u987a\u773c\uff0c\u662f\u81ea\u5df1\u7684\u4fee\u517b\u4e0d\u591f
p1804
sVRemarkPYInitial
p1805
VXYWTY
p1806
sVContactFlag
p1807
I3
sVUin
p1808
I0
sVNickName
p1809
V\u5929\u4e00
p1810
sVAppAccountFlag
p1811
I0
sVVerifyFlag
p1812
I0
sVRemarkPYQuanPin
p1813
Vxiuyuanwangtianyi
p1814
sVHeadImgUrl
p1815
V/cgi-bin/mmwebwx-bin/webwxgeticon?seq=662762469&username=@845747ee2aca9d2db1195724ee81b2cf&skey=@crypt_9c3dea4c_40bcca64877cc7f6d3ac377ba4298757
p1816
sVKeyWord
p1817
Vtia
p1818
sVProvince
p1819
V\u5317\u4eac
p1820
sVPYInitial
p1821
VTY
p1822
sVRemarkName
p1823
V\u4fee\u9662-\u738b\u5929\u4e00
p1824
sVIsOwner
p1825
I0
sVSex
p1826
I1
sVStarFriend
p1827
I0
sVHideInputBarFlag
p1828
I0
sVChatRoomId
p1829
I0
sVEncryChatRoomId
p1830
g56
sVAttrStatus
p1831
I12415
sVStatues
p1832
I0
stp1833
Rp1834
I1
bag34
(g38
g39
(dp1835
VUserName
p1836
V@5427672c528b3c697916351f18d9da82da3eb6713224afc3986efe92ae90f993
p1837
sVCity
p1838
V\u6e29\u5dde
p1839
sVSnsFlag
p1840
I17
sVDisplayName
p1841
g56
sVUniFriend
p1842
I0
sVMemberCount
p1843
I0
sVOwnerUin
p1844
I0
sVMemberList
p1845
g52
sVAlias
p1846
g56
sVPYQuanPin
p1847
VRealyore
p1848
sVSignature
p1849
VWe sat and drank with the sun on our shoulders
p1850
sVRemarkPYInitial
p1851
VMTGRY3DMX
p1852
sVContactFlag
p1853
I3
sVUin
p1854
I0
sVNickName
p1855
VReal yore
p1856
sVAppAccountFlag
p1857
I0
sVVerifyFlag
p1858
I0
sVRemarkPYQuanPin
p1859
Vmaitiangaoruiyao3Dmoxing
p1860
sVHeadImgUrl
p1861
V/cgi-bin/mmwebwx-bin/webwxgeticon?seq=662762473&username=@5427672c528b3c697916351f18d9da82da3eb6713224afc3986efe92ae90f993&skey=@crypt_9c3dea4c_40bcca64877cc7f6d3ac377ba4298757
p1862
sVKeyWord
p1863
g56
sVProvince
p1864
V\u6d59\u6c5f
p1865
sVPYInitial
p1866
VREALYORE
p1867
sVRemarkName
p1868
V\u9ea6\u7530-\u9ad8\u745e\u7476-3D\u6a21\u578b
p1869
sVIsOwner
p1870
I0
sVSex
p1871
I1
sVStarFriend
p1872
I0
sVHideInputBarFlag
p1873
I0
sVChatRoomId
p1874
I0
sVEncryChatRoomId
p1875
g56
sVAttrStatus
p1876
I33558951
sVStatues
p1877
I0
stp1878
Rp1879
I1
bag34
(g38
g39
(dp1880
VUserName
p1881
V@e8512972528a7f98f91f98935541a37518d6b5720b8fec29912ec90310ef7449
p1882
sVCity
p1883
V\u8861\u6c34
p1884
sVSnsFlag
p1885
I1
sVDisplayName
p1886
g56
sVUniFriend
p1887
I0
sVMemberCount
p1888
I0
sVOwnerUin
p1889
I0
sVMemberList
p1890
g52
sVAlias
p1891
g56
sVPYQuanPin
p1892
Vaizhichengshang
p1893
sVSignature
p1894
V\u6ca1\u6709\u6700\u597d\u7684\uff0c\u53ea\u6709\u66f4\u597d\u7684\uff01
p1895
sVRemarkPYInitial
p1896
VXYLXY
p1897
sVContactFlag
p1898
I3
sVUin
p1899
I0
sVNickName
p1900
V\u7231\u81f3\u6210\u4f24
p1901
sVAppAccountFlag
p1902
I0
sVVerifyFlag
p1903
I0
sVRemarkPYQuanPin
p1904
Vxiuyuanliuxueyang
p1905
sVHeadImgUrl
p1906
V/cgi-bin/mmwebwx-bin/webwxgeticon?seq=627100900&username=@e8512972528a7f98f91f98935541a37518d6b5720b8fec29912ec90310ef7449&skey=@crypt_9c3dea4c_40bcca64877cc7f6d3ac377ba4298757
p1907
sVKeyWord
p1908
g56
sVProvince
p1909
V\u6cb3\u5317
p1910
sVPYInitial
p1911
VAZCS
p1912
sVRemarkName
p1913
V\u4fee\u9662-\u5218\u5b66\u9633
p1914
sVIsOwner
p1915
I0
sVSex
p1916
I1
sVStarFriend
p1917
I0
sVHideInputBarFlag
p1918
I0
sVChatRoomId
p1919
I0
sVEncryChatRoomId
p1920
g56
sVAttrStatus
p1921
I103037
sVStatues
p1922
I0
stp1923
Rp1924
I1
bag34
(g38
g39
(dp1925
VUserName
p1926
V@d384b4df45800295173348f74031362f11e2c3fd70a589af840d08102d5b0ac4
p1927
sVCity
p1928
V\u5357\u901a
p1929
sVSnsFlag
p1930
I17
sVDisplayName
p1931
g56
sVUniFriend
p1932
I0
sVMemberCount
p1933
I0
sVOwnerUin
p1934
I0
sVMemberList
p1935
g52
sVAlias
p1936
g56
sVPYQuanPin
p1937
Vspanclassemojiemoji1f33espanwuyuanyuanspanclassemojiemoji1f490span
p1938
sVSignature
p1939
V\u53ef\u53ef\u9999\u5948\u513f
p1940
sVRemarkPYInitial
p1941
VALWYYSK
p1942
sVContactFlag
p1943
I3
sVUin
p1944
I0
sVNickName
p1945
V\U0001f33e \u5434\u5a9b\u5a9b\U0001f490
p1946
sVAppAccountFlag
p1947
I0
sVVerifyFlag
p1948
I0
sVRemarkPYQuanPin
p1949
Vanliwuyuanyuanshuke
p1950
sVHeadImgUrl
p1951
V/cgi-bin/mmwebwx-bin/webwxgeticon?seq=662765563&username=@d384b4df45800295173348f74031362f11e2c3fd70a589af840d08102d5b0ac4&skey=@crypt_9c3dea4c_40bcca64877cc7f6d3ac377ba4298757
p1952
sVKeyWord
p1953
g56
sVProvince
p1954
V\u6c5f\u82cf
p1955
sVPYInitial
p1956
VSPANCLASSEMOJIEMOJI1F33ESPANWYYSPANCLASSEMOJIEMOJI1F490SPAN
p1957
sVRemarkName
p1958
V\u5b89\u7406-\u5434\u5a9b\u5a9b-\u8212\u5ba2
p1959
sVIsOwner
p1960
I0
sVSex
p1961
I2
sVStarFriend
p1962
I0
sVHideInputBarFlag
p1963
I0
sVChatRoomId
p1964
I0
sVEncryChatRoomId
p1965
g56
sVAttrStatus
p1966
I33656869
sVStatues
p1967
I0
stp1968
Rp1969
I1
bag34
(g38
g39
(dp1970
VUserName
p1971
V@c326798d003d966cec4925763ecdea2dd9dea89b3e17c35d1dde56c2185683d5
p1972
sVCity
p1973
V\u4e34\u6c82
p1974
sVSnsFlag
p1975
I1
sVDisplayName
p1976
g56
sVUniFriend
p1977
I0
sVMemberCount
p1978
I0
sVOwnerUin
p1979
I0
sVMemberList
p1980
g52
sVAlias
p1981
g56
sVPYQuanPin
p1982
Vhuayidianqi13173092903
p1983
sVSignature
p1984
V\u845b\u7eea\u73cd
p1985
sVRemarkPYInitial
p1986
VLYGGLHMM
p1987
sVContactFlag
p1988
I3
sVUin
p1989
I0
sVNickName
p1990
V\u534e\u4ebf\u7535\u566813173092903
p1991
sVAppAccountFlag
p1992
I0
sVVerifyFlag
p1993
I0
sVRemarkPYQuanPin
p1994
Vlinyigegulihaomama
p1995
sVHeadImgUrl
p1996
V/cgi-bin/mmwebwx-bin/webwxgeticon?seq=662764245&username=@c326798d003d966cec4925763ecdea2dd9dea89b3e17c35d1dde56c2185683d5&skey=@crypt_9c3dea4c_40bcca64877cc7f6d3ac377ba4298757
p1997
sVKeyWord
p1998
g56
sVProvince
p1999
V\u5c71\u4e1c
p2000
sVPYInitial
p2001
VHYDQ13173092903
p2002
sVRemarkName
p2003
V\u4e34\u6c82-\u845b\u59d1-\u674e\u8c6a\u5988\u5988
p2004
sVIsOwner
p2005
I0
sVSex
p2006
I2
sVStarFriend
p2007
I0
sVHideInputBarFlag
p2008
I0
sVChatRoomId
p2009
I0
sVEncryChatRoomId
p2010
g56
sVAttrStatus
p2011
I135173
sVStatues
p2012
I0
stp2013
Rp2014
I1
bag34
(g38
g39
(dp2015
VUserName
p2016
V@46bbc71aef501c5e3387db3ebd267ab2
p2017
sVCity
p2018
V\u8861\u6c34
p2019
sVSnsFlag
p2020
I1
sVDisplayName
p2021
g56
sVUniFriend
p2022
I0
sVMemberCount
p2023
I0
sVOwnerUin
p2024
I0
sVMemberList
p2025
g52
sVAlias
p2026
g56
sVPYQuanPin
p2027
Vxingfuyijia
p2028
sVSignature
p2029
V\u8d70\u81ea\u5df1\u7684\u8def\u8ba9\u522b\u4eba\u8bf4\u53bb\u5427
p2030
sVRemarkPYInitial
p2031
VYTHYSL
p2032
sVContactFlag
p2033
I3
sVUin
p2034
I0
sVNickName
p2035
V\u5e78\u798f\u4e00\u5bb6
p2036
sVAppAccountFlag
p2037
I0
sVVerifyFlag
p2038
I0
sVRemarkPYQuanPin
p2039
Vyitianhaiyanshoulou
p2040
sVHeadImgUrl
p2041
V/cgi-bin/mmwebwx-bin/webwxgeticon?seq=662718400&username=@46bbc71aef501c5e3387db3ebd267ab2&skey=@crypt_9c3dea4c_40bcca64877cc7f6d3ac377ba4298757
p2042
sVKeyWord
p2043
Vtia
p2044
sVProvince
p2045
V\u6cb3\u5317
p2046
sVPYInitial
p2047
VXFYJ
p2048
sVRemarkName
p2049
V\u4f0a-\u7530\u6d77\u71d5-\u552e\u697c
p2050
sVIsOwner
p2051
I0
sVSex
p2052
I2
sVStarFriend
p2053
I0
sVHideInputBarFlag
p2054
I0
sVChatRoomId
p2055
I0
sVEncryChatRoomId
p2056
g56
sVAttrStatus
p2057
I4735
sVStatues
p2058
I0
stp2059
Rp2060
I1
bag34
(g38
g39
(dp2061
VUserName
p2062
V@1defe80977e921c4b0e170c15da2c098b3b60c74a08ed6084f6d509e4abced90
p2063
sVCity
p2064
V\u676d\u5dde
p2065
sVSnsFlag
p2066
I145
sVDisplayName
p2067
g56
sVUniFriend
p2068
I0
sVMemberCount
p2069
I0
sVOwnerUin
p2070
I0
sVMemberList
p2071
g52
sVAlias
p2072
g56
sVPYQuanPin
p2073
Vrenzhendelei
p2074
sVSignature
p2075
g56
sVRemarkPYInitial
p2076
VHSXRC
p2077
sVContactFlag
p2078
I3
sVUin
p2079
I0
sVNickName
p2080
V\u8ba4\u771f\u7684\u6cea
p2081
sVAppAccountFlag
p2082
I0
sVVerifyFlag
p2083
I0
sVRemarkPYQuanPin
p2084
VhangsuxiaoriC
p2085
sVHeadImgUrl
p2086
V/cgi-bin/mmwebwx-bin/webwxgeticon?seq=647560959&username=@1defe80977e921c4b0e170c15da2c098b3b60c74a08ed6084f6d509e4abced90&skey=@crypt_9c3dea4c_40bcca64877cc7f6d3ac377ba4298757
p2087
sVKeyWord
p2088
g56
sVProvince
p2089
V\u6d59\u6c5f
p2090
sVPYInitial
p2091
VRZDL
p2092
sVRemarkName
p2093
V\u676d-\u82cf\u5c0f\u65e5-C++
p2094
sVIsOwner
p2095
I0
sVSex
p2096
I1
sVStarFriend
p2097
I0
sVHideInputBarFlag
p2098
I0
sVChatRoomId
p2099
I0
sVEncryChatRoomId
p2100
g56
sVAttrStatus
p2101
I112741
sVStatues
p2102
I0
stp2103
Rp2104
I1
bag34
(g38
g39
(dp2105
VUserName
p2106
V@bd6cb0f9e67da88acb167d3db7688a44e723faf098d95ce934057b99c8f6cdac
p2107
sVCity
p2108
V\u671d\u9633
p2109
sVSnsFlag
p2110
I17
sVDisplayName
p2111
g56
sVUniFriend
p2112
I0
sVMemberCount
p2113
I0
sVOwnerUin
p2114
I0
sVMemberList
p2115
g52
sVAlias
p2116
g56
sVPYQuanPin
p2117
Vwanlinggu
p2118
sVSignature
p2119
V\u4e0a\u4e2a\u5c0f\u73ed\u513f\uff0c\u6323\u4e2a\u5c0f\u94b1\u513f
p2120
sVRemarkPYInitial
p2121
VBJSQM
p2122
sVContactFlag
p2123
I3
sVUin
p2124
I0
sVNickName
p2125
V\u665a\u7075\u8c37
p2126
sVAppAccountFlag
p2127
I0
sVVerifyFlag
p2128
I0
sVRemarkPYQuanPin
p2129
Vbeijingshangqiaomei
p2130
sVHeadImgUrl
p2131
V/cgi-bin/mmwebwx-bin/webwxgeticon?seq=662701595&username=@bd6cb0f9e67da88acb167d3db7688a44e723faf098d95ce934057b99c8f6cdac&skey=@crypt_9c3dea4c_40bcca64877cc7f6d3ac377ba4298757
p2132
sVKeyWord
p2133
g56
sVProvince
p2134
V\u5317\u4eac
p2135
sVPYInitial
p2136
VWLG
p2137
sVRemarkName
p2138
V\u5317\u4eac-\u5c1a\u5de7\u59b9-
p2139
sVIsOwner
p2140
I0
sVSex
p2141
I2
sVStarFriend
p2142
I0
sVHideInputBarFlag
p2143
I0
sVChatRoomId
p2144
I0
sVEncryChatRoomId
p2145
g56
sVAttrStatus
p2146
I102439
sVStatues
p2147
I0
stp2148
Rp2149
I1
bag34
(g38
g39
(dp2150
VUserName
p2151
V@c797166f34f5f6ecb97cb7d51fabd2487652358ea0c53ffe783f5940e89c59f3
p2152
sVCity
p2153
V\u5408\u80a5
p2154
sVSnsFlag
p2155
I17
sVDisplayName
p2156
g56
sVUniFriend
p2157
I0
sVMemberCount
p2158
I0
sVOwnerUin
p2159
I0
sVMemberList
p2160
g52
sVAlias
p2161
g56
sVPYQuanPin
p2162
Vlingxiner
p2163
sVSignature
p2164
V\u6709\u6240\u51fa\u624d\u6709\u6240\u5f97\uff0ccome on!!!
p2165
sVRemarkPYInitial
p2166
VALCF
p2167
sVContactFlag
p2168
I3
sVUin
p2169
I0
sVNickName
p2170
V\u51cc\u99a8\u513f
p2171
sVAppAccountFlag
p2172
I0
sVVerifyFlag
p2173
I0
sVRemarkPYQuanPin
p2174
Vanlichenfei
p2175
sVHeadImgUrl
p2176
V/cgi-bin/mmwebwx-bin/webwxgeticon?seq=662739904&username=@c797166f34f5f6ecb97cb7d51fabd2487652358ea0c53ffe783f5940e89c59f3&skey=@crypt_9c3dea4c_40bcca64877cc7f6d3ac377ba4298757
p2177
sVKeyWord
p2178
g56
sVProvince
p2179
V\u5b89\u5fbd
p2180
sVPYInitial
p2181
VLXE
p2182
sVRemarkName
p2183
V\u5b89\u7406-\u9648\u83f2
p2184
sVIsOwner
p2185
I0
sVSex
p2186
I2
sVStarFriend
p2187
I0
sVHideInputBarFlag
p2188
I0
sVChatRoomId
p2189
I0
sVEncryChatRoomId
p2190
g56
sVAttrStatus
p2191
I102501
sVStatues
p2192
I0
stp2193
Rp2194
I1
bag34
(g38
g39
(dp2195
VUserName
p2196
V@25c2df53fe03b9bbaa62488097d4bc28ed08a6c16f326c5b07016d7b0773dd78
p2197
sVCity
p2198
V\u676d\u5dde
p2199
sVSnsFlag
p2200
I49
sVDisplayName
p2201
g56
sVUniFriend
p2202
I0
sVMemberCount
p2203
I0
sVOwnerUin
p2204
I0
sVMemberList
p2205
g52
sVAlias
p2206
g56
sVPYQuanPin
p2207
VMIKEY3D
p2208
sVSignature
p2209
VWhat goes around comes around 
p2210
sVRemarkPYInitial
p2211
VMTMIKEYYL
p2212
sVContactFlag
p2213
I1
sVUin
p2214
I0
sVNickName
p2215
VM I K E Y 3 D
p2216
sVAppAccountFlag
p2217
I0
sVVerifyFlag
p2218
I0
sVRemarkPYQuanPin
p2219
Vmaitianmikeyyilang
p2220
sVHeadImgUrl
p2221
V/cgi-bin/mmwebwx-bin/webwxgeticon?seq=662760269&username=@25c2df53fe03b9bbaa62488097d4bc28ed08a6c16f326c5b07016d7b0773dd78&skey=@crypt_9c3dea4c_40bcca64877cc7f6d3ac377ba4298757
p2222
sVKeyWord
p2223
g56
sVProvince
p2224
V\u6d59\u6c5f
p2225
sVPYInitial
p2226
VMIKEY3D
p2227
sVRemarkName
p2228
V\u9ea6\u7530-mikey-\u4f0a\u6717
p2229
sVIsOwner
p2230
I0
sVSex
p2231
I1
sVStarFriend
p2232
I0
sVHideInputBarFlag
p2233
I0
sVChatRoomId
p2234
I0
sVEncryChatRoomId
p2235
g56
sVAttrStatus
p2236
I37851751
sVStatues
p2237
I0
stp2238
Rp2239
I1
bag34
(g38
g39
(dp2240
VUserName
p2241
V@aca596b786691e2f4eb90bb0a7348764
p2242
sVCity
p2243
V\u6e29\u5dde
p2244
sVSnsFlag
p2245
I17
sVDisplayName
p2246
g56
sVUniFriend
p2247
I0
sVMemberCount
p2248
I0
sVOwnerUin
p2249
I0
sVMemberList
p2250
g52
sVAlias
p2251
g56
sVPYQuanPin
p2252
Vwuti
p2253
sVSignature
p2254
V\u7eb5\u6709\u75be\u98ce\u8d77\uff0c\u4eba\u751f\u4e0d\u8a00\u5f03
p2255
sVRemarkPYInitial
p2256
VMTWGMDN
p2257
sVContactFlag
p2258
I1
sVUin
p2259
I0
sVNickName
p2260
V\u5434\u9898
p2261
sVAppAccountFlag
p2262
I0
sVVerifyFlag
p2263
I0
sVRemarkPYQuanPin
p2264
Vmaitianwuguangmandaniu
p2265
sVHeadImgUrl
p2266
V/cgi-bin/mmwebwx-bin/webwxgeticon?seq=633050519&username=@aca596b786691e2f4eb90bb0a7348764&skey=@crypt_9c3dea4c_40bcca64877cc7f6d3ac377ba4298757
p2267
sVKeyWord
p2268
Veti
p2269
sVProvince
p2270
V\u6d59\u6c5f
p2271
sVPYInitial
p2272
VWT
p2273
sVRemarkName
p2274
V\u9ea6\u7530-\u5434\u5149\u6ee1-\u5927\u725b
p2275
sVIsOwner
p2276
I0
sVSex
p2277
I1
sVStarFriend
p2278
I0
sVHideInputBarFlag
p2279
I0
sVChatRoomId
p2280
I0
sVEncryChatRoomId
p2281
g56
sVAttrStatus
p2282
I118183
sVStatues
p2283
I0
stp2284
Rp2285
I1
bag34
(g38
g39
(dp2286
VUserName
p2287
V@41895557768737942948e44cf476a48b85832a6c050a38104d2d8d9b8c0ca8e3
p2288
sVCity
p2289
V\u671d\u9633
p2290
sVSnsFlag
p2291
I17
sVDisplayName
p2292
g56
sVUniFriend
p2293
I0
sVMemberCount
p2294
I0
sVOwnerUin
p2295
I0
sVMemberList
p2296
g52
sVAlias
p2297
g56
sVPYQuanPin
p2298
Vzhangwenjie
p2299
sVSignature
p2300
V\u60c5\u4e0d\u77e5\u6240\u8d77 \u4e00\u5f80\u800c\u6df1 18611551264
p2301
sVRemarkPYInitial
p2302
VBHZWJ06
p2303
sVContactFlag
p2304
I3
sVUin
p2305
I0
sVNickName
p2306
V\u5f20\u6587\u6770
p2307
sVAppAccountFlag
p2308
I0
sVVerifyFlag
p2309
I0
sVRemarkPYQuanPin
p2310
Vbinhezhangwenjie06
p2311
sVHeadImgUrl
p2312
V/cgi-bin/mmwebwx-bin/webwxgeticon?seq=662768312&username=@41895557768737942948e44cf476a48b85832a6c050a38104d2d8d9b8c0ca8e3&skey=@crypt_9c3dea4c_40bcca64877cc7f6d3ac377ba4298757
p2313
sVKeyWord
p2314
Vzha
p2315
sVProvince
p2316
V\u5317\u4eac
p2317
sVPYInitial
p2318
VZWJ
p2319
sVRemarkName
p2320
V\u6ee8\u6cb3-\u5f20\u6587\u6770-06
p2321
sVIsOwner
p2322
I0
sVSex
p2323
I1
sVStarFriend
p2324
I0
sVHideInputBarFlag
p2325
I0
sVChatRoomId
p2326
I0
sVEncryChatRoomId
p2327
g56
sVAttrStatus
p2328
I4199
sVStatues
p2329
I0
stp2330
Rp2331
I1
bag34
(g38
g39
(dp2332
VUserName
p2333
V@435b1d687de9a8fbea51def9c216a2f6
p2334
sVCity
p2335
V\u6d77\u6dc0
p2336
sVSnsFlag
p2337
I17
sVDisplayName
p2338
g56
sVUniFriend
p2339
I0
sVMemberCount
p2340
I0
sVOwnerUin
p2341
I0
sVMemberList
p2342
g52
sVAlias
p2343
g56
sVPYQuanPin
p2344
Vmiaoqimiao
p2345
sVSignature
p2346
V\u5fc3\u6709\u731b\u864e\uff0c\u7ec6\u55c5\u8537\u8587
p2347
sVRemarkPYInitial
p2348
VRRZTMXM
p2349
sVContactFlag
p2350
I3
sVUin
p2351
I0
sVNickName
p2352
V\u55b5\u4e03\u79d2
p2353
sVAppAccountFlag
p2354
I0
sVVerifyFlag
p2355
I0
sVRemarkPYQuanPin
p2356
Vrenrenzhaotianmengxiangmu
p2357
sVHeadImgUrl
p2358
V/cgi-bin/mmwebwx-bin/webwxgeticon?seq=662769365&username=@435b1d687de9a8fbea51def9c216a2f6&skey=@crypt_9c3dea4c_40bcca64877cc7f6d3ac377ba4298757
p2359
sVKeyWord
p2360
Vshe
p2361
sVProvince
p2362
V\u5317\u4eac
p2363
sVPYInitial
p2364
VMQM
p2365
sVRemarkName
p2366
V\u4eba\u4eba-\u8d75\u5929\u68a6-\u9879\u76ee
p2367
sVIsOwner
p2368
I0
sVSex
p2369
I2
sVStarFriend
p2370
I0
sVHideInputBarFlag
p2371
I0
sVChatRoomId
p2372
I0
sVEncryChatRoomId
p2373
g56
sVAttrStatus
p2374
I101503
sVStatues
p2375
I0
stp2376
Rp2377
I1
bag34
(g38
g39
(dp2378
VUserName
p2379
V@3c3a1906e4d36fe615c82e774d3cff0a
p2380
sVCity
p2381
V\u897f\u57ce
p2382
sVSnsFlag
p2383
I17
sVDisplayName
p2384
g56
sVUniFriend
p2385
I0
sVMemberCount
p2386
I0
sVOwnerUin
p2387
I0
sVMemberList
p2388
g52
sVAlias
p2389
g56
sVPYQuanPin
p2390
V???????????????
p2391
sVSignature
p2392
V\u60ef\u7740\u6211\u7684\u4eba\u624d\u6709\u8d44\u683c\u7ba1\u6211
p2393
sVRemarkPYInitial
p2394
VRRWYSSJ
p2395
sVContactFlag
p2396
I3
sVUin
p2397
I0
sVNickName
p2398
V\u0f04\u0f05\u0f02\u0f07\u2081\u2085\u2088\u2080\u2081\u2083\u2080\u2082\u2088\u2088\u2080
p2399
sVAppAccountFlag
p2400
I0
sVVerifyFlag
p2401
I0
sVRemarkPYQuanPin
p2402
Vrenrenwuyashusheji
p2403
sVHeadImgUrl
p2404
V/cgi-bin/mmwebwx-bin/webwxgeticon?seq=662769395&username=@3c3a1906e4d36fe615c82e774d3cff0a&skey=@crypt_9c3dea4c_40bcca64877cc7f6d3ac377ba4298757
p2405
sVKeyWord
p2406
Vwuy
p2407
sVProvince
p2408
V\u5317\u4eac
p2409
sVPYInitial
p2410
V???????????????
p2411
sVRemarkName
p2412
V\u4eba\u4eba-\u6b66\u96c5\u59dd-\u8bbe\u8ba1
p2413
sVIsOwner
p2414
I0
sVSex
p2415
I2
sVStarFriend
p2416
I0
sVHideInputBarFlag
p2417
I0
sVChatRoomId
p2418
I0
sVEncryChatRoomId
p2419
g56
sVAttrStatus
p2420
I2147588287
sVStatues
p2421
I0
stp2422
Rp2423
I1
bag34
(g38
g39
(dp2424
VUserName
p2425
V@acc8816bbae7b0d9db5c5e1442340c79cc8da9acde2b1133dff18c5040aa4432
p2426
sVCity
p2427
g56
sVSnsFlag
p2428
I17
sVDisplayName
p2429
g56
sVUniFriend
p2430
I0
sVMemberCount
p2431
I0
sVOwnerUin
p2432
I0
sVMemberList
p2433
g52
sVAlias
p2434
g56
sVPYQuanPin
p2435
Vyuanlairuci17090045019
p2436
sVSignature
p2437
V\u541b\u5b50\u4ee5\u8bda\u4e3a\u672c\uff0c\u4e8b\u4e1a\u56e0\u4fe1\u800c\u76db\u3002
p2438
sVRemarkPYInitial
p2439
VBHJYMDZYFFD
p2440
sVContactFlag
p2441
I3
sVUin
p2442
I0
sVNickName
p2443
V\u7f18\u6765\u5982\u6b6417090045019
p2444
sVAppAccountFlag
p2445
I0
sVVerifyFlag
p2446
I0
sVRemarkPYQuanPin
p2447
Vbinhejiayuemeidezhangyunfengfangdong
p2448
sVHeadImgUrl
p2449
V/cgi-bin/mmwebwx-bin/webwxgeticon?seq=662767042&username=@acc8816bbae7b0d9db5c5e1442340c79cc8da9acde2b1133dff18c5040aa4432&skey=@crypt_9c3dea4c_40bcca64877cc7f6d3ac377ba4298757
p2450
sVKeyWord
p2451
g56
sVProvince
p2452
g56
sVPYInitial
p2453
VYLRC17090045019
p2454
sVRemarkName
p2455
V\u6ee8\u6cb3-\u5bb6\u4e50\u7f8e\u5730-\u5f20\u4e91\u5cf0-\u623f\u4e1c
p2456
sVIsOwner
p2457
I0
sVSex
p2458
I1
sVStarFriend
p2459
I0
sVHideInputBarFlag
p2460
I0
sVChatRoomId
p2461
I0
sVEncryChatRoomId
p2462
g56
sVAttrStatus
p2463
I36965
sVStatues
p2464
I0
stp2465
Rp2466
I1
bag34
(g38
g39
(dp2467
VUserName
p2468
V@26f8d69419c57c14ab82d2601862fbea28b14a75deb071d243c81a47b90878a2
p2469
sVCity
p2470
V\u8861\u6c34
p2471
sVSnsFlag
p2472
I17
sVDisplayName
p2473
g56
sVUniFriend
p2474
I0
sVMemberCount
p2475
I0
sVOwnerUin
p2476
I0
sVMemberList
p2477
g52
sVAlias
p2478
g56
sVPYQuanPin
p2479
Vsmile
p2480
sVSignature
p2481
g56
sVRemarkPYInitial
p2482
VYZWXHSBJ
p2483
sVContactFlag
p2484
I3
sVUin
p2485
I0
sVNickName
p2486
Vsmile
p2487
sVAppAccountFlag
p2488
I0
sVVerifyFlag
p2489
I0
sVRemarkPYQuanPin
p2490
Vyizhangweixiaohushibeijing
p2491
sVHeadImgUrl
p2492
V/cgi-bin/mmwebwx-bin/webwxgeticon?seq=625630533&username=@26f8d69419c57c14ab82d2601862fbea28b14a75deb071d243c81a47b90878a2&skey=@crypt_9c3dea4c_40bcca64877cc7f6d3ac377ba4298757
p2493
sVKeyWord
p2494
g56
sVProvince
p2495
V\u6cb3\u5317
p2496
sVPYInitial
p2497
VSMILE
p2498
sVRemarkName
p2499
V\u4f0a-\u5f20\u7ef4\u6653-\u62a4\u58eb-\u5317\u4eac
p2500
sVIsOwner
p2501
I0
sVSex
p2502
I2
sVStarFriend
p2503
I0
sVHideInputBarFlag
p2504
I0
sVChatRoomId
p2505
I0
sVEncryChatRoomId
p2506
g56
sVAttrStatus
p2507
I106341
sVStatues
p2508
I0
stp2509
Rp2510
I1
bag34
(g38
g39
(dp2511
VUserName
p2512
V@677fe398d08b806ee3785b9449102c23
p2513
sVCity
p2514
V\u6e29\u5dde
p2515
sVSnsFlag
p2516
I49
sVDisplayName
p2517
g56
sVUniFriend
p2518
I0
sVMemberCount
p2519
I0
sVOwnerUin
p2520
I0
sVMemberList
p2521
g52
sVAlias
p2522
g56
sVPYQuanPin
p2523
Vwuzhe
p2524
sVSignature
p2525
V\u6ca1\u6709\u4ec0\u4e48\u9053\u8def\u53ef\u4ee5\u901a\u5411\u771f\u8bda\uff0c\u771f\u8bda\u672c\u8eab\u5c31\u662f\u9053\u8def\uff01
p2526
sVRemarkPYInitial
p2527
VMTWZCYZ
p2528
sVContactFlag
p2529
I3
sVUin
p2530
I0
sVNickName
p2531
V\u5434\u54f2
p2532
sVAppAccountFlag
p2533
I0
sVVerifyFlag
p2534
I0
sVRemarkPYQuanPin
p2535
Vmaitianwuzhechuangyezhe
p2536
sVHeadImgUrl
p2537
V/cgi-bin/mmwebwx-bin/webwxgeticon?seq=647549344&username=@677fe398d08b806ee3785b9449102c23&skey=@crypt_9c3dea4c_40bcca64877cc7f6d3ac377ba4298757
p2538
sVKeyWord
p2539
Vkel
p2540
sVProvince
p2541
V\u6d59\u6c5f
p2542
sVPYInitial
p2543
VWZ
p2544
sVRemarkName
p2545
V\u9ea6\u7530-\u5434\u54f2-\u521b\u4e1a\u8005
p2546
sVIsOwner
p2547
I0
sVSex
p2548
I1
sVStarFriend
p2549
I0
sVHideInputBarFlag
p2550
I0
sVChatRoomId
p2551
I0
sVEncryChatRoomId
p2552
g56
sVAttrStatus
p2553
I4300903
sVStatues
p2554
I0
stp2555
Rp2556
I1
bag34
(g38
g39
(dp2557
VUserName
p2558
V@b33bde9db582203a66c126bd6d47a8d4
p2559
sVCity
p2560
V\u77f3\u5bb6\u5e84
p2561
sVSnsFlag
p2562
I17
sVDisplayName
p2563
g56
sVUniFriend
p2564
I0
sVMemberCount
p2565
I0
sVOwnerUin
p2566
I0
sVMemberList
p2567
g52
sVAlias
p2568
g56
sVPYQuanPin
p2569
Vyouweiqingnian
p2570
sVSignature
p2571
V\u65b0\u2022\u7f8e\u53d1\u7f8e\u7532\u6c99\u9f99 \u4e07\u8fbe\u4f4f\u5b85\u5c0f\u533aB2\u5357\u533a4-1-903 \u7535\u8bdd15200016579
p2572
sVRemarkPYInitial
p2573
VXYWFMFSJZ
p2574
sVContactFlag
p2575
I3
sVUin
p2576
I0
sVNickName
p2577
V\u6709\u4e3a\u9752\u5e74
p2578
sVAppAccountFlag
p2579
I0
sVVerifyFlag
p2580
I0
sVRemarkPYQuanPin
p2581
Vxiuyuanweifeimeifashijiazhuang
p2582
sVHeadImgUrl
p2583
V/cgi-bin/mmwebwx-bin/webwxgeticon?seq=662773845&username=@b33bde9db582203a66c126bd6d47a8d4&skey=@crypt_9c3dea4c_40bcca64877cc7f6d3ac377ba4298757
p2584
sVKeyWord
p2585
VFF6
p2586
sVProvince
p2587
V\u6cb3\u5317
p2588
sVPYInitial
p2589
VYWQN
p2590
sVRemarkName
p2591
V\u4fee\u9662-\u9b4f\u98de-\u7f8e\u53d1-\u77f3\u5bb6\u5e84
p2592
sVIsOwner
p2593
I0
sVSex
p2594
I1
sVStarFriend
p2595
I0
sVHideInputBarFlag
p2596
I0
sVChatRoomId
p2597
I0
sVEncryChatRoomId
p2598
g56
sVAttrStatus
p2599
I71783
sVStatues
p2600
I0
stp2601
Rp2602
I1
bag34
(g38
g39
(dp2603
VUserName
p2604
V@6abbe9dbfa47972e1fb43c8ba3e3244deefafe396fb2f723d27d484315762520
p2605
sVCity
p2606
V\u829c\u6e56
p2607
sVSnsFlag
p2608
I17
sVDisplayName
p2609
g56
sVUniFriend
p2610
I0
sVMemberCount
p2611
I0
sVOwnerUin
p2612
I0
sVMemberList
p2613
g52
sVAlias
p2614
g56
sVPYQuanPin
p2615
Vfeiyu
p2616
sVSignature
p2617
V15206127573
p2618
sVRemarkPYInitial
p2619
VALYZY
p2620
sVContactFlag
p2621
I3
sVUin
p2622
I0
sVNickName
p2623
V\u98de\u96e8
p2624
sVAppAccountFlag
p2625
I0
sVVerifyFlag
p2626
I0
sVRemarkPYQuanPin
p2627
Vanliyanzhenyu
p2628
sVHeadImgUrl
p2629
V/cgi-bin/mmwebwx-bin/webwxgeticon?seq=662715849&username=@6abbe9dbfa47972e1fb43c8ba3e3244deefafe396fb2f723d27d484315762520&skey=@crypt_9c3dea4c_40bcca64877cc7f6d3ac377ba4298757
p2630
sVKeyWord
p2631
g56
sVProvince
p2632
V\u5b89\u5fbd
p2633
sVPYInitial
p2634
VFY
p2635
sVRemarkName
p2636
V\u5b89\u7406-\u989c\u632f\u5b87
p2637
sVIsOwner
p2638
I0
sVSex
p2639
I1
sVStarFriend
p2640
I0
sVHideInputBarFlag
p2641
I0
sVChatRoomId
p2642
I0
sVEncryChatRoomId
p2643
g56
sVAttrStatus
p2644
I69733
sVStatues
p2645
I0
stp2646
Rp2647
I1
bag34
(g38
g39
(dp2648
VUserName
p2649
V@d86bc1b5ba2fb30c9730d74966f8c41f80b2dbcbd1e1d72c951ec9d533ff9a74
p2650
sVCity
p2651
V\u671d\u9633
p2652
sVSnsFlag
p2653
I49
sVDisplayName
p2654
g56
sVUniFriend
p2655
I0
sVMemberCount
p2656
I0
sVOwnerUin
p2657
I0
sVMemberList
p2658
g52
sVAlias
p2659
g56
sVPYQuanPin
p2660
VChris
p2661
sVSignature
p2662
g56
sVRemarkPYInitial
p2663
VBJCZHTSG
p2664
sVContactFlag
p2665
I3
sVUin
p2666
I0
sVNickName
p2667
VChris
p2668
sVAppAccountFlag
p2669
I0
sVVerifyFlag
p2670
I0
sVRemarkPYQuanPin
p2671
Vbeijingchenzhihaotushuguan
p2672
sVHeadImgUrl
p2673
V/cgi-bin/mmwebwx-bin/webwxgeticon?seq=662710144&username=@d86bc1b5ba2fb30c9730d74966f8c41f80b2dbcbd1e1d72c951ec9d533ff9a74&skey=@crypt_9c3dea4c_40bcca64877cc7f6d3ac377ba4298757
p2674
sVKeyWord
p2675
Vche
p2676
sVProvince
p2677
V\u5317\u4eac
p2678
sVPYInitial
p2679
VCHRIS
p2680
sVRemarkName
p2681
V\u5317\u4eac-\u9648\u5fd7\u6d69-\u56fe\u4e66\u9986
p2682
sVIsOwner
p2683
I0
sVSex
p2684
I1
sVStarFriend
p2685
I0
sVHideInputBarFlag
p2686
I0
sVChatRoomId
p2687
I0
sVEncryChatRoomId
p2688
g56
sVAttrStatus
p2689
I67213607
sVStatues
p2690
I0
stp2691
Rp2692
I1
bag34
(g38
g39
(dp2693
VUserName
p2694
V@542264e619a3c4c99b8d70268047af0d4bc3e305eb12403e3acf06cd5f57b58b
p2695
sVCity
p2696
V\u9759\u6d77
p2697
sVSnsFlag
p2698
I49
sVDisplayName
p2699
g56
sVUniFriend
p2700
I0
sVMemberCount
p2701
I0
sVOwnerUin
p2702
I0
sVMemberList
p2703
g52
sVAlias
p2704
g56
sVPYQuanPin
p2705
Vxiaoxiaoyun
p2706
sVSignature
p2707
g56
sVRemarkPYInitial
p2708
VMTXSR
p2709
sVContactFlag
p2710
I1
sVUin
p2711
I0
sVNickName
p2712
V\u5c0f\u5c0f\u4e91
p2713
sVAppAccountFlag
p2714
I0
sVVerifyFlag
p2715
I0
sVRemarkPYQuanPin
p2716
Vmaitianxusairu
p2717
sVHeadImgUrl
p2718
V/cgi-bin/mmwebwx-bin/webwxgeticon?seq=662696620&username=@542264e619a3c4c99b8d70268047af0d4bc3e305eb12403e3acf06cd5f57b58b&skey=@crypt_9c3dea4c_40bcca64877cc7f6d3ac377ba4298757
p2719
sVKeyWord
p2720
g56
sVProvince
p2721
V\u5929\u6d25
p2722
sVPYInitial
p2723
VXXY
p2724
sVRemarkName
p2725
V\u9ea6\u7530-\u8bb8\u601d\u6c5d
p2726
sVIsOwner
p2727
I0
sVSex
p2728
I2
sVStarFriend
p2729
I0
sVHideInputBarFlag
p2730
I0
sVChatRoomId
p2731
I0
sVEncryChatRoomId
p2732
g56
sVAttrStatus
p2733
I231461
sVStatues
p2734
I0
stp2735
Rp2736
I1
bag34
(g38
g39
(dp2737
VUserName
p2738
V@30b673f389a642906bf8b331973ff0a20a1cbd33f2272fa7c7f9959ca907ec5e
p2739
sVCity
p2740
g56
sVSnsFlag
p2741
I1
sVDisplayName
p2742
g56
sVUniFriend
p2743
I0
sVMemberCount
p2744
I0
sVOwnerUin
p2745
I0
sVMemberList
p2746
g52
sVAlias
p2747
g56
sVPYQuanPin
p2748
VbeibeiBlair
p2749
sVSignature
p2750
g56
sVRemarkPYInitial
p2751
VALZBB
p2752
sVContactFlag
p2753
I3
sVUin
p2754
I0
sVNickName
p2755
V\u84d3\u84d3 Blair
p2756
sVAppAccountFlag
p2757
I0
sVVerifyFlag
p2758
I0
sVRemarkPYQuanPin
p2759
Vanlizhaobeibei
p2760
sVHeadImgUrl
p2761
V/cgi-bin/mmwebwx-bin/webwxgeticon?seq=662775851&username=@30b673f389a642906bf8b331973ff0a20a1cbd33f2272fa7c7f9959ca907ec5e&skey=@crypt_9c3dea4c_40bcca64877cc7f6d3ac377ba4298757
p2762
sVKeyWord
p2763
g56
sVProvince
p2764
g56
sVPYInitial
p2765
VBBBLAIR
p2766
sVRemarkName
p2767
V\u5b89\u7406-\u8d75\u84d3\u84d3
p2768
sVIsOwner
p2769
I0
sVSex
p2770
I2
sVStarFriend
p2771
I0
sVHideInputBarFlag
p2772
I0
sVChatRoomId
p2773
I0
sVEncryChatRoomId
p2774
g56
sVAttrStatus
p2775
I103521
sVStatues
p2776
I0
stp2777
Rp2778
I1
bag34
(g38
g39
(dp2779
VUserName
p2780
V@4c673097eee63a96a14d057d19f724e51731ace4eea1d507253d0680dcefe8fd
p2781
sVCity
p2782
g56
sVSnsFlag
p2783
I145
sVDisplayName
p2784
g56
sVUniFriend
p2785
I0
sVMemberCount
p2786
I0
sVOwnerUin
p2787
I0
sVMemberList
p2788
g52
sVAlias
p2789
g56
sVPYQuanPin
p2790
Vmiaodadayuwangxingren
p2791
sVSignature
p2792
VI Do
p2793
sVRemarkPYInitial
p2794
VALFYPSNZX
p2795
sVContactFlag
p2796
I3
sVUin
p2797
I0
sVNickName
p2798
V\u55b5\u5927\u5927\u4e0e\u6c6a\u661f\u4eba
p2799
sVAppAccountFlag
p2800
I0
sVVerifyFlag
p2801
I0
sVRemarkPYQuanPin
p2802
Vanlifangyapingshineizhuangxiu
p2803
sVHeadImgUrl
p2804
V/cgi-bin/mmwebwx-bin/webwxgeticon?seq=662775879&username=@4c673097eee63a96a14d057d19f724e51731ace4eea1d507253d0680dcefe8fd&skey=@crypt_9c3dea4c_40bcca64877cc7f6d3ac377ba4298757
p2805
sVKeyWord
p2806
Vfan
p2807
sVProvince
p2808
V\u4e0a\u6d77
p2809
sVPYInitial
p2810
VMDDYWXR
p2811
sVRemarkName
p2812
V\u5b89\u7406-\u65b9\u4e9a\u840d-\u5ba4\u5185\u88c5\u4fee
p2813
sVIsOwner
p2814
I0
sVSex
p2815
I1
sVStarFriend
p2816
I0
sVHideInputBarFlag
p2817
I0
sVChatRoomId
p2818
I0
sVEncryChatRoomId
p2819
g56
sVAttrStatus
p2820
I102439
sVStatues
p2821
I0
stp2822
Rp2823
I1
bag34
(g38
g39
(dp2824
VUserName
p2825
V@ccb431e34d7f4394f1de0491f2deb0a8a3778a6039e0218091a67c2e08910d77
p2826
sVCity
p2827
V\u77f3\u5bb6\u5e84
p2828
sVSnsFlag
p2829
I17
sVDisplayName
p2830
g56
sVUniFriend
p2831
I0
sVMemberCount
p2832
I0
sVOwnerUin
p2833
I0
sVMemberList
p2834
g52
sVAlias
p2835
g56
sVPYQuanPin
p2836
VAtianyaspanclassemojiemoji1f60aspan
p2837
sVSignature
p2838
V\u7231\u8981\u5766\u8361\u8361\uff01^O^\u2605:)\u2606*^_^*
p2839
sVRemarkPYInitial
p2840
VXYWTY
p2841
sVContactFlag
p2842
I3
sVUin
p2843
I0
sVNickName
p2844
VA\u5929\u4e9a\U0001f60a
p2845
sVAppAccountFlag
p2846
I0
sVVerifyFlag
p2847
I0
sVRemarkPYQuanPin
p2848
Vxiuyuanwangtianya
p2849
sVHeadImgUrl
p2850
V/cgi-bin/mmwebwx-bin/webwxgeticon?seq=662697096&username=@ccb431e34d7f4394f1de0491f2deb0a8a3778a6039e0218091a67c2e08910d77&skey=@crypt_9c3dea4c_40bcca64877cc7f6d3ac377ba4298757
p2851
sVKeyWord
p2852
Vwan
p2853
sVProvince
p2854
V\u6cb3\u5317
p2855
sVPYInitial
p2856
VATYSPANCLASSEMOJIEMOJI1F60ASPAN
p2857
sVRemarkName
p2858
V\u4fee\u9662-\u738b\u5929\u4e9a
p2859
sVIsOwner
p2860
I0
sVSex
p2861
I1
sVStarFriend
p2862
I0
sVHideInputBarFlag
p2863
I0
sVChatRoomId
p2864
I0
sVEncryChatRoomId
p2865
g56
sVAttrStatus
p2866
I118887
sVStatues
p2867
I0
stp2868
Rp2869
I1
bag34
(g38
g39
(dp2870
VUserName
p2871
V@ed030af616d2477179245a72f524a85ee31e94d7399b42c8a8e401955801405c
p2872
sVCity
p2873
V\u897f\u57ce
p2874
sVSnsFlag
p2875
I1
sVDisplayName
p2876
g56
sVUniFriend
p2877
I0
sVMemberCount
p2878
I0
sVOwnerUin
p2879
I0
sVMemberList
p2880
g52
sVAlias
p2881
g56
sVPYQuanPin
p2882
Vpino
p2883
sVSignature
p2884
V\u4e00\u676f\u656c\u81ea\u7531\u3001\u4e00\u676f\u656c\u6b7b\u4ea1
p2885
sVRemarkPYInitial
p2886
VSCTYSNSJ
p2887
sVContactFlag
p2888
I3
sVUin
p2889
I0
sVNickName
p2890
Vpino
p2891
sVAppAccountFlag
p2892
I0
sVVerifyFlag
p2893
I0
sVRemarkPYQuanPin
p2894
Vshicaotianyushineisheji
p2895
sVHeadImgUrl
p2896
V/cgi-bin/mmwebwx-bin/webwxgeticon?seq=662776745&username=@ed030af616d2477179245a72f524a85ee31e94d7399b42c8a8e401955801405c&skey=@crypt_9c3dea4c_40bcca64877cc7f6d3ac377ba4298757
p2897
sVKeyWord
p2898
g56
sVProvince
p2899
V\u5317\u4eac
p2900
sVPYInitial
p2901
VPINO
p2902
sVRemarkName
p2903
V\u77f3-\u66f9\u5929\u5b87-\u5ba4\u5185\u8bbe\u8ba1
p2904
sVIsOwner
p2905
I0
sVSex
p2906
I1
sVStarFriend
p2907
I0
sVHideInputBarFlag
p2908
I0
sVChatRoomId
p2909
I0
sVEncryChatRoomId
p2910
g56
sVAttrStatus
p2911
I105061
sVStatues
p2912
I0
stp2913
Rp2914
I1
bag34
(g38
g39
(dp2915
VUserName
p2916
V@35a820d0f1d85aa38bc08d6245ef84b58e49bea95f82343164216ef75c496115
p2917
sVCity
p2918
V\u4fdd\u5b9a
p2919
sVSnsFlag
p2920
I17
sVDisplayName
p2921
g56
sVUniFriend
p2922
I0
sVMemberCount
p2923
I0
sVOwnerUin
p2924
I0
sVMemberList
p2925
g52
sVAlias
p2926
g56
sVPYQuanPin
p2927
Vwangkaiqiang
p2928
sVSignature
p2929
V\u597d\u597d\u8fc7
p2930
sVRemarkPYInitial
p2931
VWZWKQDL
p2932
sVContactFlag
p2933
I3
sVUin
p2934
I0
sVNickName
p2935
V\u738b\u51ef\u5f3a
p2936
sVAppAccountFlag
p2937
I0
sVVerifyFlag
p2938
I0
sVRemarkPYQuanPin
p2939
Vwuzhongwangkaiqiangdianli
p2940
sVHeadImgUrl
p2941
V/cgi-bin/mmwebwx-bin/webwxgeticon?seq=662776921&username=@35a820d0f1d85aa38bc08d6245ef84b58e49bea95f82343164216ef75c496115&skey=@crypt_9c3dea4c_40bcca64877cc7f6d3ac377ba4298757
p2942
sVKeyWord
p2943
g56
sVProvince
p2944
V\u6cb3\u5317
p2945
sVPYInitial
p2946
VWKQ
p2947
sVRemarkName
p2948
V\u6b66\u4e2d-\u738b\u51ef\u5f3a-\u7535\u529b
p2949
sVIsOwner
p2950
I0
sVSex
p2951
I1
sVStarFriend
p2952
I0
sVHideInputBarFlag
p2953
I0
sVChatRoomId
p2954
I0
sVEncryChatRoomId
p2955
g56
sVAttrStatus
p2956
I233511
sVStatues
p2957
I0
stp2958
Rp2959
I1
bag34
(g38
g39
(dp2960
VUserName
p2961
V@d0c17d1b9a4d5d8ed6b172c0815f6df01f9a245c83fab14e84108d4cca71243c
p2962
sVCity
p2963
V\u5357\u901a
p2964
sVSnsFlag
p2965
I49
sVDisplayName
p2966
g56
sVUniFriend
p2967
I0
sVMemberCount
p2968
I0
sVOwnerUin
p2969
I0
sVMemberList
p2970
g52
sVAlias
p2971
g56
sVPYQuanPin
p2972
Vzhidousanlang
p2973
sVSignature
p2974
VTrust The Process
p2975
sVRemarkPYInitial
p2976
VALXEN
p2977
sVContactFlag
p2978
I3
sVUin
p2979
I0
sVNickName
p2980
V\u667a\u9017\u4e09\u90ce
p2981
sVAppAccountFlag
p2982
I0
sVVerifyFlag
p2983
I0
sVRemarkPYQuanPin
p2984
Vanlixieernong
p2985
sVHeadImgUrl
p2986
V/cgi-bin/mmwebwx-bin/webwxgeticon?seq=647571564&username=@d0c17d1b9a4d5d8ed6b172c0815f6df01f9a245c83fab14e84108d4cca71243c&skey=@crypt_9c3dea4c_40bcca64877cc7f6d3ac377ba4298757
p2987
sVKeyWord
p2988
Vxie
p2989
sVProvince
p2990
V\u6c5f\u82cf
p2991
sVPYInitial
p2992
VZDSL
p2993
sVRemarkName
p2994
V\u5b89\u7406-\u8c22\u5c14\u519c
p2995
sVIsOwner
p2996
I0
sVSex
p2997
I1
sVStarFriend
p2998
I0
sVHideInputBarFlag
p2999
I0
sVChatRoomId
p3000
I0
sVEncryChatRoomId
p3001
g56
sVAttrStatus
p3002
I241767
sVStatues
p3003
I0
stp3004
Rp3005
I1
bag34
(g38
g39
(dp3006
VUserName
p3007
V@a18eaa93ac3352c86d34471724c74df7fcb7eddfb742c8c4acab00c5725b9b07
p3008
sVCity
p3009
V\u8bb8\u660c
p3010
sVSnsFlag
p3011
I17
sVDisplayName
p3012
g56
sVUniFriend
p3013
I0
sVMemberCount
p3014
I0
sVOwnerUin
p3015
I0
sVMemberList
p3016
g52
sVAlias
p3017
g56
sVPYQuanPin
p3018
Vqiaolongfei
p3019
sVSignature
p3020
V\u5171\u8d62\u643a\u624b\u672a\u6765\uff0c\u60f3\u60f3\u4f60\u5c31\u884c\uff0c\u884c\u52a8\u4f60\u5c31\u8d62\u3002
p3021
sVRemarkPYInitial
p3022
VBHQLF08
p3023
sVContactFlag
p3024
I3
sVUin
p3025
I0
sVNickName
p3026
V\u4e54\u9f99\u98de
p3027
sVAppAccountFlag
p3028
I0
sVVerifyFlag
p3029
I0
sVRemarkPYQuanPin
p3030
Vbinheqiaolongfei08
p3031
sVHeadImgUrl
p3032
V/cgi-bin/mmwebwx-bin/webwxgeticon?seq=662768165&username=@a18eaa93ac3352c86d34471724c74df7fcb7eddfb742c8c4acab00c5725b9b07&skey=@crypt_9c3dea4c_40bcca64877cc7f6d3ac377ba4298757
p3033
sVKeyWord
p3034
g56
sVProvince
p3035
V\u6cb3\u5357
p3036
sVPYInitial
p3037
VQLF
p3038
sVRemarkName
p3039
V\u6ee8\u6cb3-\u4e54\u9f99\u98de-08
p3040
sVIsOwner
p3041
I0
sVSex
p3042
I1
sVStarFriend
p3043
I0
sVHideInputBarFlag
p3044
I0
sVChatRoomId
p3045
I0
sVEncryChatRoomId
p3046
g56
sVAttrStatus
p3047
I102433
sVStatues
p3048
I0
stp3049
Rp3050
I1
bag34
(g38
g39
(dp3051
VUserName
p3052
V@feafad0538bd4d6fcc8267d1862a57fc8dabc14684f6bde7017a03f3eeda1cff
p3053
sVCity
p3054
V\u676d\u5dde
p3055
sVSnsFlag
p3056
I1
sVDisplayName
p3057
g56
sVUniFriend
p3058
I0
sVMemberCount
p3059
I0
sVOwnerUin
p3060
I0
sVMemberList
p3061
g52
sVAlias
p3062
g56
sVPYQuanPin
p3063
Vtangyuwuyingyu
p3064
sVSignature
p3065
g56
sVRemarkPYInitial
p3066
VHWXHYY
p3067
sVContactFlag
p3068
I3
sVUin
p3069
I0
sVNickName
p3070
V\u7cd6\u8bed\u5c4b\u82f1\u8bed
p3071
sVAppAccountFlag
p3072
I0
sVVerifyFlag
p3073
I0
sVRemarkPYQuanPin
p3074
Vhangwangxiaohuiyingyu
p3075
sVHeadImgUrl
p3076
V/cgi-bin/mmwebwx-bin/webwxgeticon?seq=662744762&username=@feafad0538bd4d6fcc8267d1862a57fc8dabc14684f6bde7017a03f3eeda1cff&skey=@crypt_9c3dea4c_40bcca64877cc7f6d3ac377ba4298757
p3077
sVKeyWord
p3078
g56
sVProvince
p3079
V\u6d59\u6c5f
p3080
sVPYInitial
p3081
VTYWYY
p3082
sVRemarkName
p3083
V\u676d-\u738b\u5c0f\u6167-\u82f1\u8bed
p3084
sVIsOwner
p3085
I0
sVSex
p3086
I2
sVStarFriend
p3087
I0
sVHideInputBarFlag
p3088
I0
sVChatRoomId
p3089
I0
sVEncryChatRoomId
p3090
g56
sVAttrStatus
p3091
I102501
sVStatues
p3092
I0
stp3093
Rp3094
I1
bag34
(g38
g39
(dp3095
VUserName
p3096
V@9697e6393802b94d53fba138d04da85e
p3097
sVCity
p3098
V\u6d77\u6dc0
p3099
sVSnsFlag
p3100
I49
sVDisplayName
p3101
g56
sVUniFriend
p3102
I0
sVMemberCount
p3103
I0
sVOwnerUin
p3104
I0
sVMemberList
p3105
g52
sVAlias
p3106
g56
sVPYQuanPin
p3107
g56
sVSignature
p3108
V\u4e0d\u4e70\u80a1\u7968\uff0c\u4e0d\u7406\u8d22\uff0c\u4e0d\u8d37\u6b3e\uff0c\u4e0d\u529e\u5361\uff0c\u4e0d\u8981\u4f18\u60e0\u5238\uff0c\u4e0d\u7ea6\uff01
p3109
sVRemarkPYInitial
p3110
VLYLKYIT
p3111
sVContactFlag
p3112
I3
sVUin
p3113
I0
sVNickName
p3114
V\uff5e~\uff5e
p3115
sVAppAccountFlag
p3116
I0
sVVerifyFlag
p3117
I0
sVRemarkPYQuanPin
p3118
VlinyilikaiyuanIT
p3119
sVHeadImgUrl
p3120
V/cgi-bin/mmwebwx-bin/webwxgeticon?seq=662765476&username=@9697e6393802b94d53fba138d04da85e&skey=@crypt_9c3dea4c_40bcca64877cc7f6d3ac377ba4298757
p3121
sVKeyWord
p3122
Vzho
p3123
sVProvince
p3124
V\u5317\u4eac
p3125
sVPYInitial
p3126
g56
sVRemarkName
p3127
V\u4e34\u6c82-\u674e\u5f00\u5143-IT
p3128
sVIsOwner
p3129
I0
sVSex
p3130
I1
sVStarFriend
p3131
I0
sVHideInputBarFlag
p3132
I0
sVChatRoomId
p3133
I0
sVEncryChatRoomId
p3134
g56
sVAttrStatus
p3135
I74149
sVStatues
p3136
I0
stp3137
Rp3138
I1
bag34
(g38
g39
(dp3139
VUserName
p3140
V@76f963af0ad62e710b750b09dece4a8becfbff59e4c0ade2856c99fc93542714
p3141
sVCity
p3142
V\u5eca\u574a
p3143
sVSnsFlag
p3144
I17
sVDisplayName
p3145
g56
sVUniFriend
p3146
I0
sVMemberCount
p3147
I0
sVOwnerUin
p3148
I0
sVMemberList
p3149
g52
sVAlias
p3150
g56
sVPYQuanPin
p3151
VIDo
p3152
sVSignature
p3153
V\u6c38\u8fdc\u90fd\u4e0d\u4f1a\u665a\uff01
p3154
sVRemarkPYInitial
p3155
VWZSSXF
p3156
sVContactFlag
p3157
I3
sVUin
p3158
I0
sVNickName
p3159
VI   Do
p3160
sVAppAccountFlag
p3161
I0
sVVerifyFlag
p3162
I0
sVRemarkPYQuanPin
p3163
Vwuzhongsunshuoxiaofang
p3164
sVHeadImgUrl
p3165
V/cgi-bin/mmwebwx-bin/webwxgeticon?seq=662697566&username=@76f963af0ad62e710b750b09dece4a8becfbff59e4c0ade2856c99fc93542714&skey=@crypt_9c3dea4c_40bcca64877cc7f6d3ac377ba4298757
p3166
sVKeyWord
p3167
g56
sVProvince
p3168
V\u6cb3\u5317
p3169
sVPYInitial
p3170
VIDO
p3171
sVRemarkName
p3172
V\u6b66\u4e2d-\u5b59\u7855-\u6d88\u9632
p3173
sVIsOwner
p3174
I0
sVSex
p3175
I1
sVStarFriend
p3176
I0
sVHideInputBarFlag
p3177
I0
sVChatRoomId
p3178
I0
sVEncryChatRoomId
p3179
g56
sVAttrStatus
p3180
I200869
sVStatues
p3181
I0
stp3182
Rp3183
I1
bag34
(g38
g39
(dp3184
VUserName
p3185
V@0776f9ad891b1fc676d7db80f9808d70
p3186
sVCity
p3187
V\u8861\u6c34
p3188
sVSnsFlag
p3189
I17
sVDisplayName
p3190
g56
sVUniFriend
p3191
I0
sVMemberCount
p3192
I0
sVOwnerUin
p3193
I0
sVMemberList
p3194
g52
sVAlias
p3195
g56
sVPYQuanPin
p3196
Vshoufengshuangmiannedayishougongwaifa
p3197
sVSignature
p3198
V13582481757
p3199
sVRemarkPYInitial
p3200
VXYWL
p3201
sVContactFlag
p3202
I3
sVUin
p3203
I0
sVNickName
p3204
V\u624b\u7f1d\u53cc\u9762\u5462\u5927\u8863\u624b\u5de5\u5916\u53d1
p3205
sVAppAccountFlag
p3206
I0
sVVerifyFlag
p3207
I0
sVRemarkPYQuanPin
p3208
Vxiuyuanwanglu
p3209
sVHeadImgUrl
p3210
V/cgi-bin/mmwebwx-bin/webwxgeticon?seq=620580112&username=@0776f9ad891b1fc676d7db80f9808d70&skey=@crypt_9c3dea4c_40bcca64877cc7f6d3ac377ba4298757
p3211
sVKeyWord
p3212
Vlua
p3213
sVProvince
p3214
V\u6cb3\u5317
p3215
sVPYInitial
p3216
VSFSMNDYSGWF
p3217
sVRemarkName
p3218
V\u4fee\u9662-\u738b\u8def
p3219
sVIsOwner
p3220
I0
sVSex
p3221
I1
sVStarFriend
p3222
I0
sVHideInputBarFlag
p3223
I0
sVChatRoomId
p3224
I0
sVEncryChatRoomId
p3225
g56
sVAttrStatus
p3226
I8259
sVStatues
p3227
I0
stp3228
Rp3229
I1
bag34
(g38
g39
(dp3230
VUserName
p3231
V@c72d3fc12fad4dad76d71a7439087f63f30c7cfab5fff28e4a331c74b58e0544
p3232
sVCity
p3233
V\u676d\u5dde
p3234
sVSnsFlag
p3235
I49
sVDisplayName
p3236
g56
sVUniFriend
p3237
I0
sVMemberCount
p3238
I0
sVOwnerUin
p3239
I0
sVMemberList
p3240
g52
sVAlias
p3241
g56
sVPYQuanPin
p3242
Vlizeyang
p3243
sVSignature
p3244
Vstay hungry
p3245
sVRemarkPYInitial
p3246
VHKLZYYD
p3247
sVContactFlag
p3248
I3
sVUin
p3249
I0
sVNickName
p3250
V\u674e\u6cfd\u9633
p3251
sVAppAccountFlag
p3252
I0
sVVerifyFlag
p3253
I0
sVRemarkPYQuanPin
p3254
Vhaikelizeyangyunduan
p3255
sVHeadImgUrl
p3256
V/cgi-bin/mmwebwx-bin/webwxgeticon?seq=662695000&username=@c72d3fc12fad4dad76d71a7439087f63f30c7cfab5fff28e4a331c74b58e0544&skey=@crypt_9c3dea4c_40bcca64877cc7f6d3ac377ba4298757
p3257
sVKeyWord
p3258
g56
sVProvince
p3259
V\u6d59\u6c5f
p3260
sVPYInitial
p3261
VLZY
p3262
sVRemarkName
p3263
V\u6c26\u6c2a-\u674e\u6cfd\u6d0b-\u4e91\u7aef
p3264
sVIsOwner
p3265
I0
sVSex
p3266
I1
sVStarFriend
p3267
I0
sVHideInputBarFlag
p3268
I0
sVChatRoomId
p3269
I0
sVEncryChatRoomId
p3270
g56
sVAttrStatus
p3271
I2147586151
sVStatues
p3272
I0
stp3273
Rp3274
I1
bag34
(g38
g39
(dp3275
VUserName
p3276
V@ecc4c318fd632d1549687c0319cd7a18
p3277
sVCity
p3278
V\u8861\u6c34
p3279
sVSnsFlag
p3280
I1
sVDisplayName
p3281
g56
sVUniFriend
p3282
I0
sVMemberCount
p3283
I0
sVOwnerUin
p3284
I0
sVMemberList
p3285
g52
sVAlias
p3286
g56
sVPYQuanPin
p3287
Vbiandian
p3288
sVSignature
p3289
V\u6c38\u8fdc\u5fc3\u6000\u656c\u754f\uff0c\u6c38\u8fdc\u4fdd\u6301\u63a2\u7d22\u3002
p3290
sVRemarkPYInitial
p3291
VWZCPZTJ
p3292
sVContactFlag
p3293
I3
sVUin
p3294
I0
sVNickName
p3295
V\u5f7c\u5cb8\u4e36
p3296
sVAppAccountFlag
p3297
I0
sVVerifyFlag
p3298
I0
sVRemarkPYQuanPin
p3299
Vwuzhongchangpengzhongtiejian
p3300
sVHeadImgUrl
p3301
V/cgi-bin/mmwebwx-bin/webwxgeticon?seq=631386061&username=@ecc4c318fd632d1549687c0319cd7a18&skey=@crypt_9c3dea4c_40bcca64877cc7f6d3ac377ba4298757
p3302
sVKeyWord
p3303
Vcp2
p3304
sVProvince
p3305
V\u6cb3\u5317
p3306
sVPYInitial
p3307
VBAD
p3308
sVRemarkName
p3309
V\u6b66\u4e2d-\u5e38\u9e4f-\u4e2d\u94c1\u5efa
p3310
sVIsOwner
p3311
I0
sVSex
p3312
I1
sVStarFriend
p3313
I0
sVHideInputBarFlag
p3314
I0
sVChatRoomId
p3315
I0
sVEncryChatRoomId
p3316
g56
sVAttrStatus
p3317
I17007015
sVStatues
p3318
I0
stp3319
Rp3320
I1
bag34
(g38
g39
(dp3321
VUserName
p3322
V@0a02a48f334f05dd04b08bcb5c266972
p3323
sVCity
p3324
V\u676d\u5dde
p3325
sVSnsFlag
p3326
I49
sVDisplayName
p3327
g56
sVUniFriend
p3328
I0
sVMemberCount
p3329
I0
sVOwnerUin
p3330
I0
sVMemberList
p3331
g52
sVAlias
p3332
g56
sVPYQuanPin
p3333
VKamisama
p3334
sVSignature
p3335
VFarewell, good hunter.
p3336
sVRemarkPYInitial
p3337
VHKSTQD
p3338
sVContactFlag
p3339
I3
sVUin
p3340
I0
sVNickName
p3341
VKamisama
p3342
sVAppAccountFlag
p3343
I0
sVVerifyFlag
p3344
I0
sVRemarkPYQuanPin
p3345
Vhaikeshentingqianduan
p3346
sVHeadImgUrl
p3347
V/cgi-bin/mmwebwx-bin/webwxgeticon?seq=647563022&username=@0a02a48f334f05dd04b08bcb5c266972&skey=@crypt_9c3dea4c_40bcca64877cc7f6d3ac377ba4298757
p3348
sVKeyWord
p3349
Vpci
p3350
sVProvince
p3351
V\u6d59\u6c5f
p3352
sVPYInitial
p3353
VKAMISAMA
p3354
sVRemarkName
p3355
V\u6c26\u6c2a-\u6c88\u633a-\u524d\u7aef
p3356
sVIsOwner
p3357
I0
sVSex
p3358
I1
sVStarFriend
p3359
I0
sVHideInputBarFlag
p3360
I0
sVChatRoomId
p3361
I0
sVEncryChatRoomId
p3362
g56
sVAttrStatus
p3363
I33784127
sVStatues
p3364
I0
stp3365
Rp3366
I1
bag34
(g38
g39
(dp3367
VUserName
p3368
V@8e582323b35809bc0bbbea15ce8edcd3daffec3234488059fbb48709c51adff5
p3369
sVCity
p3370
V\u676d\u5dde
p3371
sVSnsFlag
p3372
I17
sVDisplayName
p3373
g56
sVUniFriend
p3374
I0
sVMemberCount
p3375
I0
sVOwnerUin
p3376
I0
sVMemberList
p3377
g52
sVAlias
p3378
g56
sVPYQuanPin
p3379
VDream
p3380
sVSignature
p3381
g56
sVRemarkPYInitial
p3382
VMTCJH
p3383
sVContactFlag
p3384
I1
sVUin
p3385
I0
sVNickName
p3386
VDream
p3387
sVAppAccountFlag
p3388
I0
sVVerifyFlag
p3389
I0
sVRemarkPYQuanPin
p3390
Vmaitianchenjiahui
p3391
sVHeadImgUrl
p3392
V/cgi-bin/mmwebwx-bin/webwxgeticon?seq=661613474&username=@8e582323b35809bc0bbbea15ce8edcd3daffec3234488059fbb48709c51adff5&skey=@crypt_9c3dea4c_40bcca64877cc7f6d3ac377ba4298757
p3393
sVKeyWord
p3394
Vche
p3395
sVProvince
p3396
V\u6d59\u6c5f
p3397
sVPYInitial
p3398
VDREAM
p3399
sVRemarkName
p3400
V\u9ea6\u7530-\u9648\u4f73\u8f89-
p3401
sVIsOwner
p3402
I0
sVSex
p3403
I1
sVStarFriend
p3404
I0
sVHideInputBarFlag
p3405
I0
sVChatRoomId
p3406
I0
sVEncryChatRoomId
p3407
g56
sVAttrStatus
p3408
I33667175
sVStatues
p3409
I0
stp3410
Rp3411
I1
bag34
(g38
g39
(dp3412
VUserName
p3413
V@eab770910424425789ff93eb40748df5561b019d5021c05c7c5e5560e3a170d1
p3414
sVCity
p3415
V\u77f3\u5bb6\u5e84
p3416
sVSnsFlag
p3417
I17
sVDisplayName
p3418
g56
sVUniFriend
p3419
I0
sVMemberCount
p3420
I0
sVOwnerUin
p3421
I0
sVMemberList
p3422
g52
sVAlias
p3423
g56
sVPYQuanPin
p3424
Vxuan
p3425
sVSignature
p3426
g56
sVRemarkPYInitial
p3427
VSDWJXPYTHONSJZ
p3428
sVContactFlag
p3429
I3
sVUin
p3430
I0
sVNickName
p3431
V\u8f69
p3432
sVAppAccountFlag
p3433
I0
sVVerifyFlag
p3434
I0
sVRemarkPYQuanPin
p3435
Vsandawangjingxuanpythonshijiazhuang
p3436
sVHeadImgUrl
p3437
V/cgi-bin/mmwebwx-bin/webwxgeticon?seq=662734977&username=@eab770910424425789ff93eb40748df5561b019d5021c05c7c5e5560e3a170d1&skey=@crypt_9c3dea4c_40bcca64877cc7f6d3ac377ba4298757
p3438
sVKeyWord
p3439
g56
sVProvince
p3440
V\u6cb3\u5317
p3441
sVPYInitial
p3442
VX
p3443
sVRemarkName
p3444
V\u4e09\u5927-\u738b\u656c\u8f69-python-\u77f3\u5bb6\u5e84
p3445
sVIsOwner
p3446
I0
sVSex
p3447
I2
sVStarFriend
p3448
I0
sVHideInputBarFlag
p3449
I0
sVChatRoomId
p3450
I0
sVEncryChatRoomId
p3451
g56
sVAttrStatus
p3452
I99781
sVStatues
p3453
I0
stp3454
Rp3455
I1
bag34
(g38
g39
(dp3456
VUserName
p3457
V@6fec72b3ef4ea00e177e2596699dacb543d319342bf2bf90c7d252682b1e6196
p3458
sVCity
p3459
V\u8861\u6c34
p3460
sVSnsFlag
p3461
I1
sVDisplayName
p3462
g56
sVUniFriend
p3463
I0
sVMemberCount
p3464
I0
sVOwnerUin
p3465
I0
sVMemberList
p3466
g52
sVAlias
p3467
g56
sVPYQuanPin
p3468
Vdixiao
p3469
sVSignature
p3470
V\u62fc\u6211\u60f3\u8981\u7684\uff0c\u6323\u6211\u6ca1\u6709\u7684\uff01
p3471
sVRemarkPYInitial
p3472
VWZLDXXJS
p3473
sVContactFlag
p3474
I3
sVUin
p3475
I0
sVNickName
p3476
V\u7b1b\u7b71
p3477
sVAppAccountFlag
p3478
I0
sVVerifyFlag
p3479
I0
sVRemarkPYQuanPin
p3480
Vwuzhongliudanxiaoxuejiaoshi
p3481
sVHeadImgUrl
p3482
V/cgi-bin/mmwebwx-bin/webwxgeticon?seq=647553265&username=@6fec72b3ef4ea00e177e2596699dacb543d319342bf2bf90c7d252682b1e6196&skey=@crypt_9c3dea4c_40bcca64877cc7f6d3ac377ba4298757
p3483
sVKeyWord
p3484
g56
sVProvince
p3485
V\u6cb3\u5317
p3486
sVPYInitial
p3487
VDX
p3488
sVRemarkName
p3489
V\u6b66\u4e2d-\u5218\u4e39--\u5c0f\u5b66\u6559\u5e08
p3490
sVIsOwner
p3491
I0
sVSex
p3492
I2
sVStarFriend
p3493
I0
sVHideInputBarFlag
p3494
I0
sVChatRoomId
p3495
I0
sVEncryChatRoomId
p3496
g56
sVAttrStatus
p3497
I5093
sVStatues
p3498
I0
stp3499
Rp3500
I1
bag34
(g38
g39
(dp3501
VUserName
p3502
V@04df87e660455e6ec256e7361050c84be7068835bf14df6267af14281cf81925
p3503
sVCity
p3504
V\u5927\u8fde
p3505
sVSnsFlag
p3506
I17
sVDisplayName
p3507
g56
sVUniFriend
p3508
I0
sVMemberCount
p3509
I0
sVOwnerUin
p3510
I0
sVMemberList
p3511
g52
sVAlias
p3512
g56
sVPYQuanPin
p3513
Vdouchongchong
p3514
sVSignature
p3515
V\u7231\u751f\u6d3b\uff0c\u7231\u81ea\u5df1\uff0c\u7231\u4e16\u754c\uff0c\u7231\u5927\u5bb6\uff01
p3516
sVRemarkPYInitial
p3517
VWZFWQYX
p3518
sVContactFlag
p3519
I3
sVUin
p3520
I0
sVNickName
p3521
V\u9017\u866b\u866b
p3522
sVAppAccountFlag
p3523
I0
sVVerifyFlag
p3524
I0
sVRemarkPYQuanPin
p3525
Vwuzhongfengwenqiuyixue
p3526
sVHeadImgUrl
p3527
V/cgi-bin/mmwebwx-bin/webwxgeticon?seq=662707289&username=@04df87e660455e6ec256e7361050c84be7068835bf14df6267af14281cf81925&skey=@crypt_9c3dea4c_40bcca64877cc7f6d3ac377ba4298757
p3528
sVKeyWord
p3529
g56
sVProvince
p3530
V\u8fbd\u5b81
p3531
sVPYInitial
p3532
VDCC
p3533
sVRemarkName
p3534
V\u6b66\u4e2d-\u51af\u6587\u79cb-\u533b\u5b66
p3535
sVIsOwner
p3536
I0
sVSex
p3537
I2
sVStarFriend
p3538
I0
sVHideInputBarFlag
p3539
I0
sVChatRoomId
p3540
I0
sVEncryChatRoomId
p3541
g56
sVAttrStatus
p3542
I33654885
sVStatues
p3543
I0
stp3544
Rp3545
I1
bag34
(g38
g39
(dp3546
VUserName
p3547
V@13e57549b08bd635863caf794778c902cf6d5f4871791accfd39c0bdf481dfe5
p3548
sVCity
p3549
V\u671d\u9633
p3550
sVSnsFlag
p3551
I49
sVDisplayName
p3552
g56
sVUniFriend
p3553
I0
sVMemberCount
p3554
I0
sVOwnerUin
p3555
I0
sVMemberList
p3556
g52
sVAlias
p3557
g56
sVPYQuanPin
p3558
Vwoyaojianjiankangkang
p3559
sVSignature
p3560
g56
sVRemarkPYInitial
p3561
VWZXQQ
p3562
sVContactFlag
p3563
I3
sVUin
p3564
I0
sVNickName
p3565
V\u6211\u8981\u5065\u5065\u5eb7\u5eb7
p3566
sVAppAccountFlag
p3567
I0
sVVerifyFlag
p3568
I0
sVRemarkPYQuanPin
p3569
Vwuzhongxieqianqian
p3570
sVHeadImgUrl
p3571
V/cgi-bin/mmwebwx-bin/webwxgeticon?seq=662787575&username=@13e57549b08bd635863caf794778c902cf6d5f4871791accfd39c0bdf481dfe5&skey=@crypt_9c3dea4c_40bcca64877cc7f6d3ac377ba4298757
p3572
sVKeyWord
p3573
g56
sVProvince
p3574
V\u5317\u4eac
p3575
sVPYInitial
p3576
VWYJJKK
p3577
sVRemarkName
p3578
V\u6b66\u4e2d-\u89e3\u831c\u831c
p3579
sVIsOwner
p3580
I0
sVSex
p3581
I2
sVStarFriend
p3582
I0
sVHideInputBarFlag
p3583
I0
sVChatRoomId
p3584
I0
sVEncryChatRoomId
p3585
g56
sVAttrStatus
p3586
I234917
sVStatues
p3587
I0
stp3588
Rp3589
I1
bag34
(g38
g39
(dp3590
VUserName
p3591
V@74f1b016a03a6a85035f7b591c9a9583
p3592
sVCity
p3593
V\u676d\u5dde
p3594
sVSnsFlag
p3595
I49
sVDisplayName
p3596
g56
sVUniFriend
p3597
I0
sVMemberCount
p3598
I0
sVOwnerUin
p3599
I0
sVMemberList
p3600
g52
sVAlias
p3601
g56
sVPYQuanPin
p3602
g564
sVSignature
p3603
V\u4e91\u4e2d\u98de\u8d3a \u5fc3\u95f4\u85cf\u68a6 \u547d\u91cc\u5ba0\u5a07
p3604
sVRemarkPYInitial
p3605
VHKYMHWEBQD
p3606
sVContactFlag
p3607
I3
sVUin
p3608
I0
sVNickName
p3609
VD\u3002
p3610
sVAppAccountFlag
p3611
I0
sVVerifyFlag
p3612
I0
sVRemarkPYQuanPin
p3613
Vhaikeyumenghuiwebqianduan
p3614
sVHeadImgUrl
p3615
V/cgi-bin/mmwebwx-bin/webwxgeticon?seq=662748359&username=@74f1b016a03a6a85035f7b591c9a9583&skey=@crypt_9c3dea4c_40bcca64877cc7f6d3ac377ba4298757
p3616
sVKeyWord
p3617
Vymh
p3618
sVProvince
p3619
V\u6d59\u6c5f
p3620
sVPYInitial
p3621
g564
sVRemarkName
p3622
V\u6c26\u6c2a-\u4fde\u5b5f\u8f89-web\u524d\u7aef
p3623
sVIsOwner
p3624
I0
sVSex
p3625
I1
sVStarFriend
p3626
I0
sVHideInputBarFlag
p3627
I0
sVChatRoomId
p3628
I0
sVEncryChatRoomId
p3629
g56
sVAttrStatus
p3630
I112935
sVStatues
p3631
I0
stp3632
Rp3633
I1
bag34
(g38
g39
(dp3634
VUserName
p3635
V@597d4eea2317fd371467951c221193d611715939af2e29fdf28d4e0458e28c19
p3636
sVCity
p3637
g56
sVSnsFlag
p3638
I1
sVDisplayName
p3639
g56
sVUniFriend
p3640
I0
sVMemberCount
p3641
I0
sVOwnerUin
p3642
I0
sVMemberList
p3643
g52
sVAlias
p3644
g56
sVPYQuanPin
p3645
V???chengjianspanclassemojiemoji1f451spanzhengjian???
p3646
sVSignature
p3647
V\u672c\u516c\u53f8  \u4e13\u4e1a \u529e\u7406 \u5404\u79cd \u8bc1\u4ef6\u2705\u516c\u7ae0\uff0c\u6b22\u8fce\u54a8\u8be2 <span class="emoji emoji2648"></span>\ufe0fbanzheng122
p3648
sVRemarkPYInitial
p3649
VGNBZCS
p3650
sVContactFlag
p3651
I3
sVUin
p3652
I0
sVNickName
p3653
V\ua9c1\uaade \u2112\u8bda\u4ef6\U0001f451\u8bc1\u4ef6\u2112 \uaade\ua9c2
p3654
sVAppAccountFlag
p3655
I0
sVVerifyFlag
p3656
I0
sVRemarkPYQuanPin
p3657
Vgongnengbanzhengchangsha
p3658
sVHeadImgUrl
p3659
V/cgi-bin/mmwebwx-bin/webwxgeticon?seq=662721517&username=@597d4eea2317fd371467951c221193d611715939af2e29fdf28d4e0458e28c19&skey=@crypt_9c3dea4c_40bcca64877cc7f6d3ac377ba4298757
p3660
sVKeyWord
p3661
g56
sVProvince
p3662
g56
sVPYInitial
p3663
V???CJSPANCLASSEMOJIEMOJI1F451SPANZJ???
p3664
sVRemarkName
p3665
V\u529f\u80fd-\u529e\u8bc1-\u957f\u6c99
p3666
sVIsOwner
p3667
I0
sVSex
p3668
I2
sVStarFriend
p3669
I0
sVHideInputBarFlag
p3670
I0
sVChatRoomId
p3671
I0
sVEncryChatRoomId
p3672
g56
sVAttrStatus
p3673
I103013
sVStatues
p3674
I0
stp3675
Rp3676
I1
bag34
(g38
g39
(dp3677
VUserName
p3678
V@7891d537121aca3d599508686c384de0
p3679
sVCity
p3680
V\u676d\u5dde
p3681
sVSnsFlag
p3682
I49
sVDisplayName
p3683
g56
sVUniFriend
p3684
I0
sVMemberCount
p3685
I0
sVOwnerUin
p3686
I0
sVMemberList
p3687
g52
sVAlias
p3688
g56
sVPYQuanPin
p3689
Vcaimeiyounameku
p3690
sVSignature
p3691
V\u6587\u827a\u7684\u76ee\u7684\u5c31\u662f\u627e\u4e2a\u7406\u7531\u7231\u4e0a\u67af\u71e5\u7684\u751f\u6d3b\u4ee5\u53ca\u4e0d\u582a\u7684\u81ea\u5df1
p3692
sVRemarkPYInitial
p3693
VHKLXFQD
p3694
sVContactFlag
p3695
I3
sVUin
p3696
I0
sVNickName
p3697
V@\u624d\u6ca1\u6709\u90a3\u4e48\u9177
p3698
sVAppAccountFlag
p3699
I0
sVVerifyFlag
p3700
I0
sVRemarkPYQuanPin
p3701
Vhaikelixiaofengqianduan
p3702
sVHeadImgUrl
p3703
V/cgi-bin/mmwebwx-bin/webwxgeticon?seq=647563025&username=@7891d537121aca3d599508686c384de0&skey=@crypt_9c3dea4c_40bcca64877cc7f6d3ac377ba4298757
p3704
sVKeyWord
p3705
Vkev
p3706
sVProvince
p3707
V\u6d59\u6c5f
p3708
sVPYInitial
p3709
VCMYNMK
p3710
sVRemarkName
p3711
V\u6c26\u6c2a-\u674e\u6653\u5cf0-\u524d\u7aef
p3712
sVIsOwner
p3713
I0
sVSex
p3714
I1
sVStarFriend
p3715
I0
sVHideInputBarFlag
p3716
I0
sVChatRoomId
p3717
I0
sVEncryChatRoomId
p3718
g56
sVAttrStatus
p3719
I111735
sVStatues
p3720
I0
stp3721
Rp3722
I1
bag34
(g38
g39
(dp3723
VUserName
p3724
V@e2e5339df684aff423bd910d52fa4284c4b386eabdd7c88c5feae3238c160734
p3725
sVCity
p3726
V\u676d\u5dde
p3727
sVSnsFlag
p3728
I17
sVDisplayName
p3729
g56
sVUniFriend
p3730
I0
sVMemberCount
p3731
I0
sVOwnerUin
p3732
I0
sVMemberList
p3733
g52
sVAlias
p3734
g56
sVPYQuanPin
p3735
Vchunniunai
p3736
sVSignature
p3737
V\u4f60\u82e5\u5b89\u597d\uff0c\u4fbf\u662f\u6674\u5929\u3002
p3738
sVRemarkPYInitial
p3739
VALLGELM
p3740
sVContactFlag
p3741
I3
sVUin
p3742
I0
sVNickName
p3743
V\u7eaf\u725b\u5976
p3744
sVAppAccountFlag
p3745
I0
sVVerifyFlag
p3746
I0
sVRemarkPYQuanPin
p3747
Vanliliugangeleme
p3748
sVHeadImgUrl
p3749
V/cgi-bin/mmwebwx-bin/webwxgeticon?seq=662788394&username=@e2e5339df684aff423bd910d52fa4284c4b386eabdd7c88c5feae3238c160734&skey=@crypt_9c3dea4c_40bcca64877cc7f6d3ac377ba4298757
p3750
sVKeyWord
p3751
Vw33
p3752
sVProvince
p3753
V\u6d59\u6c5f
p3754
sVPYInitial
p3755
VCNN
p3756
sVRemarkName
p3757
V\u5b89\u7406-\u5218\u521a--\u997f\u4e86\u4e48
p3758
sVIsOwner
p3759
I0
sVSex
p3760
I1
sVStarFriend
p3761
I0
sVHideInputBarFlag
p3762
I0
sVChatRoomId
p3763
I0
sVEncryChatRoomId
p3764
g56
sVAttrStatus
p3765
I112103
sVStatues
p3766
I0
stp3767
Rp3768
I1
bag34
(g38
g39
(dp3769
VUserName
p3770
V@85ab237063876c32ea1528562eab77b5014a3850898712009a6107be268a326e
p3771
sVCity
p3772
V\u90af\u90f8
p3773
sVSnsFlag
p3774
I17
sVDisplayName
p3775
g56
sVUniFriend
p3776
I0
sVMemberCount
p3777
I0
sVOwnerUin
p3778
I0
sVMemberList
p3779
g52
sVAlias
p3780
g56
sVPYQuanPin
p3781
Vtuxiaoleng
p3782
sVSignature
p3783
V\u4e0d\u629b\u5f03\uff0c\u4e0d\u653e\u5f03\uff01
p3784
sVRemarkPYInitial
p3785
VSDSTQD
p3786
sVContactFlag
p3787
I3
sVUin
p3788
I0
sVNickName
p3789
V\u5154\u5c0f\u51b7
p3790
sVAppAccountFlag
p3791
I0
sVVerifyFlag
p3792
I0
sVRemarkPYQuanPin
p3793
Vshidushitouqianduan
p3794
sVHeadImgUrl
p3795
V/cgi-bin/mmwebwx-bin/webwxgeticon?seq=662789110&username=@85ab237063876c32ea1528562eab77b5014a3850898712009a6107be268a326e&skey=@crypt_9c3dea4c_40bcca64877cc7f6d3ac377ba4298757
p3796
sVKeyWord
p3797
g56
sVProvince
p3798
V\u6cb3\u5317
p3799
sVPYInitial
p3800
VTXL
p3801
sVRemarkName
p3802
V\u77f3-\u675c\u77f3\u5934-\u524d\u7aef
p3803
sVIsOwner
p3804
I0
sVSex
p3805
I1
sVStarFriend
p3806
I0
sVHideInputBarFlag
p3807
I0
sVChatRoomId
p3808
I0
sVEncryChatRoomId
p3809
g56
sVAttrStatus
p3810
I135269
sVStatues
p3811
I0
stp3812
Rp3813
I1
bag34
(g38
g39
(dp3814
VUserName
p3815
V@d736fcb8a110f759308d7ed6852792b993c6ac9eac4cd424d08054904641c13d
p3816
sVCity
p3817
V\u8861\u6c34
p3818
sVSnsFlag
p3819
I17
sVDisplayName
p3820
g56
sVUniFriend
p3821
I0
sVMemberCount
p3822
I0
sVOwnerUin
p3823
I0
sVMemberList
p3824
g52
sVAlias
p3825
g56
sVPYQuanPin
p3826
VzhuzaiTardis
p3827
sVSignature
p3828
V\u6211\u662f\u771f\u6ca1\u6709
p3829
sVRemarkPYInitial
p3830
VSDWFTXTJ
p3831
sVContactFlag
p3832
I3
sVUin
p3833
I0
sVNickName
p3834
V\u4f4f\u5728Tardis
p3835
sVAppAccountFlag
p3836
I0
sVVerifyFlag
p3837
I0
sVRemarkPYQuanPin
p3838
Vsandawangfeitongxintianjin
p3839
sVHeadImgUrl
p3840
V/cgi-bin/mmwebwx-bin/webwxgeticon?seq=662789184&username=@d736fcb8a110f759308d7ed6852792b993c6ac9eac4cd424d08054904641c13d&skey=@crypt_9c3dea4c_40bcca64877cc7f6d3ac377ba4298757
p3841
sVKeyWord
p3842
g56
sVProvince
p3843
V\u6cb3\u5317
p3844
sVPYInitial
p3845
VZZTARDIS
p3846
sVRemarkName
p3847
V\u4e09\u5927-\u738b\u98de-\u901a\u4fe1-\u5929\u6d25
p3848
sVIsOwner
p3849
I0
sVSex
p3850
I1
sVStarFriend
p3851
I0
sVHideInputBarFlag
p3852
I0
sVChatRoomId
p3853
I0
sVEncryChatRoomId
p3854
g56
sVAttrStatus
p3855
I4133
sVStatues
p3856
I0
stp3857
Rp3858
I1
bag34
(g38
g39
(dp3859
VUserName
p3860
V@be1adc5e395fc91d4cd100754dff1d9fe4ace9d19ab8ce4e71c355c425217a75
p3861
sVCity
p3862
V\u70df\u53f0
p3863
sVSnsFlag
p3864
I17
sVDisplayName
p3865
g56
sVUniFriend
p3866
I0
sVMemberCount
p3867
I0
sVOwnerUin
p3868
I0
sVMemberList
p3869
g52
sVAlias
p3870
g56
sVPYQuanPin
p3871
Vyingxue
p3872
sVSignature
p3873
V\u4e3b\u5185\u5e73\u5b89\uff01
p3874
sVRemarkPYInitial
p3875
VYWZXYT
p3876
sVContactFlag
p3877
I3
sVUin
p3878
I0
sVNickName
p3879
V\u6620\u96ea
p3880
sVAppAccountFlag
p3881
I0
sVVerifyFlag
p3882
I0
sVRemarkPYQuanPin
p3883
Vyiwangzhixianyantai
p3884
sVHeadImgUrl
p3885
V/cgi-bin/mmwebwx-bin/webwxgeticon?seq=620802226&username=@be1adc5e395fc91d4cd100754dff1d9fe4ace9d19ab8ce4e71c355c425217a75&skey=@crypt_9c3dea4c_40bcca64877cc7f6d3ac377ba4298757
p3886
sVKeyWord
p3887
g56
sVProvince
p3888
V\u5c71\u4e1c
p3889
sVPYInitial
p3890
VYX
p3891
sVRemarkName
p3892
V\u4f0a-\u738b\u5fd7\u8d24-\u70df\u53f0
p3893
sVIsOwner
p3894
I0
sVSex
p3895
I2
sVStarFriend
p3896
I0
sVHideInputBarFlag
p3897
I0
sVChatRoomId
p3898
I0
sVEncryChatRoomId
p3899
g56
sVAttrStatus
p3900
I36901
sVStatues
p3901
I0
stp3902
Rp3903
I1
bag34
(g38
g39
(dp3904
VUserName
p3905
V@4e298ed8925cec7fab7c38aac0e6b384
p3906
sVCity
p3907
V\u8861\u6c34
p3908
sVSnsFlag
p3909
I17
sVDisplayName
p3910
g56
sVUniFriend
p3911
I0
sVMemberCount
p3912
I0
sVOwnerUin
p3913
I0
sVMemberList
p3914
g52
sVAlias
p3915
g56
sVPYQuanPin
p3916
Vaijiasheying15030824925
p3917
sVSignature
p3918
g56
sVRemarkPYInitial
p3919
VXYLY
p3920
sVContactFlag
p3921
I1
sVUin
p3922
I0
sVNickName
p3923
V\u7231\u5bb6\u6444\u5f7115030824925
p3924
sVAppAccountFlag
p3925
I0
sVVerifyFlag
p3926
I0
sVRemarkPYQuanPin
p3927
Vxiuyuanliuyang
p3928
sVHeadImgUrl
p3929
V/cgi-bin/mmwebwx-bin/webwxgeticon?seq=662703705&username=@4e298ed8925cec7fab7c38aac0e6b384&skey=@crypt_9c3dea4c_40bcca64877cc7f6d3ac377ba4298757
p3930
sVKeyWord
p3931
VY90
p3932
sVProvince
p3933
V\u6cb3\u5317
p3934
sVPYInitial
p3935
VAJSY15030824925
p3936
sVRemarkName
p3937
V\u4fee\u9662-\u5218\u9633
p3938
sVIsOwner
p3939
I0
sVSex
p3940
I1
sVStarFriend
p3941
I0
sVHideInputBarFlag
p3942
I0
sVChatRoomId
p3943
I0
sVEncryChatRoomId
p3944
g56
sVAttrStatus
p3945
I4133
sVStatues
p3946
I0
stp3947
Rp3948
I1
bag34
(g38
g39
(dp3949
VUserName
p3950
V@5fbfa11e13df8bd8a087bced4c59bb93
p3951
sVCity
p3952
VraN9l_
p3953
sVSnsFlag
p3954
I49
sVDisplayName
p3955
g56
sVUniFriend
p3956
I0
sVMemberCount
p3957
I0
sVOwnerUin
p3958
I0
sVMemberList
p3959
g52
sVAlias
p3960
g56
sVPYQuanPin
p3961
Vhejinxi
p3962
sVSignature
p3963
V\u2026
p3964
sVRemarkPYInitial
p3965
VALHJX
p3966
sVContactFlag
p3967
I3
sVUin
p3968
I0
sVNickName
p3969
V\u8d3a\u4eca\u7199
p3970
sVAppAccountFlag
p3971
I0
sVVerifyFlag
p3972
I0
sVRemarkPYQuanPin
p3973
Vanlihejinxi
p3974
sVHeadImgUrl
p3975
V/cgi-bin/mmwebwx-bin/webwxgeticon?seq=628010774&username=@5fbfa11e13df8bd8a087bced4c59bb93&skey=@crypt_9c3dea4c_40bcca64877cc7f6d3ac377ba4298757
p3976
sVKeyWord
p3977
Vhjx
p3978
sVProvince
p3979
Vl_
p3980
sVPYInitial
p3981
VHJX
p3982
sVRemarkName
p3983
V\u5b89\u7406-\u8d3a\u4eca\u7199
p3984
sVIsOwner
p3985
I0
sVSex
p3986
I1
sVStarFriend
p3987
I0
sVHideInputBarFlag
p3988
I0
sVChatRoomId
p3989
I0
sVEncryChatRoomId
p3990
g56
sVAttrStatus
p3991
I242151
sVStatues
p3992
I0
stp3993
Rp3994
I1
bag34
(g38
g39
(dp3995
VUserName
p3996
V@a91b8a9838557c8d0b13b44d02a0c4df066e8393ca5b41205ad4acda8de0b989
p3997
sVCity
p3998
V\u8861\u6c34
p3999
sVSnsFlag
p4000
I145
sVDisplayName
p4001
g56
sVUniFriend
p4002
I0
sVMemberCount
p4003
I0
sVOwnerUin
p4004
I0
sVMemberList
p4005
g52
sVAlias
p4006
g56
sVPYQuanPin
p4007
Vzhenxiyuanfen
p4008
sVSignature
p4009
V\u4e13\u4e1a\u9632\u6c34\uff0c\u627f\u63fd\u9632\u6c34\u5de5\u7a0b\uff0c13012093226
p4010
sVRemarkPYInitial
p4011
VYWYC
p4012
sVContactFlag
p4013
I3
sVUin
p4014
I0
sVNickName
p4015
V\u73cd\u60dc\u7f18\u5206
p4016
sVAppAccountFlag
p4017
I0
sVVerifyFlag
p4018
I0
sVRemarkPYQuanPin
p4019
Vyiwangyucai
p4020
sVHeadImgUrl
p4021
V/cgi-bin/mmwebwx-bin/webwxgeticon?seq=662773056&username=@a91b8a9838557c8d0b13b44d02a0c4df066e8393ca5b41205ad4acda8de0b989&skey=@crypt_9c3dea4c_40bcca64877cc7f6d3ac377ba4298757
p4022
sVKeyWord
p4023
g56
sVProvince
p4024
V\u6cb3\u5317
p4025
sVPYInitial
p4026
VZXYF
p4027
sVRemarkName
p4028
V\u4f0a-\u738b\u7389\u624d
p4029
sVIsOwner
p4030
I0
sVSex
p4031
I1
sVStarFriend
p4032
I0
sVHideInputBarFlag
p4033
I0
sVChatRoomId
p4034
I0
sVEncryChatRoomId
p4035
g56
sVAttrStatus
p4036
I4257
sVStatues
p4037
I0
stp4038
Rp4039
I1
bag34
(g38
g39
(dp4040
VUserName
p4041
V@383add0464bf5a9736f0315b7b7f0022
p4042
sVCity
p4043
V\u77f3\u5bb6\u5e84
p4044
sVSnsFlag
p4045
I17
sVDisplayName
p4046
g56
sVUniFriend
p4047
I0
sVMemberCount
p4048
I0
sVOwnerUin
p4049
I0
sVMemberList
p4050
g52
sVAlias
p4051
g56
sVPYQuanPin
p4052
Vyongheng
p4053
sVSignature
p4054
V\u6211\u8fd8\u80fd\u8bf4\u4ec0\u4e48\u5462\uff1f\u6211\u81ea\u5df1\u90fd\u65e0\u8bed
p4055
sVRemarkPYInitial
p4056
VMJXNWX
p4057
sVContactFlag
p4058
I3
sVUin
p4059
I0
sVNickName
p4060
V\u6c38\u6052
p4061
sVAppAccountFlag
p4062
I0
sVVerifyFlag
p4063
I0
sVRemarkPYQuanPin
p4064
Vmujinxinianwangxiao
p4065
sVHeadImgUrl
p4066
V/cgi-bin/mmwebwx-bin/webwxgeticon?seq=662790806&username=@383add0464bf5a9736f0315b7b7f0022&skey=@crypt_9c3dea4c_40bcca64877cc7f6d3ac377ba4298757
p4067
sVKeyWord
p4068
Vwei
p4069
sVProvince
p4070
V\u6cb3\u5317
p4071
sVPYInitial
p4072
VYH
p4073
sVRemarkName
p4074
V\u6728\u69ff\u6614\u5e74\uff0d\u738b\u7b11
p4075
sVIsOwner
p4076
I0
sVSex
p4077
I2
sVStarFriend
p4078
I0
sVHideInputBarFlag
p4079
I0
sVChatRoomId
p4080
I0
sVEncryChatRoomId
p4081
g56
sVAttrStatus
p4082
I143463
sVStatues
p4083
I0
stp4084
Rp4085
I1
bag34
(g38
g39
(dp4086
VUserName
p4087
V@474a67671057a97cf112f42ce16a93eabb8091504ec91e5036cf995abe5c0e43
p4088
sVCity
p4089
V\u77f3\u5bb6\u5e84
p4090
sVSnsFlag
p4091
I17
sVDisplayName
p4092
g56
sVUniFriend
p4093
I0
sVMemberCount
p4094
I0
sVOwnerUin
p4095
I0
sVMemberList
p4096
g52
sVAlias
p4097
g56
sVPYQuanPin
p4098
Vqingfengliuyun
p4099
sVSignature
p4100
V\u505a\u4e00\u4e2a\u6de1\u6de1\u7684\u5973\u5b50
p4101
sVRemarkPYInitial
p4102
VSDLLY
p4103
sVContactFlag
p4104
I3
sVUin
p4105
I0
sVNickName
p4106
V\u6e05\u98ce\u6d41\u4e91
p4107
sVAppAccountFlag
p4108
I0
sVVerifyFlag
p4109
I0
sVRemarkPYQuanPin
p4110
Vsandaliulingyun
p4111
sVHeadImgUrl
p4112
V/cgi-bin/mmwebwx-bin/webwxgeticon?seq=662791053&username=@474a67671057a97cf112f42ce16a93eabb8091504ec91e5036cf995abe5c0e43&skey=@crypt_9c3dea4c_40bcca64877cc7f6d3ac377ba4298757
p4113
sVKeyWord
p4114
g56
sVProvince
p4115
V\u6cb3\u5317
p4116
sVPYInitial
p4117
VQFLY
p4118
sVRemarkName
p4119
V\u4e09\u5927-\u5218\u51cc\u4e91
p4120
sVIsOwner
p4121
I0
sVSex
p4122
I2
sVStarFriend
p4123
I0
sVHideInputBarFlag
p4124
I0
sVChatRoomId
p4125
I0
sVEncryChatRoomId
p4126
g56
sVAttrStatus
p4127
I4133
sVStatues
p4128
I0
stp4129
Rp4130
I1
bag34
(g38
g39
(dp4131
VUserName
p4132
V@7996e95215d7de13acbdfcc16f213f5a
p4133
sVCity
p4134
V\u4e1c\u57ce
p4135
sVSnsFlag
p4136
I17
sVDisplayName
p4137
g56
sVUniFriend
p4138
I0
sVMemberCount
p4139
I0
sVOwnerUin
p4140
I0
sVMemberList
p4141
g52
sVAlias
p4142
g56
sVPYQuanPin
p4143
VVIPKIDkechengguwenzhuguanPeterspanclassemojiemoji1f433span
p4144
sVSignature
p4145
V\u624b\u673a\u53f713311515218
p4146
sVRemarkPYInitial
p4147
VWZMKTYYJY
p4148
sVContactFlag
p4149
I3
sVUin
p4150
I0
sVNickName
p4151
VVIPKID\u8bfe\u7a0b\u987e\u95ee\u4e3b\u7ba1Peter\U0001f433
p4152
sVAppAccountFlag
p4153
I0
sVVerifyFlag
p4154
I0
sVRemarkPYQuanPin
p4155
Vwuzhongmaketaiyingyujiaoyu
p4156
sVHeadImgUrl
p4157
V/cgi-bin/mmwebwx-bin/webwxgeticon?seq=662791578&username=@7996e95215d7de13acbdfcc16f213f5a&skey=@crypt_9c3dea4c_40bcca64877cc7f6d3ac377ba4298757
p4158
sVKeyWord
p4159
Vmak
p4160
sVProvince
p4161
V\u5317\u4eac
p4162
sVPYInitial
p4163
VVIPKIDKCGWZGPETERSPANCLASSEMOJIEMOJI1F433SPAN
p4164
sVRemarkName
p4165
V\u6b66\u4e2d-\u9a6c\u79d1\u6cf0-\u82f1\u8bed\u6559\u80b2
p4166
sVIsOwner
p4167
I0
sVSex
p4168
I1
sVStarFriend
p4169
I0
sVHideInputBarFlag
p4170
I0
sVChatRoomId
p4171
I0
sVEncryChatRoomId
p4172
g56
sVAttrStatus
p4173
I99365
sVStatues
p4174
I0
stp4175
Rp4176
I1
bag34
(g38
g39
(dp4177
VUserName
p4178
V@9032fba486aa21b1dca5e3bb0273e6a875885d39632d5304a3484d205f48513f
p4179
sVCity
p4180
g56
sVSnsFlag
p4181
I17
sVDisplayName
p4182
g56
sVUniFriend
p4183
I0
sVMemberCount
p4184
I0
sVOwnerUin
p4185
I0
sVMemberList
p4186
g52
sVAlias
p4187
g56
sVPYQuanPin
p4188
Vaimilier
p4189
sVSignature
p4190
V\u6211\u8be5\u4e0b\u5b9a\u51b3\u5fc3\u4e86\u5427\uff1f\uff01
p4191
sVRemarkPYInitial
p4192
VBHCMM01
p4193
sVContactFlag
p4194
I3
sVUin
p4195
I0
sVNickName
p4196
V\u7231\u7c73\u7c92\u513f
p4197
sVAppAccountFlag
p4198
I0
sVVerifyFlag
p4199
I0
sVRemarkPYQuanPin
p4200
Vbinhecuimengmeng01
p4201
sVHeadImgUrl
p4202
V/cgi-bin/mmwebwx-bin/webwxgeticon?seq=662768192&username=@9032fba486aa21b1dca5e3bb0273e6a875885d39632d5304a3484d205f48513f&skey=@crypt_9c3dea4c_40bcca64877cc7f6d3ac377ba4298757
p4203
sVKeyWord
p4204
g56
sVProvince
p4205
g56
sVPYInitial
p4206
VAMLE
p4207
sVRemarkName
p4208
V\u6ee8\u6cb3-\u5d14\u8499\u8499-01
p4209
sVIsOwner
p4210
I0
sVSex
p4211
I2
sVStarFriend
p4212
I0
sVHideInputBarFlag
p4213
I0
sVChatRoomId
p4214
I0
sVEncryChatRoomId
p4215
g56
sVAttrStatus
p4216
I33731685
sVStatues
p4217
I0
stp4218
Rp4219
I1
bag34
(g38
g39
(dp4220
VUserName
p4221
V@3ded2508787bb6c84b54fb776598f647
p4222
sVCity
p4223
V\u9a6c\u978d\u5c71
p4224
sVSnsFlag
p4225
I17
sVDisplayName
p4226
g56
sVUniFriend
p4227
I0
sVMemberCount
p4228
I0
sVOwnerUin
p4229
I0
sVMemberList
p4230
g52
sVAlias
p4231
g56
sVPYQuanPin
p4232
Vyulinjun
p4233
sVSignature
p4234
V\u6c34\u53ef\u8f7d\u821f\uff0c\u4ea6\u53ef\u8d5b\u8247
p4235
sVRemarkPYInitial
p4236
VALFY
p4237
sVContactFlag
p4238
I3
sVUin
p4239
I0
sVNickName
p4240
V\u5fa1\u6797\u83cc
p4241
sVAppAccountFlag
p4242
I0
sVVerifyFlag
p4243
I0
sVRemarkPYQuanPin
p4244
Vanlifangyu
p4245
sVHeadImgUrl
p4246
V/cgi-bin/mmwebwx-bin/webwxgeticon?seq=662792065&username=@3ded2508787bb6c84b54fb776598f647&skey=@crypt_9c3dea4c_40bcca64877cc7f6d3ac377ba4298757
p4247
sVKeyWord
p4248
Vfan
p4249
sVProvince
p4250
V\u5b89\u5fbd
p4251
sVPYInitial
p4252
VYLJ
p4253
sVRemarkName
p4254
V\u5b89\u7406-\u65b9\u6631
p4255
sVIsOwner
p4256
I0
sVSex
p4257
I1
sVStarFriend
p4258
I0
sVHideInputBarFlag
p4259
I0
sVChatRoomId
p4260
I0
sVEncryChatRoomId
p4261
g56
sVAttrStatus
p4262
I99263
sVStatues
p4263
I0
stp4264
Rp4265
I1
bag34
(g38
g39
(dp4266
VUserName
p4267
V@4d1db64fc4735000cc258b31cd66fedcefaebf611a5fee81924c819679dcf18b
p4268
sVCity
p4269
V\u6dee\u5357
p4270
sVSnsFlag
p4271
I17
sVDisplayName
p4272
g56
sVUniFriend
p4273
I0
sVMemberCount
p4274
I0
sVOwnerUin
p4275
I0
sVMemberList
p4276
g52
sVAlias
p4277
g56
sVPYQuanPin
p4278
Vchengjian
p4279
sVSignature
p4280
g56
sVRemarkPYInitial
p4281
VALCJ
p4282
sVContactFlag
p4283
I3
sVUin
p4284
I0
sVNickName
p4285
V\u7a0b\u9a9e
p4286
sVAppAccountFlag
p4287
I0
sVVerifyFlag
p4288
I0
sVRemarkPYQuanPin
p4289
Vanlichengjian
p4290
sVHeadImgUrl
p4291
V/cgi-bin/mmwebwx-bin/webwxgeticon?seq=662756288&username=@4d1db64fc4735000cc258b31cd66fedcefaebf611a5fee81924c819679dcf18b&skey=@crypt_9c3dea4c_40bcca64877cc7f6d3ac377ba4298757
p4292
sVKeyWord
p4293
g56
sVProvince
p4294
V\u5b89\u5fbd
p4295
sVPYInitial
p4296
VCJ
p4297
sVRemarkName
p4298
V\u5b89\u7406-\u7a0b\u9a9e
p4299
sVIsOwner
p4300
I0
sVSex
p4301
I2
sVStarFriend
p4302
I0
sVHideInputBarFlag
p4303
I0
sVChatRoomId
p4304
I0
sVEncryChatRoomId
p4305
g56
sVAttrStatus
p4306
I102437
sVStatues
p4307
I0
stp4308
Rp4309
I1
bag34
(g38
g39
(dp4310
VUserName
p4311
V@b48a075a3a1bacc65cc8bd4650cf8cdafbf3e48519ab89c637bbff431c03bfcd
p4312
sVCity
p4313
V\u660c\u5e73
p4314
sVSnsFlag
p4315
I17
sVDisplayName
p4316
g56
sVUniFriend
p4317
I0
sVMemberCount
p4318
I0
sVOwnerUin
p4319
I0
sVMemberList
p4320
g52
sVAlias
p4321
g56
sVPYQuanPin
p4322
Vshizixiaoxi
p4323
sVSignature
p4324
VFiat Lux.
p4325
sVRemarkPYInitial
p4326
VYZXNYYBJ
p4327
sVContactFlag
p4328
I8195
sVUin
p4329
I0
sVNickName
p4330
V\u5341\u5b57\u5c0f\u6eaa
p4331
sVAppAccountFlag
p4332
I0
sVVerifyFlag
p4333
I0
sVRemarkPYQuanPin
p4334
Vyizhangxiaonayingyubeijing
p4335
sVHeadImgUrl
p4336
V/cgi-bin/mmwebwx-bin/webwxgeticon?seq=662703684&username=@b48a075a3a1bacc65cc8bd4650cf8cdafbf3e48519ab89c637bbff431c03bfcd&skey=@crypt_9c3dea4c_40bcca64877cc7f6d3ac377ba4298757
p4337
sVKeyWord
p4338
g56
sVProvince
p4339
V\u5317\u4eac
p4340
sVPYInitial
p4341
VSZXX
p4342
sVRemarkName
p4343
V\u4f0a-\u5f20\u6653\u5a1c-\u82f1\u8bed-\u5317\u4eac
p4344
sVIsOwner
p4345
I0
sVSex
p4346
I1
sVStarFriend
p4347
I0
sVHideInputBarFlag
p4348
I0
sVChatRoomId
p4349
I0
sVEncryChatRoomId
p4350
g56
sVAttrStatus
p4351
I98661
sVStatues
p4352
I0
stp4353
Rp4354
I1
bag34
(g38
g39
(dp4355
VUserName
p4356
V@ec6956cf9ae2f7e695c08ba0d39ab96c3a33f848160e989c0a75e0684328ecde
p4357
sVCity
p4358
g56
sVSnsFlag
p4359
I1
sVDisplayName
p4360
g56
sVUniFriend
p4361
I0
sVMemberCount
p4362
I0
sVOwnerUin
p4363
I0
sVMemberList
p4364
g52
sVAlias
p4365
g56
sVPYQuanPin
p4366
Vgangliang
p4367
sVSignature
p4368
V\u6ca7\u6d77\u4e00\u7b11\uff0c\u4e8e\u7e41\u534e\u843d\u5c3d\u6d17\u5c3d\u94c5\u534e\uff0c\u4e0d\u95fb\u5343\u5c71\u66ae\u96ea\u6697\u9999\u6d6e\u6e38
p4369
sVRemarkPYInitial
p4370
VALGL
p4371
sVContactFlag
p4372
I3
sVUin
p4373
I0
sVNickName
p4374
V\u92fc\u6881
p4375
sVAppAccountFlag
p4376
I0
sVVerifyFlag
p4377
I0
sVRemarkPYQuanPin
p4378
Vanligangliang
p4379
sVHeadImgUrl
p4380
V/cgi-bin/mmwebwx-bin/webwxgeticon?seq=647560553&username=@ec6956cf9ae2f7e695c08ba0d39ab96c3a33f848160e989c0a75e0684328ecde&skey=@crypt_9c3dea4c_40bcca64877cc7f6d3ac377ba4298757
p4381
sVKeyWord
p4382
g56
sVProvince
p4383
g56
sVPYInitial
p4384
VGL
p4385
sVRemarkName
p4386
V\u5b89\u7406-\u521a\u826f
p4387
sVIsOwner
p4388
I0
sVSex
p4389
I1
sVStarFriend
p4390
I0
sVHideInputBarFlag
p4391
I0
sVChatRoomId
p4392
I0
sVEncryChatRoomId
p4393
g56
sVAttrStatus
p4394
I17015679
sVStatues
p4395
I0
stp4396
Rp4397
I1
bag34
(g38
g39
(dp4398
VUserName
p4399
V@339da9e229d96cb2834ba45af0ee50e1
p4400
sVCity
p4401
V\u676d\u5dde
p4402
sVSnsFlag
p4403
I49
sVDisplayName
p4404
g56
sVUniFriend
p4405
I0
sVMemberCount
p4406
I0
sVOwnerUin
p4407
I0
sVMemberList
p4408
g52
sVAlias
p4409
g56
sVPYQuanPin
p4410
Vduola
p4411
sVSignature
p4412
V\u81ea\u6211\u8fed\u4ee3\u8005
p4413
sVRemarkPYInitial
p4414
VHKTQHR
p4415
sVContactFlag
p4416
I3
sVUin
p4417
I0
sVNickName
p4418
V\u6735\u62c9
p4419
sVAppAccountFlag
p4420
I0
sVVerifyFlag
p4421
I0
sVRemarkPYQuanPin
p4422
VhaiketangqianHR
p4423
sVHeadImgUrl
p4424
V/cgi-bin/mmwebwx-bin/webwxgeticon?seq=662793260&username=@339da9e229d96cb2834ba45af0ee50e1&skey=@crypt_9c3dea4c_40bcca64877cc7f6d3ac377ba4298757
p4425
sVKeyWord
p4426
Vtan
p4427
sVProvince
p4428
V\u6d59\u6c5f
p4429
sVPYInitial
p4430
VDL
p4431
sVRemarkName
p4432
V\u6c26\u6c2a-\u5510\u5029--HR
p4433
sVIsOwner
p4434
I0
sVSex
p4435
I2
sVStarFriend
p4436
I0
sVHideInputBarFlag
p4437
I0
sVChatRoomId
p4438
I0
sVEncryChatRoomId
p4439
g56
sVAttrStatus
p4440
I229687
sVStatues
p4441
I0
stp4442
Rp4443
I1
bag34
(g38
g39
(dp4444
VUserName
p4445
V@90337813447a773e87d34241a12a8a55
p4446
sVCity
p4447
V\u5e38\u5dde
p4448
sVSnsFlag
p4449
I49
sVDisplayName
p4450
g56
sVUniFriend
p4451
I0
sVMemberCount
p4452
I0
sVOwnerUin
p4453
I0
sVMemberList
p4454
g52
sVAlias
p4455
g56
sVPYQuanPin
p4456
VBOBBYspanclassemojiemoji1f388span
p4457
sVSignature
p4458
V\u6211\u80fd\u60f3\u5230\u6700\u6d6a\u6f2b\u7684\u4e8b\uff0c\u5c31\u662f\u548c\u4f60\u4e00\u8d77\u653e\u5f03\u6cbb\u7597\u2026
p4459
sVRemarkPYInitial
p4460
VMTCBQDCZ
p4461
sVContactFlag
p4462
I3
sVUin
p4463
I0
sVNickName
p4464
VBOBBY\U0001f388
p4465
sVAppAccountFlag
p4466
I0
sVVerifyFlag
p4467
I0
sVRemarkPYQuanPin
p4468
Vmaitianchenbinqianduanchangzhou
p4469
sVHeadImgUrl
p4470
V/cgi-bin/mmwebwx-bin/webwxgeticon?seq=662793348&username=@90337813447a773e87d34241a12a8a55&skey=@crypt_9c3dea4c_40bcca64877cc7f6d3ac377ba4298757
p4471
sVKeyWord
p4472
Vlun
p4473
sVProvince
p4474
V\u6c5f\u82cf
p4475
sVPYInitial
p4476
VBOBBYSPANCLASSEMOJIEMOJI1F388SPAN
p4477
sVRemarkName
p4478
V\u9ea6\u7530-\u9648\u658c-\u524d\u7aef-\u5e38\u5dde
p4479
sVIsOwner
p4480
I0
sVSex
p4481
I1
sVStarFriend
p4482
I0
sVHideInputBarFlag
p4483
I0
sVChatRoomId
p4484
I0
sVEncryChatRoomId
p4485
g56
sVAttrStatus
p4486
I106623
sVStatues
p4487
I0
stp4488
Rp4489
I1
bag34
(g38
g39
(dp4490
VUserName
p4491
V@d772b34c23b9845b8f2a018d27c59f2f99815b44b76a799ed55bebdac518d9d2
p4492
sVCity
p4493
V\u6dee\u5357
p4494
sVSnsFlag
p4495
I17
sVDisplayName
p4496
g56
sVUniFriend
p4497
I0
sVMemberCount
p4498
I0
sVOwnerUin
p4499
I0
sVMemberList
p4500
g52
sVAlias
p4501
g56
sVPYQuanPin
p4502
Vjingtianxin
p4503
sVSignature
p4504
g56
sVRemarkPYInitial
p4505
VALLYJ
p4506
sVContactFlag
p4507
I3
sVUin
p4508
I0
sVNickName
p4509
V\u955c\u5929\u5fc3
p4510
sVAppAccountFlag
p4511
I0
sVVerifyFlag
p4512
I0
sVRemarkPYQuanPin
p4513
Vanliliyuanju
p4514
sVHeadImgUrl
p4515
V/cgi-bin/mmwebwx-bin/webwxgeticon?seq=662793379&username=@d772b34c23b9845b8f2a018d27c59f2f99815b44b76a799ed55bebdac518d9d2&skey=@crypt_9c3dea4c_40bcca64877cc7f6d3ac377ba4298757
p4516
sVKeyWord
p4517
g56
sVProvince
p4518
V\u5b89\u5fbd
p4519
sVPYInitial
p4520
VJTX
p4521
sVRemarkName
p4522
V\u5b89\u7406-\u9ece\u8fdc\u83ca
p4523
sVIsOwner
p4524
I0
sVSex
p4525
I2
sVStarFriend
p4526
I0
sVHideInputBarFlag
p4527
I0
sVChatRoomId
p4528
I0
sVEncryChatRoomId
p4529
g56
sVAttrStatus
p4530
I17008509
sVStatues
p4531
I0
stp4532
Rp4533
I1
bag34
(g38
g39
(dp4534
VUserName
p4535
V@2828811d8f7efe5e41020c0d860f155b60db3987e95e8d8159db618e1537ac78
p4536
sVCity
p4537
V\u4fdd\u5b9a
p4538
sVSnsFlag
p4539
I49
sVDisplayName
p4540
g56
sVUniFriend
p4541
I0
sVMemberCount
p4542
I0
sVOwnerUin
p4543
I0
sVMemberList
p4544
g52
sVAlias
p4545
g56
sVPYQuanPin
p4546
Vtaoyuanjinsi
p4547
sVSignature
p4548
g56
sVRemarkPYInitial
p4549
VWZWZWQCWX
p4550
sVContactFlag
p4551
I3
sVUin
p4552
I0
sVNickName
p4553
V\u6843\u56ed\u91d1\u4e1d
p4554
sVAppAccountFlag
p4555
I0
sVVerifyFlag
p4556
I0
sVRemarkPYQuanPin
p4557
Vwuzhongwangzhiweiqicheweixiu
p4558
sVHeadImgUrl
p4559
V/cgi-bin/mmwebwx-bin/webwxgeticon?seq=662793460&username=@2828811d8f7efe5e41020c0d860f155b60db3987e95e8d8159db618e1537ac78&skey=@crypt_9c3dea4c_40bcca64877cc7f6d3ac377ba4298757
p4560
sVKeyWord
p4561
g56
sVProvince
p4562
V\u6cb3\u5317
p4563
sVPYInitial
p4564
VTYJS
p4565
sVRemarkName
p4566
V\u6b66\u4e2d-\u738b\u5fd7\u4f1f-\u6c7d\u8f66\u7ef4\u4fee
p4567
sVIsOwner
p4568
I0
sVSex
p4569
I1
sVStarFriend
p4570
I0
sVHideInputBarFlag
p4571
I0
sVChatRoomId
p4572
I0
sVEncryChatRoomId
p4573
g56
sVAttrStatus
p4574
I104485
sVStatues
p4575
I0
stp4576
Rp4577
I1
bag34
(g38
g39
(dp4578
VUserName
p4579
V@02b911da8d47208d2113bdb552b1cead03509f998645cb8778c69dd9522a6365
p4580
sVCity
p4581
V\u6d66\u4e1c\u65b0\u533a
p4582
sVSnsFlag
p4583
I49
sVDisplayName
p4584
g56
sVUniFriend
p4585
I0
sVMemberCount
p4586
I0
sVOwnerUin
p4587
I0
sVMemberList
p4588
g52
sVAlias
p4589
g56
sVPYQuanPin
p4590
Vmenghuan
p4591
sVSignature
p4592
g56
sVRemarkPYInitial
p4593
VALYWF
p4594
sVContactFlag
p4595
I3
sVUin
p4596
I0
sVNickName
p4597
V\u68a6\u5e7b
p4598
sVAppAccountFlag
p4599
I0
sVVerifyFlag
p4600
I0
sVRemarkPYQuanPin
p4601
Vanliyuwangfang
p4602
sVHeadImgUrl
p4603
V/cgi-bin/mmwebwx-bin/webwxgeticon?seq=647565845&username=@02b911da8d47208d2113bdb552b1cead03509f998645cb8778c69dd9522a6365&skey=@crypt_9c3dea4c_40bcca64877cc7f6d3ac377ba4298757
p4604
sVKeyWord
p4605
g56
sVProvince
p4606
V\u4e0a\u6d77
p4607
sVPYInitial
p4608
VMH
p4609
sVRemarkName
p4610
V\u5b89\u7406-\u4f59\u738b\u65b9
p4611
sVIsOwner
p4612
I0
sVSex
p4613
I1
sVStarFriend
p4614
I0
sVHideInputBarFlag
p4615
I0
sVChatRoomId
p4616
I0
sVEncryChatRoomId
p4617
g56
sVAttrStatus
p4618
I102501
sVStatues
p4619
I0
stp4620
Rp4621
I1
bag34
(g38
g39
(dp4622
VUserName
p4623
V@2dad7bc98015b3f9fe9117d01136faf3
p4624
sVCity
p4625
V\u676d\u5dde
p4626
sVSnsFlag
p4627
I17
sVDisplayName
p4628
g56
sVUniFriend
p4629
I0
sVMemberCount
p4630
I0
sVOwnerUin
p4631
I0
sVMemberList
p4632
g52
sVAlias
p4633
g56
sVPYQuanPin
p4634
VLispanclassemojiemoji1f43espan
p4635
sVSignature
p4636
V\u5fcd\u4f4f\u4f60\u7684\u75db\u82e6\uff0c\u4e0d\u53d1\u4e00\u8bed\uff0c\u7a7f\u8fc7\u8fd9\u6574\u5ea7\u57ce\u5e02......
p4637
sVRemarkPYInitial
p4638
VHKMXLQD
p4639
sVContactFlag
p4640
I3
sVUin
p4641
I0
sVNickName
p4642
VLi\U0001f43e
p4643
sVAppAccountFlag
p4644
I0
sVVerifyFlag
p4645
I0
sVRemarkPYQuanPin
p4646
Vhaikemaxiaoliqianduan
p4647
sVHeadImgUrl
p4648
V/cgi-bin/mmwebwx-bin/webwxgeticon?seq=662713715&username=@2dad7bc98015b3f9fe9117d01136faf3&skey=@crypt_9c3dea4c_40bcca64877cc7f6d3ac377ba4298757
p4649
sVKeyWord
p4650
Vmax
p4651
sVProvince
p4652
V\u6d59\u6c5f
p4653
sVPYInitial
p4654
VLISPANCLASSEMOJIEMOJI1F43ESPAN
p4655
sVRemarkName
p4656
V\u6c26\u6c2a-\u9a6c\u5c0f\u4e3d-\u524d\u7aef
p4657
sVIsOwner
p4658
I0
sVSex
p4659
I2
sVStarFriend
p4660
I0
sVHideInputBarFlag
p4661
I0
sVChatRoomId
p4662
I0
sVEncryChatRoomId
p4663
g56
sVAttrStatus
p4664
I17018981
sVStatues
p4665
I0
stp4666
Rp4667
I1
bag34
(g38
g39
(dp4668
VUserName
p4669
V@959d92066dd528ace381adfd938beb63
p4670
sVCity
p4671
V\u676d\u5dde
p4672
sVSnsFlag
p4673
I49
sVDisplayName
p4674
g56
sVUniFriend
p4675
I0
sVMemberCount
p4676
I0
sVOwnerUin
p4677
I0
sVMemberList
p4678
g52
sVAlias
p4679
g56
sVPYQuanPin
p4680
Vhuabutoujixianchengduo
p4681
sVSignature
p4682
g56
sVRemarkPYInitial
p4683
VHWSQYHSB
p4684
sVContactFlag
p4685
I3
sVUin
p4686
I0
sVNickName
p4687
V\u8bdd\u4e0d\u6295\u673a\u9c9c\u6a59\u591a
p4688
sVAppAccountFlag
p4689
I0
sVVerifyFlag
p4690
I0
sVRemarkPYQuanPin
p4691
Vhangwangshiqiyouhushebei
p4692
sVHeadImgUrl
p4693
V/cgi-bin/mmwebwx-bin/webwxgeticon?seq=662717814&username=@959d92066dd528ace381adfd938beb63&skey=@crypt_9c3dea4c_40bcca64877cc7f6d3ac377ba4298757
p4694
sVKeyWord
p4695
Vwsq
p4696
sVProvince
p4697
V\u6d59\u6c5f
p4698
sVPYInitial
p4699
VHBTJXCD
p4700
sVRemarkName
p4701
V\u676d-\u738b\u4e16\u7426-\u6e38\u620f\u8bbe\u5907
p4702
sVIsOwner
p4703
I0
sVSex
p4704
I1
sVStarFriend
p4705
I0
sVHideInputBarFlag
p4706
I0
sVChatRoomId
p4707
I0
sVEncryChatRoomId
p4708
g56
sVAttrStatus
p4709
I67623
sVStatues
p4710
I0
stp4711
Rp4712
I1
bag34
(g38
g39
(dp4713
VUserName
p4714
V@1a2292e18a92cf2a7ef916ff03325b3f9cedc310af58b9f8e60e4487046a0f5b
p4715
sVCity
p4716
g56
sVSnsFlag
p4717
I1
sVDisplayName
p4718
g56
sVUniFriend
p4719
I0
sVMemberCount
p4720
I0
sVOwnerUin
p4721
I0
sVMemberList
p4722
g52
sVAlias
p4723
g56
sVPYQuanPin
p4724
Vhuangsanlian
p4725
sVSignature
p4726
V\u5f00\u5fc3\u6bcf\u4e00\u5929
p4727
sVRemarkPYInitial
p4728
VXHLHSLPABXWZ
p4729
sVContactFlag
p4730
I3
sVUin
p4731
I0
sVNickName
p4732
V\u9ec4\u4e09\u8fde
p4733
sVAppAccountFlag
p4734
I0
sVVerifyFlag
p4735
I0
sVRemarkPYQuanPin
p4736
Vxihulinhuangsanlianpinganbaoxianwenzhou
p4737
sVHeadImgUrl
p4738
V/cgi-bin/mmwebwx-bin/webwxgeticon?seq=662762818&username=@1a2292e18a92cf2a7ef916ff03325b3f9cedc310af58b9f8e60e4487046a0f5b&skey=@crypt_9c3dea4c_40bcca64877cc7f6d3ac377ba4298757
p4739
sVKeyWord
p4740
g56
sVProvince
p4741
g56
sVPYInitial
p4742
VHSL
p4743
sVRemarkName
p4744
V\u897f\u80e1\u6797-\u9ec4\u4e09\u8fde-\u5e73\u5b89\u4fdd\u9669-\u6e29\u5dde
p4745
sVIsOwner
p4746
I0
sVSex
p4747
I2
sVStarFriend
p4748
I0
sVHideInputBarFlag
p4749
I0
sVChatRoomId
p4750
I0
sVEncryChatRoomId
p4751
g56
sVAttrStatus
p4752
I102437
sVStatues
p4753
I0
stp4754
Rp4755
I1
bag34
(g38
g39
(dp4756
VUserName
p4757
V@65e2e5a8b5deaaeccb30ef5e66fe1b0d050581f46defceef35108c9c8fde4220
p4758
sVCity
p4759
V\u77f3\u5bb6\u5e84
p4760
sVSnsFlag
p4761
I17
sVDisplayName
p4762
g56
sVUniFriend
p4763
I0
sVMemberCount
p4764
I0
sVOwnerUin
p4765
I0
sVMemberList
p4766
g52
sVAlias
p4767
g56
sVPYQuanPin
p4768
Vsaiyu
p4769
sVSignature
p4770
g56
sVRemarkPYInitial
p4771
VSCSYZH
p4772
sVContactFlag
p4773
I3
sVUin
p4774
I0
sVNickName
p4775
V\u601d\u96e8
p4776
sVAppAccountFlag
p4777
I0
sVVerifyFlag
p4778
I0
sVRemarkPYQuanPin
p4779
Vshichensaiyuzihua
p4780
sVHeadImgUrl
p4781
V/cgi-bin/mmwebwx-bin/webwxgeticon?seq=662712725&username=@65e2e5a8b5deaaeccb30ef5e66fe1b0d050581f46defceef35108c9c8fde4220&skey=@crypt_9c3dea4c_40bcca64877cc7f6d3ac377ba4298757
p4782
sVKeyWord
p4783
g56
sVProvince
p4784
V\u6cb3\u5317
p4785
sVPYInitial
p4786
VSY
p4787
sVRemarkName
p4788
V\u77f3-\u9648\u601d\u96e8-\u5b57\u753b
p4789
sVIsOwner
p4790
I0
sVSex
p4791
I2
sVStarFriend
p4792
I0
sVHideInputBarFlag
p4793
I0
sVChatRoomId
p4794
I0
sVEncryChatRoomId
p4795
g56
sVAttrStatus
p4796
I4133
sVStatues
p4797
I0
stp4798
Rp4799
I1
bag34
(g38
g39
(dp4800
VUserName
p4801
V@51b74bb6c85d42bfd6a9e4e82a2f5c2bbb473d163044a3cd13611b673649b869
p4802
sVCity
p4803
V\u671d\u9633
p4804
sVSnsFlag
p4805
I145
sVDisplayName
p4806
g56
sVUniFriend
p4807
I0
sVMemberCount
p4808
I0
sVOwnerUin
p4809
I0
sVMemberList
p4810
g52
sVAlias
p4811
g56
sVPYQuanPin
p4812
Vtaohuakai
p4813
sVSignature
p4814
V\u5f00\u5fc3\u5feb\u4e50\u6bcf\u4e00\u5929
p4815
sVRemarkPYInitial
p4816
VYWZT
p4817
sVContactFlag
p4818
I3
sVUin
p4819
I0
sVNickName
p4820
V\u6843\u82b1\u5f00
p4821
sVAppAccountFlag
p4822
I0
sVVerifyFlag
p4823
I0
sVRemarkPYQuanPin
p4824
Vyiwangzhitao
p4825
sVHeadImgUrl
p4826
V/cgi-bin/mmwebwx-bin/webwxgeticon?seq=662712539&username=@51b74bb6c85d42bfd6a9e4e82a2f5c2bbb473d163044a3cd13611b673649b869&skey=@crypt_9c3dea4c_40bcca64877cc7f6d3ac377ba4298757
p4827
sVKeyWord
p4828
g56
sVProvince
p4829
V\u5317\u4eac
p4830
sVPYInitial
p4831
VTHK
p4832
sVRemarkName
p4833
V\u4f0a-\u738b\u5fd7\u6d9b
p4834
sVIsOwner
p4835
I0
sVSex
p4836
I1
sVStarFriend
p4837
I0
sVHideInputBarFlag
p4838
I0
sVChatRoomId
p4839
I0
sVEncryChatRoomId
p4840
g56
sVAttrStatus
p4841
I16781413
sVStatues
p4842
I0
stp4843
Rp4844
I1
bag34
(g38
g39
(dp4845
VUserName
p4846
V@7a0d7cf0ec3347fd9aec87c0a469437474aefe516230655c3ce60e05e720d1a2
p4847
sVCity
p4848
V\u6e29\u5dde
p4849
sVSnsFlag
p4850
I177
sVDisplayName
p4851
g56
sVUniFriend
p4852
I0
sVMemberCount
p4853
I0
sVOwnerUin
p4854
I0
sVMemberList
p4855
g52
sVAlias
p4856
g56
sVPYQuanPin
p4857
Vriyaomifei
p4858
sVSignature
p4859
g56
sVRemarkPYInitial
p4860
VMTZXMHR
p4861
sVContactFlag
p4862
I3
sVUin
p4863
I0
sVNickName
p4864
V\u65e5\u7476-\u7c73\u83f2
p4865
sVAppAccountFlag
p4866
I0
sVVerifyFlag
p4867
I0
sVRemarkPYQuanPin
p4868
Vmaitianzhangxiaomeihr
p4869
sVHeadImgUrl
p4870
V/cgi-bin/mmwebwx-bin/webwxgeticon?seq=662746015&username=@7a0d7cf0ec3347fd9aec87c0a469437474aefe516230655c3ce60e05e720d1a2&skey=@crypt_9c3dea4c_40bcca64877cc7f6d3ac377ba4298757
p4871
sVKeyWord
p4872
Vzha
p4873
sVProvince
p4874
V\u6d59\u6c5f
p4875
sVPYInitial
p4876
VRYMF
p4877
sVRemarkName
p4878
V\u9ea6\u7530-\u5f20\u6653\u6885-hr
p4879
sVIsOwner
p4880
I0
sVSex
p4881
I2
sVStarFriend
p4882
I0
sVHideInputBarFlag
p4883
I0
sVChatRoomId
p4884
I0
sVEncryChatRoomId
p4885
g56
sVAttrStatus
p4886
I229629
sVStatues
p4887
I0
stp4888
Rp4889
I1
bag34
(g38
g39
(dp4890
VUserName
p4891
V@64399eaa6b7e12f18ec6105fc6e65177
p4892
sVCity
p4893
g56
sVSnsFlag
p4894
I17
sVDisplayName
p4895
g56
sVUniFriend
p4896
I0
sVMemberCount
p4897
I0
sVOwnerUin
p4898
I0
sVMemberList
p4899
g52
sVAlias
p4900
g56
sVPYQuanPin
p4901
Vamituofomemeda
p4902
sVSignature
p4903
g56
sVRemarkPYInitial
p4904
VWZTXTYX
p4905
sVContactFlag
p4906
I3
sVUin
p4907
I0
sVNickName
p4908
V\u963f\u5f25\u9640\u4f5b\u4e48\u4e48\u54d2
p4909
sVAppAccountFlag
p4910
I0
sVVerifyFlag
p4911
I0
sVRemarkPYQuanPin
p4912
Vwuzhongtianxiaotongyixue
p4913
sVHeadImgUrl
p4914
V/cgi-bin/mmwebwx-bin/webwxgeticon?seq=662794446&username=@64399eaa6b7e12f18ec6105fc6e65177&skey=@crypt_9c3dea4c_40bcca64877cc7f6d3ac377ba4298757
p4915
sVKeyWord
p4916
Vtia
p4917
sVProvince
p4918
g56
sVPYInitial
p4919
VAMTFMMD
p4920
sVRemarkName
p4921
V\u6b66\u4e2d-\u7530\u6653\u5f64-\u533b\u5b66
p4922
sVIsOwner
p4923
I0
sVSex
p4924
I1
sVStarFriend
p4925
I0
sVHideInputBarFlag
p4926
I0
sVChatRoomId
p4927
I0
sVEncryChatRoomId
p4928
g56
sVAttrStatus
p4929
I106599
sVStatues
p4930
I0
stp4931
Rp4932
I1
bag34
(g38
g39
(dp4933
VUserName
p4934
V@152ead89344424028720abcb79afb6aa37cfa0e87256d48778f391786a1df496
p4935
sVCity
p4936
V\u8861\u6c34
p4937
sVSnsFlag
p4938
I17
sVDisplayName
p4939
g56
sVUniFriend
p4940
I0
sVMemberCount
p4941
I0
sVOwnerUin
p4942
I0
sVMemberList
p4943
g52
sVAlias
p4944
g56
sVPYQuanPin
p4945
Vmengtian
p4946
sVSignature
p4947
V\u70ed\u7231\u751f\u6d3b
p4948
sVRemarkPYInitial
p4949
VXYSMLYWHS
p4950
sVContactFlag
p4951
I1
sVUin
p4952
I0
sVNickName
p4953
V\u68a6\u7530
p4954
sVAppAccountFlag
p4955
I0
sVVerifyFlag
p4956
I0
sVRemarkPYQuanPin
p4957
Vxiuyuansunmeiliyuwenhengshui
p4958
sVHeadImgUrl
p4959
V/cgi-bin/mmwebwx-bin/webwxgeticon?seq=662795283&username=@152ead89344424028720abcb79afb6aa37cfa0e87256d48778f391786a1df496&skey=@crypt_9c3dea4c_40bcca64877cc7f6d3ac377ba4298757
p4960
sVKeyWord
p4961
g56
sVProvince
p4962
V\u6cb3\u5317
p4963
sVPYInitial
p4964
VMT
p4965
sVRemarkName
p4966
V\u4fee\u9662-\u5b59\u6885\u4e3d-\u8bed\u6587-\u8861\u6c34
p4967
sVIsOwner
p4968
I0
sVSex
p4969
I2
sVStarFriend
p4970
I0
sVHideInputBarFlag
p4971
I0
sVChatRoomId
p4972
I0
sVEncryChatRoomId
p4973
g56
sVAttrStatus
p4974
I2147586145
sVStatues
p4975
I0
stp4976
Rp4977
I1
bag34
(g38
g39
(dp4978
VUserName
p4979
V@47c7f642c111c677610c65bd1f0595458ad2f860bdc15b6a9e2ceffdcb0ee0c6
p4980
sVCity
p4981
V\u8fbd\u9633
p4982
sVSnsFlag
p4983
I49
sVDisplayName
p4984
g56
sVUniFriend
p4985
I0
sVMemberCount
p4986
I0
sVOwnerUin
p4987
I0
sVMemberList
p4988
g52
sVAlias
p4989
g56
sVPYQuanPin
p4990
Vshiguangdaoliu
p4991
sVSignature
p4992
V\u5bf9\u4e0d\u8d77
p4993
sVRemarkPYInitial
p4994
VSLBSCY
p4995
sVContactFlag
p4996
I3
sVUin
p4997
I0
sVNickName
p4998
V\u65f6\u5149\u5012\u6d41
p4999
sVAppAccountFlag
p5000
I0
sVVerifyFlag
p5001
I0
sVRemarkPYQuanPin
p5002
Vshilibaisuicanyin
p5003
sVHeadImgUrl
p5004
V/cgi-bin/mmwebwx-bin/webwxgeticon?seq=662795453&username=@47c7f642c111c677610c65bd1f0595458ad2f860bdc15b6a9e2ceffdcb0ee0c6&skey=@crypt_9c3dea4c_40bcca64877cc7f6d3ac377ba4298757
p5005
sVKeyWord
p5006
g56
sVProvince
p5007
V\u8fbd\u5b81
p5008
sVPYInitial
p5009
VSGDL
p5010
sVRemarkName
p5011
V\u77f3-\u674e\u767e\u5c81-\u9910\u996e
p5012
sVIsOwner
p5013
I0
sVSex
p5014
I1
sVStarFriend
p5015
I0
sVHideInputBarFlag
p5016
I0
sVChatRoomId
p5017
I0
sVEncryChatRoomId
p5018
g56
sVAttrStatus
p5019
I110693
sVStatues
p5020
I0
stp5021
Rp5022
I1
bag34
(g38
g39
(dp5023
VUserName
p5024
V@0099dd29386b4fb146d9c58ba4c645d94928351b054a6d505da6cdc867a3a8e8
p5025
sVCity
p5026
V\u77f3\u5bb6\u5e84
p5027
sVSnsFlag
p5028
I1
sVDisplayName
p5029
g56
sVUniFriend
p5030
I0
sVMemberCount
p5031
I0
sVOwnerUin
p5032
I0
sVMemberList
p5033
g52
sVAlias
p5034
g56
sVPYQuanPin
p5035
Vfei
p5036
sVSignature
p5037
g56
sVRemarkPYInitial
p5038
VSDLPFPABXSJZ
p5039
sVContactFlag
p5040
I3
sVUin
p5041
I0
sVNickName
p5042
V\u98de
p5043
sVAppAccountFlag
p5044
I0
sVVerifyFlag
p5045
I0
sVRemarkPYQuanPin
p5046
Vsandaliupengfeipinganbaoxianshijiazhuang
p5047
sVHeadImgUrl
p5048
V/cgi-bin/mmwebwx-bin/webwxgeticon?seq=647556348&username=@0099dd29386b4fb146d9c58ba4c645d94928351b054a6d505da6cdc867a3a8e8&skey=@crypt_9c3dea4c_40bcca64877cc7f6d3ac377ba4298757
p5049
sVKeyWord
p5050
g56
sVProvince
p5051
V\u6cb3\u5317
p5052
sVPYInitial
p5053
VF
p5054
sVRemarkName
p5055
V\u4e09\u5927-\u5218\u670b\u98de-\u5e73\u5b89\u4fdd\u9669-\u77f3\u5bb6\u5e84
p5056
sVIsOwner
p5057
I0
sVSex
p5058
I1
sVStarFriend
p5059
I0
sVHideInputBarFlag
p5060
I0
sVChatRoomId
p5061
I0
sVEncryChatRoomId
p5062
g56
sVAttrStatus
p5063
I102501
sVStatues
p5064
I0
stp5065
Rp5066
I1
bag34
(g38
g39
(dp5067
VUserName
p5068
V@8990272e3fdc57ab9f01ca67365ca172
p5069
sVCity
p5070
V\u671d\u9633
p5071
sVSnsFlag
p5072
I177
sVDisplayName
p5073
g56
sVUniFriend
p5074
I0
sVMemberCount
p5075
I0
sVOwnerUin
p5076
I0
sVMemberList
p5077
g52
sVAlias
p5078
g56
sVPYQuanPin
p5079
Vzufangqingzhaowo
p5080
sVSignature
p5081
V\u9700\u8981\u5f88\u591a
p5082
sVRemarkPYInitial
p5083
VBJHZDZF
p5084
sVContactFlag
p5085
I3
sVUin
p5086
I0
sVNickName
p5087
V\u79df\u623f\u8bf7\u627e\u6211
p5088
sVAppAccountFlag
p5089
I0
sVVerifyFlag
p5090
I0
sVRemarkPYQuanPin
p5091
Vbeijinghezhendongzufang
p5092
sVHeadImgUrl
p5093
V/cgi-bin/mmwebwx-bin/webwxgeticon?seq=662765435&username=@8990272e3fdc57ab9f01ca67365ca172&skey=@crypt_9c3dea4c_40bcca64877cc7f6d3ac377ba4298757
p5094
sVKeyWord
p5095
VWO9
p5096
sVProvince
p5097
V\u5317\u4eac
p5098
sVPYInitial
p5099
VZFQZW
p5100
sVRemarkName
p5101
V\u5317\u4eac-\u4f55\u632f\u4e1c-\u79df\u623f
p5102
sVIsOwner
p5103
I0
sVSex
p5104
I1
sVStarFriend
p5105
I0
sVHideInputBarFlag
p5106
I0
sVChatRoomId
p5107
I0
sVEncryChatRoomId
p5108
g56
sVAttrStatus
p5109
I69687
sVStatues
p5110
I0
stp5111
Rp5112
I1
bag34
(g38
g39
(dp5113
VUserName
p5114
V@25b1942c735ac349cbf4ac56a218a22efb41f0c73134930b4d0871835f7381c6
p5115
sVCity
p5116
V\u6210\u90fd
p5117
sVSnsFlag
p5118
I145
sVDisplayName
p5119
g56
sVUniFriend
p5120
I0
sVMemberCount
p5121
I0
sVOwnerUin
p5122
I0
sVMemberList
p5123
g52
sVAlias
p5124
g56
sVPYQuanPin
p5125
Vliweisheng
p5126
sVSignature
p5127
g56
sVRemarkPYInitial
p5128
VHKLWSWEBQD
p5129
sVContactFlag
p5130
I3
sVUin
p5131
I0
sVNickName
p5132
V\u674e\u851a\u751f
p5133
sVAppAccountFlag
p5134
I0
sVVerifyFlag
p5135
I0
sVRemarkPYQuanPin
p5136
Vhaikeliweishengwebqianduan
p5137
sVHeadImgUrl
p5138
V/cgi-bin/mmwebwx-bin/webwxgeticon?seq=662795904&username=@25b1942c735ac349cbf4ac56a218a22efb41f0c73134930b4d0871835f7381c6&skey=@crypt_9c3dea4c_40bcca64877cc7f6d3ac377ba4298757
p5139
sVKeyWord
p5140
g56
sVProvince
p5141
V\u56db\u5ddd
p5142
sVPYInitial
p5143
VLWS
p5144
sVRemarkName
p5145
V\u6c26\u6c2a-\u674e\u851a\u751f--web\u524d\u7aef
p5146
sVIsOwner
p5147
I0
sVSex
p5148
I1
sVStarFriend
p5149
I0
sVHideInputBarFlag
p5150
I0
sVChatRoomId
p5151
I0
sVEncryChatRoomId
p5152
g56
sVAttrStatus
p5153
I100709
sVStatues
p5154
I0
stp5155
Rp5156
I1
bag34
(g38
g39
(dp5157
VUserName
p5158
V@8be65d2c3e580649dcb35109a70b886fa82be145f9aaeb17205c9da5fb73da14
p5159
sVCity
p5160
g56
sVSnsFlag
p5161
I49
sVDisplayName
p5162
g56
sVUniFriend
p5163
I0
sVMemberCount
p5164
I0
sVOwnerUin
p5165
I0
sVMemberList
p5166
g52
sVAlias
p5167
g56
sVPYQuanPin
p5168
Vsunyijie
p5169
sVSignature
p5170
V\u8e0f\u8e0f\u5b9e\u5b9e\u76d6\u5927\u697c\u3002
p5171
sVRemarkPYInitial
p5172
VWZSYJKG
p5173
sVContactFlag
p5174
I3
sVUin
p5175
I0
sVNickName
p5176
V\u5b59\u6021\u6770
p5177
sVAppAccountFlag
p5178
I0
sVVerifyFlag
p5179
I0
sVRemarkPYQuanPin
p5180
Vwuzhongsunyijiekaogu
p5181
sVHeadImgUrl
p5182
V/cgi-bin/mmwebwx-bin/webwxgeticon?seq=662790236&username=@8be65d2c3e580649dcb35109a70b886fa82be145f9aaeb17205c9da5fb73da14&skey=@crypt_9c3dea4c_40bcca64877cc7f6d3ac377ba4298757
p5183
sVKeyWord
p5184
g56
sVProvince
p5185
V\u5929\u6d25
p5186
sVPYInitial
p5187
VSYJ
p5188
sVRemarkName
p5189
V\u6b66\u4e2d-\u5b59\u6021\u6770--\u8003\u53e4
p5190
sVIsOwner
p5191
I0
sVSex
p5192
I2
sVStarFriend
p5193
I0
sVHideInputBarFlag
p5194
I0
sVChatRoomId
p5195
I0
sVEncryChatRoomId
p5196
g56
sVAttrStatus
p5197
I17007549
sVStatues
p5198
I0
stp5199
Rp5200
I1
bag34
(g38
g39
(dp5201
VUserName
p5202
V@c4bd905408de860d94d8efa376faf672
p5203
sVCity
p5204
V\u6df1\u5733
p5205
sVSnsFlag
p5206
I49
sVDisplayName
p5207
g56
sVUniFriend
p5208
I0
sVMemberCount
p5209
I0
sVOwnerUin
p5210
I0
sVMemberList
p5211
g52
sVAlias
p5212
g56
sVPYQuanPin
p5213
VDavis
p5214
sVSignature
p5215
V\u5fc3\u5b58\u611f\u6069
p5216
sVRemarkPYInitial
p5217
VALWJQ
p5218
sVContactFlag
p5219
I3
sVUin
p5220
I0
sVNickName
p5221
VDavis
p5222
sVAppAccountFlag
p5223
I0
sVVerifyFlag
p5224
I0
sVRemarkPYQuanPin
p5225
Vanliwujianqiang
p5226
sVHeadImgUrl
p5227
V/cgi-bin/mmwebwx-bin/webwxgeticon?seq=662796945&username=@c4bd905408de860d94d8efa376faf672&skey=@crypt_9c3dea4c_40bcca64877cc7f6d3ac377ba4298757
p5228
sVKeyWord
p5229
Vwob
p5230
sVProvince
p5231
V\u5e7f\u4e1c
p5232
sVPYInitial
p5233
VDAVIS
p5234
sVRemarkName
p5235
V\u5b89\u7406-\u5434\u5efa\u5f3a
p5236
sVIsOwner
p5237
I0
sVSex
p5238
I1
sVStarFriend
p5239
I0
sVHideInputBarFlag
p5240
I0
sVChatRoomId
p5241
I0
sVEncryChatRoomId
p5242
g56
sVAttrStatus
p5243
I201191
sVStatues
p5244
I0
stp5245
Rp5246
I1
bag34
(g38
g39
(dp5247
VUserName
p5248
V@65bf010ef310921539197cdff951a90b7b43a6c638aecc6332722bf557b369d2
p5249
sVCity
p5250
g56
sVSnsFlag
p5251
I1
sVDisplayName
p5252
g56
sVUniFriend
p5253
I0
sVMemberCount
p5254
I0
sVOwnerUin
p5255
I0
sVMemberList
p5256
g52
sVAlias
p5257
g56
sVPYQuanPin
p5258
Vwuyongkang
p5259
sVSignature
p5260
V\u4eba\u4eba\u90fd\u7231\u9526\u4e0a\u6dfb\u82b1  \u7f3a\u4e0d\u613f\u610f\u96ea\u4e2d\u9001\u70ad
p5261
sVRemarkPYInitial
p5262
g56
sVContactFlag
p5263
I3
sVUin
p5264
I0
sVNickName
p5265
V\u5449\u9095\u6443
p5266
sVAppAccountFlag
p5267
I0
sVVerifyFlag
p5268
I0
sVRemarkPYQuanPin
p5269
g56
sVHeadImgUrl
p5270
V/cgi-bin/mmwebwx-bin/webwxgeticon?seq=662783295&username=@65bf010ef310921539197cdff951a90b7b43a6c638aecc6332722bf557b369d2&skey=@crypt_9c3dea4c_40bcca64877cc7f6d3ac377ba4298757
p5271
sVKeyWord
p5272
g56
sVProvince
p5273
g56
sVPYInitial
p5274
VWYK
p5275
sVRemarkName
p5276
g56
sVIsOwner
p5277
I0
sVSex
p5278
I1
sVStarFriend
p5279
I0
sVHideInputBarFlag
p5280
I0
sVChatRoomId
p5281
I0
sVEncryChatRoomId
p5282
g56
sVAttrStatus
p5283
I102437
sVStatues
p5284
I0
stp5285
Rp5286
I1
bag34
(g38
g39
(dp5287
VUserName
p5288
V@7ce4d2d335f6b99eb516a9774dde3dd4eded3e82f46f3adcda7a9d34ecfe5bc0
p5289
sVCity
p5290
V\u6dee\u5357
p5291
sVSnsFlag
p5292
I17
sVDisplayName
p5293
g56
sVUniFriend
p5294
I0
sVMemberCount
p5295
I0
sVOwnerUin
p5296
I0
sVMemberList
p5297
g52
sVAlias
p5298
g56
sVPYQuanPin
p5299
Vspanclassemojiemoji1f437spanspanclassemojiemoji1f437spanspanclassemojiemoji1f437spanspanclassemojiemoji1f437spanspanclassemojiemoji1f437span
p5300
sVSignature
p5301
g56
sVRemarkPYInitial
p5302
VALZL
p5303
sVContactFlag
p5304
I3
sVUin
p5305
I0
sVNickName
p5306
V\U0001f437\U0001f437\U0001f437\U0001f437\U0001f437
p5307
sVAppAccountFlag
p5308
I0
sVVerifyFlag
p5309
I0
sVRemarkPYQuanPin
p5310
Vanlizhuliang
p5311
sVHeadImgUrl
p5312
V/cgi-bin/mmwebwx-bin/webwxgeticon?seq=662744386&username=@7ce4d2d335f6b99eb516a9774dde3dd4eded3e82f46f3adcda7a9d34ecfe5bc0&skey=@crypt_9c3dea4c_40bcca64877cc7f6d3ac377ba4298757
p5313
sVKeyWord
p5314
g56
sVProvince
p5315
V\u5b89\u5fbd
p5316
sVPYInitial
p5317
VSPANCLASSEMOJIEMOJI1F437SPANSPANCLASSEMOJIEMOJI1F437SPANSPANCLASSEMOJIEMOJI1F437SPANSPANCLASSEMOJIEMOJI1F437SPANSPANCLASSEMOJIEMOJI1F437SPAN
p5318
sVRemarkName
p5319
V\u5b89\u7406-\u6731\u4eae
p5320
sVIsOwner
p5321
I0
sVSex
p5322
I1
sVStarFriend
p5323
I0
sVHideInputBarFlag
p5324
I0
sVChatRoomId
p5325
I0
sVEncryChatRoomId
p5326
g56
sVAttrStatus
p5327
I102501
sVStatues
p5328
I0
stp5329
Rp5330
I1
bag34
(g38
g39
(dp5331
VUserName
p5332
V@6cc6098bc802ca393aa2ca839663bcd6b842b5fcbaa7054e87b6cddf1e28ad1b
p5333
sVCity
p5334
V\u897f\u57ce
p5335
sVSnsFlag
p5336
I17
sVDisplayName
p5337
g56
sVUniFriend
p5338
I0
sVMemberCount
p5339
I0
sVOwnerUin
p5340
I0
sVMemberList
p5341
g52
sVAlias
p5342
g56
sVPYQuanPin
p5343
Vspanclassemojiemoji1f496spanKerryspanclassemojiemoji1f42cspan
p5344
sVSignature
p5345
g56
sVRemarkPYInitial
p5346
g56
sVContactFlag
p5347
I3
sVUin
p5348
I0
sVNickName
p5349
V\U0001f496Kerry\U0001f42c
p5350
sVAppAccountFlag
p5351
I0
sVVerifyFlag
p5352
I0
sVRemarkPYQuanPin
p5353
g56
sVHeadImgUrl
p5354
V/cgi-bin/mmwebwx-bin/webwxgeticon?seq=662797219&username=@6cc6098bc802ca393aa2ca839663bcd6b842b5fcbaa7054e87b6cddf1e28ad1b&skey=@crypt_9c3dea4c_40bcca64877cc7f6d3ac377ba4298757
p5355
sVKeyWord
p5356
g56
sVProvince
p5357
V\u5317\u4eac
p5358
sVPYInitial
p5359
VSPANCLASSEMOJIEMOJI1F496SPANKERRYSPANCLASSEMOJIEMOJI1F42CSPAN
p5360
sVRemarkName
p5361
g56
sVIsOwner
p5362
I0
sVSex
p5363
I2
sVStarFriend
p5364
I0
sVHideInputBarFlag
p5365
I0
sVChatRoomId
p5366
I0
sVEncryChatRoomId
p5367
g56
sVAttrStatus
p5368
I2147586237
sVStatues
p5369
I0
stp5370
Rp5371
I1
bag34
(g38
g39
(dp5372
VUserName
p5373
V@f5b2863e41a51f42f15aba82b62d2267
p5374
sVCity
p5375
V\u676d\u5dde
p5376
sVSnsFlag
p5377
I145
sVDisplayName
p5378
g56
sVUniFriend
p5379
I0
sVMemberCount
p5380
I0
sVOwnerUin
p5381
I0
sVMemberList
p5382
g52
sVAlias
p5383
g56
sVPYQuanPin
p5384
Vjiushan
p5385
sVSignature
p5386
V\u6c85\u6709\u82b7\u516e\u6fa7\u6709\u5170
p5387
sVRemarkPYInitial
p5388
VHKTXFUI
p5389
sVContactFlag
p5390
I3
sVUin
p5391
I0
sVNickName
p5392
V\u4e5d\u5c71
p5393
sVAppAccountFlag
p5394
I0
sVVerifyFlag
p5395
I0
sVRemarkPYQuanPin
p5396
VhaiketongxufengUI
p5397
sVHeadImgUrl
p5398
V/cgi-bin/mmwebwx-bin/webwxgeticon?seq=662780232&username=@f5b2863e41a51f42f15aba82b62d2267&skey=@crypt_9c3dea4c_40bcca64877cc7f6d3ac377ba4298757
p5399
sVKeyWord
p5400
Vtxf
p5401
sVProvince
p5402
V\u6d59\u6c5f
p5403
sVPYInitial
p5404
VJS
p5405
sVRemarkName
p5406
V\u6c26\u6c2a-\u7ae5\u65ed\u5cf0--UI
p5407
sVIsOwner
p5408
I0
sVSex
p5409
I1
sVStarFriend
p5410
I0
sVHideInputBarFlag
p5411
I0
sVChatRoomId
p5412
I0
sVEncryChatRoomId
p5413
g56
sVAttrStatus
p5414
I111719
sVStatues
p5415
I0
stp5416
Rp5417
I1
bag34
(g38
g39
(dp5418
VUserName
p5419
V@5e6be82337d480295b6d00ae7c4a41276fb36aa8473e8ef153f7877ce80c733c
p5420
sVCity
p5421
V\u77f3\u5bb6\u5e84
p5422
sVSnsFlag
p5423
I1
sVDisplayName
p5424
g56
sVUniFriend
p5425
I0
sVMemberCount
p5426
I0
sVOwnerUin
p5427
I0
sVMemberList
p5428
g52
sVAlias
p5429
g56
sVPYQuanPin
p5430
Vlairifangchang
p5431
sVSignature
p5432
g56
sVRemarkPYInitial
p5433
VYLRR
p5434
sVContactFlag
p5435
I3
sVUin
p5436
I0
sVNickName
p5437
V\u6765\u65e5\u65b9\u957f
p5438
sVAppAccountFlag
p5439
I0
sVVerifyFlag
p5440
I0
sVRemarkPYQuanPin
p5441
Vyileiruru
p5442
sVHeadImgUrl
p5443
V/cgi-bin/mmwebwx-bin/webwxgeticon?seq=662775192&username=@5e6be82337d480295b6d00ae7c4a41276fb36aa8473e8ef153f7877ce80c733c&skey=@crypt_9c3dea4c_40bcca64877cc7f6d3ac377ba4298757
p5444
sVKeyWord
p5445
g56
sVProvince
p5446
V\u6cb3\u5317
p5447
sVPYInitial
p5448
VLRFC
p5449
sVRemarkName
p5450
V\u4f0a\uff0d\u96f7\u8339\u8339
p5451
sVIsOwner
p5452
I0
sVSex
p5453
I2
sVStarFriend
p5454
I0
sVHideInputBarFlag
p5455
I0
sVChatRoomId
p5456
I0
sVEncryChatRoomId
p5457
g56
sVAttrStatus
p5458
I4197
sVStatues
p5459
I0
stp5460
Rp5461
I1
bag34
(g38
g39
(dp5462
VUserName
p5463
V@04792410bf9c6c8aa90ed88cf35be1aa
p5464
sVCity
p5465
V\u676d\u5dde
p5466
sVSnsFlag
p5467
I177
sVDisplayName
p5468
g56
sVUniFriend
p5469
I0
sVMemberCount
p5470
I0
sVOwnerUin
p5471
I0
sVMemberList
p5472
g52
sVAlias
p5473
g56
sVPYQuanPin
p5474
Valei
p5475
sVSignature
p5476
V\u613f\u4f60\u5fc3\u6709\u6240\u5b89\uff0c\u4ecd\u6000\u8d64\u5b50\u4e4b\u5fc3\u3002
p5477
sVRemarkPYInitial
p5478
VHCLCH
p5479
sVContactFlag
p5480
I3
sVUin
p5481
I0
sVNickName
p5482
V\u963f\u78ca
p5483
sVAppAccountFlag
p5484
I0
sVVerifyFlag
p5485
I0
sVRemarkPYQuanPin
p5486
Vhangchenleichuanhua
p5487
sVHeadImgUrl
p5488
V/cgi-bin/mmwebwx-bin/webwxgeticon?seq=662698071&username=@04792410bf9c6c8aa90ed88cf35be1aa&skey=@crypt_9c3dea4c_40bcca64877cc7f6d3ac377ba4298757
p5489
sVKeyWord
p5490
Vlei
p5491
sVProvince
p5492
V\u6d59\u6c5f
p5493
sVPYInitial
p5494
VAL
p5495
sVRemarkName
p5496
V\u676d-\u9648\u78ca-\u4f20\u5316
p5497
sVIsOwner
p5498
I0
sVSex
p5499
I1
sVStarFriend
p5500
I0
sVHideInputBarFlag
p5501
I0
sVChatRoomId
p5502
I0
sVEncryChatRoomId
p5503
g56
sVAttrStatus
p5504
I98367
sVStatues
p5505
I0
stp5506
Rp5507
I1
bag34
(g38
g39
(dp5508
VUserName
p5509
V@8c2325aa222bb65494aea60ca9dfac9c91753f34c762d026e1103cdffb35cdc4
p5510
sVCity
p5511
g56
sVSnsFlag
p5512
I49
sVDisplayName
p5513
g56
sVUniFriend
p5514
I0
sVMemberCount
p5515
I0
sVOwnerUin
p5516
I0
sVMemberList
p5517
g52
sVAlias
p5518
g56
sVPYQuanPin
p5519
VKeepreal
p5520
sVSignature
p5521
VNothing is impossible,the word itself says "i'm possible"!
p5522
sVRemarkPYInitial
p5523
VALWY
p5524
sVContactFlag
p5525
I3
sVUin
p5526
I0
sVNickName
p5527
VKeep real
p5528
sVAppAccountFlag
p5529
I0
sVVerifyFlag
p5530
I0
sVRemarkPYQuanPin
p5531
Vanliwangyang
p5532
sVHeadImgUrl
p5533
V/cgi-bin/mmwebwx-bin/webwxgeticon?seq=662791539&username=@8c2325aa222bb65494aea60ca9dfac9c91753f34c762d026e1103cdffb35cdc4&skey=@crypt_9c3dea4c_40bcca64877cc7f6d3ac377ba4298757
p5534
sVKeyWord
p5535
Vwan
p5536
sVProvince
p5537
VChiang Mai
p5538
sVPYInitial
p5539
VKEEPREAL
p5540
sVRemarkName
p5541
V\u5b89\u7406-\u6c6a\u6d0b
p5542
sVIsOwner
p5543
I0
sVSex
p5544
I1
sVStarFriend
p5545
I0
sVHideInputBarFlag
p5546
I0
sVChatRoomId
p5547
I0
sVEncryChatRoomId
p5548
g56
sVAttrStatus
p5549
I104551
sVStatues
p5550
I0
stp5551
Rp5552
I1
batp5553
Rp5554
I1
bsS'chatroomList'
p5555
g34
(g35
g36
(lp5556
g34
(citchat.storage.templates
Chatroom
p5557
g39
(dp5558
VUserName
p5559
V@@aba27319fc3f04711a60b6c1fc803e9eeadde97db3048e9ea0d2ddc61a6f785d
p5560
sVCity
p5561
g56
sVDisplayName
p5562
g56
sVUniFriend
p5563
I0
sS'Self'
p5564
g34
(g38
g39
(dp5565
g41
g31
sg43
g46
sg45
g46
sg47
I0
sg48
I0
sg49
g34
(g35
g36
(lp5566
tp5567
Rp5568
I1
bsg53
g56
sg55
g56
sg57
I2693546021
sg58
I0
sg59
I0
sg60
g46
sg62
g46
sg63
g56
sg64
g56
sg66
I0
sg68
I0
sg69
I1
sg70
g46
sg71
I0
sg72
I17
sg73
I0
sg74
I0
sg75
g46
sg76
g56
sg77
I0
sg78
Vkiwi
p5569
sg80
g56
sg81
V/cgi-bin/mmwebwx-bin/webwxgeticon?seq=2047034828&username=@aac10f671c59d0c878e1548e0c53630b2f010f138bcf14f1cf910ea53b662910&skey=@crypt_9c3dea4c_40bcca64877cc7f6d3ac377ba4298757
p5570
sg83
I1
sg84
I0
sg85
I0
stp5571
Rp5572
I1
bsVMemberList
p5573
g34
(g35
g36
(lp5574
tp5575
Rp5576
I1
bsVPYQuanPin
p5577
VGayyibaoba
p5578
sVRemarkPYInitial
p5579
g56
sVSex
p5580
I0
sVAppAccountFlag
p5581
I0
sVVerifyFlag
p5582
I0
sVProvince
p5583
g56
sVKeyWord
p5584
g56
sVRemarkName
p5585
g56
sVPYInitial
p5586
VGAYYBB
p5587
sVIsOwner
p5588
I0
sVChatRoomId
p5589
I0
sVHideInputBarFlag
p5590
I0
sVEncryChatRoomId
p5591
g56
sVAttrStatus
p5592
I0
sVSnsFlag
p5593
I0
sVMemberCount
p5594
I8
sVOwnerUin
p5595
I0
sVAlias
p5596
g56
sS'IsAdmin'
p5597
NsVSignature
p5598
g56
sVContactFlag
p5599
I3
sVNickName
p5600
VGay \u4e00\u70ae\u5427\u3002
p5601
sVRemarkPYQuanPin
p5602
g56
sVHeadImgUrl
p5603
V/cgi-bin/mmwebwx-bin/webwxgetheadimg?seq=662732648&username=@@aba27319fc3f04711a60b6c1fc803e9eeadde97db3048e9ea0d2ddc61a6f785d&skey=@crypt_9c3dea4c_40bcca64877cc7f6d3ac377ba4298757
p5604
sVUin
p5605
I0
sVStarFriend
p5606
I0
sVStatues
p5607
I0
stp5608
Rp5609
I1
bag34
(g5557
g39
(dp5610
VUserName
p5611
V@@6a40247a8ba162981680827d2edc0117495d49fd1053f59150e699ff97c9d9ec
p5612
sVCity
p5613
g56
sVDisplayName
p5614
g56
sVUniFriend
p5615
I0
sg5564
g34
(g38
g39
(dp5616
g41
g31
sg43
g46
sg45
g46
sg47
I0
sg48
I0
sg49
g34
(g35
g36
(lp5617
tp5618
Rp5619
I1
bsg53
g56
sg55
g56
sg57
I2693546021
sg58
I0
sg59
I0
sg60
g46
sg62
g46
sg63
g56
sg64
g56
sg66
I0
sg68
I0
sg69
I1
sg70
g46
sg71
I0
sg72
I17
sg73
I0
sg74
I0
sg75
g46
sg76
g56
sg77
I0
sg78
g5569
sg80
g56
sg81
g5570
sg83
I1
sg84
I0
sg85
I0
stp5620
Rp5621
I1
bsVMemberList
p5622
g34
(g35
g36
(lp5623
tp5624
Rp5625
I1
bsVPYQuanPin
p5626
Vbinhe802
p5627
sVRemarkPYInitial
p5628
g56
sVSex
p5629
I0
sVAppAccountFlag
p5630
I0
sVVerifyFlag
p5631
I0
sVProvince
p5632
g56
sVKeyWord
p5633
g56
sVRemarkName
p5634
g56
sVPYInitial
p5635
VBH802
p5636
sVIsOwner
p5637
I0
sVChatRoomId
p5638
I0
sVHideInputBarFlag
p5639
I0
sVEncryChatRoomId
p5640
g56
sVAttrStatus
p5641
I0
sVSnsFlag
p5642
I0
sVMemberCount
p5643
I9
sVOwnerUin
p5644
I0
sVAlias
p5645
g56
sg5597
NsVSignature
p5646
g56
sVContactFlag
p5647
I3
sVNickName
p5648
V\u6ee8\u6cb3802
p5649
sVRemarkPYQuanPin
p5650
g56
sVHeadImgUrl
p5651
V/cgi-bin/mmwebwx-bin/webwxgetheadimg?seq=662784975&username=@@6a40247a8ba162981680827d2edc0117495d49fd1053f59150e699ff97c9d9ec&skey=@crypt_9c3dea4c_40bcca64877cc7f6d3ac377ba4298757
p5652
sVUin
p5653
I0
sVStarFriend
p5654
I0
sVStatues
p5655
I1
stp5656
Rp5657
I1
bag34
(g5557
g39
(dp5658
VUserName
p5659
V@@a1df7dee2d7fe0645afa586ab907d888cef5cab21746e67d831a25a318fe1aa5
p5660
sVCity
p5661
g56
sVDisplayName
p5662
g56
sVUniFriend
p5663
I0
sg5564
g34
(g38
g39
(dp5664
g41
g31
sg43
g46
sg45
g46
sg47
I0
sg48
I0
sg49
g34
(g35
g36
(lp5665
tp5666
Rp5667
I1
bsg53
g56
sg55
g56
sg57
I2693546021
sg58
I0
sg59
I0
sg60
g46
sg62
g46
sg63
g56
sg64
g56
sg66
I0
sg68
I0
sg69
I1
sg70
g46
sg71
I0
sg72
I17
sg73
I0
sg74
I0
sg75
g46
sg76
g56
sg77
I0
sg78
g5569
sg80
g56
sg81
g5570
sg83
I1
sg84
I0
sg85
I0
stp5668
Rp5669
I1
bsVMemberList
p5670
g34
(g35
g36
(lp5671
tp5672
Rp5673
I1
bsVPYQuanPin
p5674
g56
sVRemarkPYInitial
p5675
g56
sVSex
p5676
I0
sVAppAccountFlag
p5677
I0
sVVerifyFlag
p5678
I0
sVProvince
p5679
g56
sVKeyWord
p5680
g56
sVRemarkName
p5681
g56
sVPYInitial
p5682
g56
sVIsOwner
p5683
I0
sVChatRoomId
p5684
I0
sVHideInputBarFlag
p5685
I0
sVEncryChatRoomId
p5686
g56
sVAttrStatus
p5687
I0
sVSnsFlag
p5688
I0
sVMemberCount
p5689
I72
sVOwnerUin
p5690
I0
sVAlias
p5691
g56
sg5597
NsVSignature
p5692
g56
sVContactFlag
p5693
I2
sVNickName
p5694
V\u77f3\u5bb6\u5e84\u8461\u8404\u56ed
p5695
sVRemarkPYQuanPin
p5696
g56
sVHeadImgUrl
p5697
V/cgi-bin/mmwebwx-bin/webwxgetheadimg?seq=662765172&username=@@a1df7dee2d7fe0645afa586ab907d888cef5cab21746e67d831a25a318fe1aa5&skey=@crypt_9c3dea4c_40bcca64877cc7f6d3ac377ba4298757
p5698
sVUin
p5699
I0
sVStarFriend
p5700
I0
sVStatues
p5701
I0
stp5702
Rp5703
I1
bag34
(g5557
g39
(dp5704
VUserName
p5705
V@@104c45e55f81fcceae623490acfcedd5004d5bf070d32aeee1a99a6c791ebecd
p5706
sVCity
p5707
g56
sVDisplayName
p5708
g56
sVUniFriend
p5709
I0
sg5564
g34
(g38
g39
(dp5710
g41
g31
sg43
g46
sg45
g46
sg47
I0
sg48
I0
sg49
g34
(g35
g36
(lp5711
tp5712
Rp5713
I1
bsg53
g56
sg55
g56
sg57
I2693546021
sg58
I0
sg59
I0
sg60
g46
sg62
g46
sg63
g56
sg64
g56
sg66
I0
sg68
I0
sg69
I1
sg70
g46
sg71
I0
sg72
I17
sg73
I0
sg74
I0
sg75
g46
sg76
g56
sg77
I0
sg78
g5569
sg80
g56
sg81
g5570
sg83
I1
sg84
I0
sg85
I0
stp5714
Rp5715
I1
bsVMemberList
p5716
g34
(g35
g36
(lp5717
tp5718
Rp5719
I1
bsVPYQuanPin
p5720
g56
sVRemarkPYInitial
p5721
g56
sVSex
p5722
I0
sVAppAccountFlag
p5723
I0
sVVerifyFlag
p5724
I0
sVProvince
p5725
g56
sVKeyWord
p5726
g56
sVRemarkName
p5727
g56
sVPYInitial
p5728
g56
sVIsOwner
p5729
I0
sVChatRoomId
p5730
I0
sVHideInputBarFlag
p5731
I0
sVEncryChatRoomId
p5732
g56
sVAttrStatus
p5733
I0
sVSnsFlag
p5734
I0
sVMemberCount
p5735
I15
sVOwnerUin
p5736
I0
sVAlias
p5737
g56
sg5597
NsVSignature
p5738
g56
sVContactFlag
p5739
I2
sVNickName
p5740
V\u8036\u7a23\u6211\u4eec\u8981\u8ddf\u968f\u4f60
p5741
sVRemarkPYQuanPin
p5742
g56
sVHeadImgUrl
p5743
V/cgi-bin/mmwebwx-bin/webwxgetheadimg?seq=662783378&username=@@104c45e55f81fcceae623490acfcedd5004d5bf070d32aeee1a99a6c791ebecd&skey=@crypt_9c3dea4c_40bcca64877cc7f6d3ac377ba4298757
p5744
sVUin
p5745
I0
sVStarFriend
p5746
I0
sVStatues
p5747
I0
stp5748
Rp5749
I1
bag34
(g5557
g39
(dp5750
VUserName
p5751
V@@fa67c12102b218308aa0e6bf623ebe8de9afeef86497ad7a3da52b03b73e6b0f
p5752
sVCity
p5753
g56
sVDisplayName
p5754
g56
sVUniFriend
p5755
I0
sg5564
g34
(g38
g39
(dp5756
g41
g31
sg43
g46
sg45
g46
sg47
I0
sg48
I0
sg49
g34
(g35
g36
(lp5757
tp5758
Rp5759
I1
bsg53
g56
sg55
g56
sg57
I2693546021
sg58
I0
sg59
I0
sg60
g46
sg62
g46
sg63
g56
sg64
g56
sg66
I0
sg68
I0
sg69
I1
sg70
g46
sg71
I0
sg72
I17
sg73
I0
sg74
I0
sg75
g46
sg76
g56
sg77
I0
sg78
g5569
sg80
g56
sg81
g5570
sg83
I1
sg84
I0
sg85
I0
stp5760
Rp5761
I1
bsVMemberList
p5762
g34
(g35
g36
(lp5763
tp5764
Rp5765
I1
bsVPYQuanPin
p5766
Vjiaren
p5767
sVRemarkPYInitial
p5768
g56
sVSex
p5769
I0
sVAppAccountFlag
p5770
I0
sVVerifyFlag
p5771
I0
sVProvince
p5772
g56
sVKeyWord
p5773
g56
sVRemarkName
p5774
g56
sVPYInitial
p5775
VJR
p5776
sVIsOwner
p5777
I1
sVChatRoomId
p5778
I0
sVHideInputBarFlag
p5779
I0
sVEncryChatRoomId
p5780
g56
sVAttrStatus
p5781
I0
sVSnsFlag
p5782
I0
sVMemberCount
p5783
I0
sVOwnerUin
p5784
I0
sVAlias
p5785
g56
sg5597
NsVSignature
p5786
g56
sVContactFlag
p5787
I3
sVNickName
p5788
V\u5bb6\u4eba
p5789
sVRemarkPYQuanPin
p5790
g56
sVHeadImgUrl
p5791
V/cgi-bin/mmwebwx-bin/webwxgetheadimg?seq=662708735&username=@@fa67c12102b218308aa0e6bf623ebe8de9afeef86497ad7a3da52b03b73e6b0f&skey=@crypt_9c3dea4c_40bcca64877cc7f6d3ac377ba4298757
p5792
sVUin
p5793
I0
sVStarFriend
p5794
I0
sVStatues
p5795
I1
stp5796
Rp5797
I1
bag34
(g5557
g39
(dp5798
VUserName
p5799
V@@2e0e2261239dc588fcf141082b3ab7d53762889bd015f8ede4b1781f24e94b73
p5800
sVCity
p5801
g56
sVDisplayName
p5802
g56
sVUniFriend
p5803
I0
sg5564
g34
(g38
g39
(dp5804
g41
g31
sg43
g46
sg45
g46
sg47
I0
sg48
I0
sg49
g34
(g35
g36
(lp5805
tp5806
Rp5807
I1
bsg53
g56
sg55
g56
sg57
I2693546021
sg58
I0
sg59
I0
sg60
g46
sg62
g46
sg63
g56
sg64
g56
sg66
I0
sg68
I0
sg69
I1
sg70
g46
sg71
I0
sg72
I17
sg73
I0
sg74
I0
sg75
g46
sg76
g56
sg77
I0
sg78
g5569
sg80
g56
sg81
g5570
sg83
I1
sg84
I0
sg85
I0
stp5808
Rp5809
I1
bsVMemberList
p5810
g34
(g35
g36
(lp5811
tp5812
Rp5813
I1
bsVPYQuanPin
p5814
Vsandashixiaohuoban
p5815
sVRemarkPYInitial
p5816
g56
sVSex
p5817
I0
sVAppAccountFlag
p5818
I0
sVVerifyFlag
p5819
I0
sVProvince
p5820
g56
sVKeyWord
p5821
g56
sVRemarkName
p5822
g56
sVPYInitial
p5823
VSDSXHB
p5824
sVIsOwner
p5825
I0
sVChatRoomId
p5826
I0
sVHideInputBarFlag
p5827
I0
sVEncryChatRoomId
p5828
g56
sVAttrStatus
p5829
I0
sVSnsFlag
p5830
I0
sVMemberCount
p5831
I0
sVOwnerUin
p5832
I0
sVAlias
p5833
g56
sg5597
NsVSignature
p5834
g56
sVContactFlag
p5835
I3
sVNickName
p5836
V\u4e09\u5927\u53f2\u5c0f\u4f19\u4f34
p5837
sVRemarkPYQuanPin
p5838
g56
sVHeadImgUrl
p5839
V/cgi-bin/mmwebwx-bin/webwxgetheadimg?seq=662767870&username=@@2e0e2261239dc588fcf141082b3ab7d53762889bd015f8ede4b1781f24e94b73&skey=@crypt_9c3dea4c_40bcca64877cc7f6d3ac377ba4298757
p5840
sVUin
p5841
I0
sVStarFriend
p5842
I0
sVStatues
p5843
I0
stp5844
Rp5845
I1
bag34
(g5557
g39
(dp5846
VUserName
p5847
V@@9d90dea4cc764a5891702d62447662ced6631dd512443d8811bd35be4f44494a
p5848
sVCity
p5849
g56
sVDisplayName
p5850
g56
sVUniFriend
p5851
I0
sg5564
g34
(g38
g39
(dp5852
g41
g31
sg43
g46
sg45
g46
sg47
I0
sg48
I0
sg49
g34
(g35
g36
(lp5853
tp5854
Rp5855
I1
bsg53
g56
sg55
g56
sg57
I2693546021
sg58
I0
sg59
I0
sg60
g46
sg62
g46
sg63
g56
sg64
g56
sg66
I0
sg68
I0
sg69
I1
sg70
g46
sg71
I0
sg72
I17
sg73
I0
sg74
I0
sg75
g46
sg76
g56
sg77
I0
sg78
g5569
sg80
g56
sg81
g5570
sg83
I1
sg84
I0
sg85
I0
stp5856
Rp5857
I1
bsVMemberList
p5858
g34
(g35
g36
(lp5859
tp5860
Rp5861
I1
bsVPYQuanPin
p5862
Vbeixiuyuan04ban
p5863
sVRemarkPYInitial
p5864
g56
sVSex
p5865
I0
sVAppAccountFlag
p5866
I0
sVVerifyFlag
p5867
I0
sVProvince
p5868
g56
sVKeyWord
p5869
g56
sVRemarkName
p5870
g56
sVPYInitial
p5871
VBXY04B
p5872
sVIsOwner
p5873
I0
sVChatRoomId
p5874
I0
sVHideInputBarFlag
p5875
I0
sVEncryChatRoomId
p5876
g56
sVAttrStatus
p5877
I0
sVSnsFlag
p5878
I0
sVMemberCount
p5879
I0
sVOwnerUin
p5880
I0
sVAlias
p5881
g56
sg5597
NsVSignature
p5882
g56
sVContactFlag
p5883
I3
sVNickName
p5884
V\u5907\u4fee\u966204\u73ed
p5885
sVRemarkPYQuanPin
p5886
g56
sVHeadImgUrl
p5887
V/cgi-bin/mmwebwx-bin/webwxgetheadimg?seq=647551296&username=@@9d90dea4cc764a5891702d62447662ced6631dd512443d8811bd35be4f44494a&skey=@crypt_9c3dea4c_40bcca64877cc7f6d3ac377ba4298757
p5888
sVUin
p5889
I0
sVStarFriend
p5890
I0
sVStatues
p5891
I0
stp5892
Rp5893
I1
bag34
(g5557
g39
(dp5894
VUserName
p5895
V@@20d8df8696d45d5cb374528f62552f3214750faeae84155c5401c5a3801fd8b6
p5896
sVCity
p5897
g56
sVDisplayName
p5898
g56
sVUniFriend
p5899
I0
sg5564
g34
(g38
g39
(dp5900
g41
g31
sg43
g46
sg45
g46
sg47
I0
sg48
I0
sg49
g34
(g35
g36
(lp5901
tp5902
Rp5903
I1
bsg53
g56
sg55
g56
sg57
I2693546021
sg58
I0
sg59
I0
sg60
g46
sg62
g46
sg63
g56
sg64
g56
sg66
I0
sg68
I0
sg69
I1
sg70
g46
sg71
I0
sg72
I17
sg73
I0
sg74
I0
sg75
g46
sg76
g56
sg77
I0
sg78
g5569
sg80
g56
sg81
g5570
sg83
I1
sg84
I0
sg85
I0
stp5904
Rp5905
I1
bsVMemberList
p5906
g34
(g35
g36
(lp5907
tp5908
Rp5909
I1
bsVPYQuanPin
p5910
Vzaishengziyuan
p5911
sVRemarkPYInitial
p5912
g56
sVSex
p5913
I0
sVAppAccountFlag
p5914
I0
sVVerifyFlag
p5915
I0
sVProvince
p5916
g56
sVKeyWord
p5917
g56
sVRemarkName
p5918
g56
sVPYInitial
p5919
VZSZY
p5920
sVIsOwner
p5921
I0
sVChatRoomId
p5922
I0
sVHideInputBarFlag
p5923
I0
sVEncryChatRoomId
p5924
g56
sVAttrStatus
p5925
I0
sVSnsFlag
p5926
I0
sVMemberCount
p5927
I0
sVOwnerUin
p5928
I0
sVAlias
p5929
g56
sg5597
NsVSignature
p5930
g56
sVContactFlag
p5931
I3
sVNickName
p5932
V\u518d\u751f\u8d44\u6e90
p5933
sVRemarkPYQuanPin
p5934
g56
sVHeadImgUrl
p5935
V/cgi-bin/mmwebwx-bin/webwxgetheadimg?seq=647558909&username=@@20d8df8696d45d5cb374528f62552f3214750faeae84155c5401c5a3801fd8b6&skey=@crypt_9c3dea4c_40bcca64877cc7f6d3ac377ba4298757
p5936
sVUin
p5937
I0
sVStarFriend
p5938
I0
sVStatues
p5939
I0
stp5940
Rp5941
I1
bag34
(g5557
g39
(dp5942
VUserName
p5943
V@@1dc804e0dd69af332bc742a2bff704623deaadc17ce176f5f0b21681f5ccdef5
p5944
sVCity
p5945
g56
sVDisplayName
p5946
g56
sVUniFriend
p5947
I0
sg5564
g34
(g38
g39
(dp5948
g41
g31
sg43
g46
sg45
g46
sg47
I0
sg48
I0
sg49
g34
(g35
g36
(lp5949
tp5950
Rp5951
I1
bsg53
g56
sg55
g56
sg57
I2693546021
sg58
I0
sg59
I0
sg60
g46
sg62
g46
sg63
g56
sg64
g56
sg66
I0
sg68
I0
sg69
I1
sg70
g46
sg71
I0
sg72
I17
sg73
I0
sg74
I0
sg75
g46
sg76
g56
sg77
I0
sg78
g5569
sg80
g56
sg81
g5570
sg83
I1
sg84
I0
sg85
I0
stp5952
Rp5953
I1
bsVMemberList
p5954
g34
(g35
g36
(lp5955
tp5956
Rp5957
I1
bsVPYQuanPin
p5958
Vxiangnimenledoubi
p5959
sVRemarkPYInitial
p5960
g56
sVSex
p5961
I0
sVAppAccountFlag
p5962
I0
sVVerifyFlag
p5963
I0
sVProvince
p5964
g56
sVKeyWord
p5965
g56
sVRemarkName
p5966
g56
sVPYInitial
p5967
VXNMLDB
p5968
sVIsOwner
p5969
I0
sVChatRoomId
p5970
I0
sVHideInputBarFlag
p5971
I0
sVEncryChatRoomId
p5972
g56
sVAttrStatus
p5973
I0
sVSnsFlag
p5974
I0
sVMemberCount
p5975
I0
sVOwnerUin
p5976
I0
sVAlias
p5977
g56
sg5597
NsVSignature
p5978
g56
sVContactFlag
p5979
I3
sVNickName
p5980
V\u60f3\u4f60\u4eec\u4e86\u9017\u6bd4
p5981
sVRemarkPYQuanPin
p5982
g56
sVHeadImgUrl
p5983
V/cgi-bin/mmwebwx-bin/webwxgetheadimg?seq=662784036&username=@@1dc804e0dd69af332bc742a2bff704623deaadc17ce176f5f0b21681f5ccdef5&skey=@crypt_9c3dea4c_40bcca64877cc7f6d3ac377ba4298757
p5984
sVUin
p5985
I0
sVStarFriend
p5986
I0
sVStatues
p5987
I0
stp5988
Rp5989
I1
batp5990
Rp5991
I1
bsS'nickName'
p5992
g5569
sS'mpList'
p5993
g34
(g35
g36
(lp5994
g34
(citchat.storage.templates
MassivePlatform
p5995
g39
(dp5996
VUserName
p5997
V@fde2c0507976c950c47d2d8dc72752ee
p5998
sVCity
p5999
V\u79e6\u7687\u5c9b
p6000
sVSnsFlag
p6001
I0
sVDisplayName
p6002
g56
sVUniFriend
p6003
I0
sVMemberCount
p6004
I0
sVOwnerUin
p6005
I0
sVMemberList
p6006
g52
sVAlias
p6007
g56
sVPYQuanPin
p6008
Vxiaozhoubaogao
p6009
sVSignature
p6010
V\u8fd9\u662f\u4e00\u4e2a\u7a0b\u5e8f\u5458\u7684\u4e16\u754c
p6011
sVRemarkPYInitial
p6012
g56
sVContactFlag
p6013
I3
sVUin
p6014
I0
sVNickName
p6015
V\u6653\u821f\u62a5\u544a
p6016
sVAppAccountFlag
p6017
I0
sVVerifyFlag
p6018
I8
sVRemarkPYQuanPin
p6019
g56
sVHeadImgUrl
p6020
V/cgi-bin/mmwebwx-bin/webwxgeticon?seq=662784767&username=@fde2c0507976c950c47d2d8dc72752ee&skey=@crypt_9c3dea4c_40bcca64877cc7f6d3ac377ba4298757
p6021
sVKeyWord
p6022
Vgh_
p6023
sVProvince
p6024
V\u6cb3\u5317
p6025
sVPYInitial
p6026
VXZBG
p6027
sVRemarkName
p6028
g56
sVIsOwner
p6029
I0
sVSex
p6030
I0
sVStarFriend
p6031
I0
sVHideInputBarFlag
p6032
I0
sVChatRoomId
p6033
I0
sVEncryChatRoomId
p6034
g56
sVAttrStatus
p6035
I0
sVStatues
p6036
I0
stp6037
Rp6038
I1
bag34
(g5995
g39
(dp6039
VUserName
p6040
V@a7ad0e7ae8743b214a581f5fdee7e3d2
p6041
sVCity
p6042
g56
sVSnsFlag
p6043
I0
sVDisplayName
p6044
g56
sVUniFriend
p6045
I0
sVMemberCount
p6046
I0
sVOwnerUin
p6047
I0
sVMemberList
p6048
g52
sVAlias
p6049
g56
sVPYQuanPin
p6050
Vweixinzhifu
p6051
sVSignature
p6052
V\u5e2e\u52a9\u89e3\u51b3\u5fae\u4fe1\u652f\u4ed8\u4e2d\u9047\u5230\u7684\u56f0\u96be\uff0c\u6536\u96c6\u5173\u4e8e\u5fae\u4fe1\u652f\u4ed8\u7684\u5efa\u8bae\u53cd\u9988\u3002
p6053
sVRemarkPYInitial
p6054
g56
sVContactFlag
p6055
I1
sVUin
p6056
I0
sVNickName
p6057
V\u5fae\u4fe1\u652f\u4ed8
p6058
sVAppAccountFlag
p6059
I0
sVVerifyFlag
p6060
I24
sVRemarkPYQuanPin
p6061
g56
sVHeadImgUrl
p6062
V/cgi-bin/mmwebwx-bin/webwxgeticon?seq=620580743&username=@a7ad0e7ae8743b214a581f5fdee7e3d2&skey=@crypt_9c3dea4c_40bcca64877cc7f6d3ac377ba4298757
p6063
sVKeyWord
p6064
Vgh_
p6065
sVProvince
p6066
V\u5e7f\u4e1c
p6067
sVPYInitial
p6068
VWXZF
p6069
sVRemarkName
p6070
g56
sVIsOwner
p6071
I0
sVSex
p6072
I0
sVStarFriend
p6073
I0
sVHideInputBarFlag
p6074
I0
sVChatRoomId
p6075
I0
sVEncryChatRoomId
p6076
g56
sVAttrStatus
p6077
I0
sVStatues
p6078
I0
stp6079
Rp6080
I1
bag34
(g5995
g39
(dp6081
VUserName
p6082
V@23afd8504a1297aabfb07e2a450dac6b
p6083
sVCity
p6084
V\u6df1\u5733
p6085
sVSnsFlag
p6086
I0
sVDisplayName
p6087
g56
sVUniFriend
p6088
I0
sVMemberCount
p6089
I0
sVOwnerUin
p6090
I0
sVMemberList
p6091
g52
sVAlias
p6092
g56
sVPYQuanPin
p6093
Vweixinhongbao
p6094
sVSignature
p6095
V\u5fae\u4fe1\u7ea2\u5305\u5b98\u65b9\u5e73\u53f0\uff0c\u4e3a\u4f60\u63d0\u4f9b\u5feb\u6377\u5b89\u5168\u597d\u73a9\u7684\u53d1\u7ea2\u5305\u670d\u52a1
p6096
sVRemarkPYInitial
p6097
g56
sVContactFlag
p6098
I1
sVUin
p6099
I0
sVNickName
p6100
V\u5fae\u4fe1\u7ea2\u5305
p6101
sVAppAccountFlag
p6102
I0
sVVerifyFlag
p6103
I24
sVRemarkPYQuanPin
p6104
g56
sVHeadImgUrl
p6105
V/cgi-bin/mmwebwx-bin/webwxgeticon?seq=620802182&username=@23afd8504a1297aabfb07e2a450dac6b&skey=@crypt_9c3dea4c_40bcca64877cc7f6d3ac377ba4298757
p6106
sVKeyWord
p6107
Vgh_
p6108
sVProvince
p6109
V\u5e7f\u4e1c
p6110
sVPYInitial
p6111
VWXHB
p6112
sVRemarkName
p6113
g56
sVIsOwner
p6114
I0
sVSex
p6115
I0
sVStarFriend
p6116
I0
sVHideInputBarFlag
p6117
I0
sVChatRoomId
p6118
I0
sVEncryChatRoomId
p6119
g56
sVAttrStatus
p6120
I0
sVStatues
p6121
I0
stp6122
Rp6123
I1
bag34
(g5995
g39
(dp6124
VUserName
p6125
V@52663465cb984918156789dae81ca3c0
p6126
sVCity
p6127
V\u676d\u5dde
p6128
sVSnsFlag
p6129
I0
sVDisplayName
p6130
g56
sVUniFriend
p6131
I0
sVMemberCount
p6132
I0
sVOwnerUin
p6133
I0
sVMemberList
p6134
g52
sVAlias
p6135
g56
sVPYQuanPin
p6136
Vzhejiangyidong
p6137
sVSignature
p6138
V\u4e2d\u56fd\u79fb\u52a8\u6d59\u6c5f\u516c\u53f8\uff08\u7b80\u79f0\uff09\u5b98\u65b9\u516c\u4f17\u53f7\uff01\u4e3a\u60a8\u63d0\u4f9b\u6d59\u6c5f\u79fb\u52a8\u5404\u7c7b\u901a\u4fe1\u8d44\u8baf\u3001\u70ed\u95e8\u4e1a\u52a1\u4fc3\u9500\uff0c\u5168\u9762\u4f18\u60e0\u4fe1\u606f\u3001\u7ed9\u529b\u5fae\u6d3b\u52a8....\u8d34\u5fc3\u3001\u4fbf\u6377\u67e5\u8be2\u3001\u529e\u7406\u670d\u52a1\u8ba9\u60a8\u4e00\u624b\u638c\u63a7\uff01\u5c3d\u5728\u201c\u6d59\u6c5f\u79fb\u52a810086\u201d\uff01
p6139
sVRemarkPYInitial
p6140
g56
sVContactFlag
p6141
I1
sVUin
p6142
I0
sVNickName
p6143
V\u6d59\u6c5f\u79fb\u52a8
p6144
sVAppAccountFlag
p6145
I0
sVVerifyFlag
p6146
I24
sVRemarkPYQuanPin
p6147
g56
sVHeadImgUrl
p6148
V/cgi-bin/mmwebwx-bin/webwxgeticon?seq=627561672&username=@52663465cb984918156789dae81ca3c0&skey=@crypt_9c3dea4c_40bcca64877cc7f6d3ac377ba4298757
p6149
sVKeyWord
p6150
Vgh_
p6151
sVProvince
p6152
V\u6d59\u6c5f
p6153
sVPYInitial
p6154
VZJYD
p6155
sVRemarkName
p6156
g56
sVIsOwner
p6157
I0
sVSex
p6158
I0
sVStarFriend
p6159
I0
sVHideInputBarFlag
p6160
I0
sVChatRoomId
p6161
I0
sVEncryChatRoomId
p6162
g56
sVAttrStatus
p6163
I0
sVStatues
p6164
I0
stp6165
Rp6166
I1
bag34
(g5995
g39
(dp6167
VUserName
p6168
V@19e3a3832c626ebe9c81330322442935
p6169
sVCity
p6170
V\u5e7f\u5dde
p6171
sVSnsFlag
p6172
I0
sVDisplayName
p6173
g56
sVUniFriend
p6174
I0
sVMemberCount
p6175
I0
sVOwnerUin
p6176
I0
sVMemberList
p6177
g52
sVAlias
p6178
g56
sVPYQuanPin
p6179
Vgongzhongpingtaianquanzhushou
p6180
sVSignature
p6181
V\u63d0\u4f9b\u5fae\u4fe1\u516c\u4f17\u53f7\u767b\u5f55\u548c\u7fa4\u53d1\u7b49\u5b89\u5168\u64cd\u4f5c\uff0c\u5728\u624b\u673a\u4e0a\u67e5\u6536\u6d88\u606f\u3001\u8bc4\u8bba\u3001\u8d5e\u8d4f\uff0c\u65b0\u5efa\u7fa4\u53d1\u548c\u67e5\u770b\u7fa4\u53d1\u5386\u53f2\u3002
p6182
sVRemarkPYInitial
p6183
g56
sVContactFlag
p6184
I3
sVUin
p6185
I0
sVNickName
p6186
V\u516c\u4f17\u5e73\u53f0\u5b89\u5168\u52a9\u624b
p6187
sVAppAccountFlag
p6188
I0
sVVerifyFlag
p6189
I24
sVRemarkPYQuanPin
p6190
g56
sVHeadImgUrl
p6191
V/cgi-bin/mmwebwx-bin/webwxgeticon?seq=628763548&username=@19e3a3832c626ebe9c81330322442935&skey=@crypt_9c3dea4c_40bcca64877cc7f6d3ac377ba4298757
p6192
sVKeyWord
p6193
Vmph
p6194
sVProvince
p6195
V\u5e7f\u4e1c
p6196
sVPYInitial
p6197
VGZPTAQZS
p6198
sVRemarkName
p6199
g56
sVIsOwner
p6200
I0
sVSex
p6201
I0
sVStarFriend
p6202
I0
sVHideInputBarFlag
p6203
I0
sVChatRoomId
p6204
I0
sVEncryChatRoomId
p6205
g56
sVAttrStatus
p6206
I98459
sVStatues
p6207
I0
stp6208
Rp6209
I1
bag34
(g5995
g39
(dp6210
VUserName
p6211
V@96e8c5bb26d38766060022f6b9bf4d0b
p6212
sVCity
p6213
V\u5f90\u6c47
p6214
sVSnsFlag
p6215
I0
sVDisplayName
p6216
g56
sVUniFriend
p6217
I0
sVMemberCount
p6218
I0
sVOwnerUin
p6219
I0
sVMemberList
p6220
g52
sVAlias
p6221
g56
sVPYQuanPin
p6222
Vkendeji
p6223
sVSignature
p6224
V\u968f\u65f6\u968f\u5730\u83b7\u53d6KFC\u4f18\u60e0\u5238\u3001\u6700\u65b0\u4ea7\u54c1\u548c\u6d3b\u52a8\u4fe1\u606f
p6225
sVRemarkPYInitial
p6226
g56
sVContactFlag
p6227
I3
sVUin
p6228
I0
sVNickName
p6229
V\u80af\u5fb7\u57fa
p6230
sVAppAccountFlag
p6231
I0
sVVerifyFlag
p6232
I24
sVRemarkPYQuanPin
p6233
g56
sVHeadImgUrl
p6234
V/cgi-bin/mmwebwx-bin/webwxgeticon?seq=647569609&username=@96e8c5bb26d38766060022f6b9bf4d0b&skey=@crypt_9c3dea4c_40bcca64877cc7f6d3ac377ba4298757
p6235
sVKeyWord
p6236
Vgh_
p6237
sVProvince
p6238
V\u4e0a\u6d77
p6239
sVPYInitial
p6240
VKDJ
p6241
sVRemarkName
p6242
g56
sVIsOwner
p6243
I0
sVSex
p6244
I0
sVStarFriend
p6245
I0
sVHideInputBarFlag
p6246
I0
sVChatRoomId
p6247
I0
sVEncryChatRoomId
p6248
g56
sVAttrStatus
p6249
I0
sVStatues
p6250
I0
stp6251
Rp6252
I1
bag34
(g5995
g39
(dp6253
VUserName
p6254
V@98992cd5fdc2af69801b63aaa1241314
p6255
sVCity
p6256
V\u5408\u80a5
p6257
sVSnsFlag
p6258
I0
sVDisplayName
p6259
g56
sVUniFriend
p6260
I0
sVMemberCount
p6261
I0
sVOwnerUin
p6262
I0
sVMemberList
p6263
g52
sVAlias
p6264
g56
sVPYQuanPin
p6265
Vhuamikeji
p6266
sVSignature
p6267
V\u534e\u7c73\u79d1\u6280\u516c\u53f8\u5b98\u65b9\u516c\u4f17\u53f7\uff0c\u4e3a\u534e\u7c73\u79d1\u6280\u516c\u53f8\u76f8\u5173\u4ea7\u54c1\u63d0\u4f9b\u670d\u52a1\u3002
p6268
sVRemarkPYInitial
p6269
g56
sVContactFlag
p6270
I3
sVUin
p6271
I0
sVNickName
p6272
V\u534e\u7c73\u79d1\u6280
p6273
sVAppAccountFlag
p6274
I0
sVVerifyFlag
p6275
I24
sVRemarkPYQuanPin
p6276
g56
sVHeadImgUrl
p6277
V/cgi-bin/mmwebwx-bin/webwxgeticon?seq=647571495&username=@98992cd5fdc2af69801b63aaa1241314&skey=@crypt_9c3dea4c_40bcca64877cc7f6d3ac377ba4298757
p6278
sVKeyWord
p6279
Vgh_
p6280
sVProvince
p6281
V\u5b89\u5fbd
p6282
sVPYInitial
p6283
VHMKJ
p6284
sVRemarkName
p6285
g56
sVIsOwner
p6286
I0
sVSex
p6287
I0
sVStarFriend
p6288
I0
sVHideInputBarFlag
p6289
I0
sVChatRoomId
p6290
I0
sVEncryChatRoomId
p6291
g56
sVAttrStatus
p6292
I0
sVStatues
p6293
I0
stp6294
Rp6295
I1
bag34
(g5995
g39
(dp6296
VUserName
p6297
V@7bcba56770b989bef63ffbdfe84f7d00964336527927028b513eaad119ff16e5
p6298
sVCity
p6299
V\u5e7f\u5dde
p6300
sVSnsFlag
p6301
I0
sVDisplayName
p6302
g56
sVUniFriend
p6303
I0
sVMemberCount
p6304
I0
sVOwnerUin
p6305
I0
sVMemberList
p6306
g52
sVAlias
p6307
g56
sVPYQuanPin
p6308
Vweixingongzhongpingtai
p6309
sVSignature
p6310
V\u5e2e\u52a9\u60a8\u4e86\u89e3\u516c\u4f17\u5e10\u53f7\uff0c\u66f4\u597d\u5730\u8fd0\u8425\u5fae\u4fe1\u516c\u4f17\u5e10\u53f7\u3002
p6311
sVRemarkPYInitial
p6312
g56
sVContactFlag
p6313
I3
sVUin
p6314
I0
sVNickName
p6315
V\u5fae\u4fe1\u516c\u4f17\u5e73\u53f0
p6316
sVAppAccountFlag
p6317
I0
sVVerifyFlag
p6318
I24
sVRemarkPYQuanPin
p6319
g56
sVHeadImgUrl
p6320
V/cgi-bin/mmwebwx-bin/webwxgeticon?seq=661610187&username=@7bcba56770b989bef63ffbdfe84f7d00964336527927028b513eaad119ff16e5&skey=@crypt_9c3dea4c_40bcca64877cc7f6d3ac377ba4298757
p6321
sVKeyWord
p6322
Vwei
p6323
sVProvince
p6324
V\u5e7f\u4e1c
p6325
sVPYInitial
p6326
VWXGZPT
p6327
sVRemarkName
p6328
g56
sVIsOwner
p6329
I0
sVSex
p6330
I0
sVStarFriend
p6331
I0
sVHideInputBarFlag
p6332
I0
sVChatRoomId
p6333
I0
sVEncryChatRoomId
p6334
g56
sVAttrStatus
p6335
I0
sVStatues
p6336
I0
stp6337
Rp6338
I1
bag34
(g5995
g39
(dp6339
VUserName
p6340
V@c412fcff478fac5980af40f198433069
p6341
sVCity
p6342
V\u5a01\u6d77
p6343
sVSnsFlag
p6344
I0
sVDisplayName
p6345
g56
sVUniFriend
p6346
I0
sVMemberCount
p6347
I0
sVOwnerUin
p6348
I0
sVMemberList
p6349
g52
sVAlias
p6350
g56
sVPYQuanPin
p6351
Vweihaixinxigang
p6352
sVSignature
p6353
V\u5a01\u6d77\u4fe1\u606f\u6e2f\u5b98\u65b9\u5fae\u4fe1\uff01\u6709\u8da3\u3001\u6709\u6599\u7684\u5a01\u6d77\u4eba\u513f\u3001\u5a01\u6d77\u4e8b\u513f\uff01
p6354
sVRemarkPYInitial
p6355
g56
sVContactFlag
p6356
I3
sVUin
p6357
I0
sVNickName
p6358
V\u5a01\u6d77\u4fe1\u606f\u6e2f
p6359
sVAppAccountFlag
p6360
I0
sVVerifyFlag
p6361
I24
sVRemarkPYQuanPin
p6362
g56
sVHeadImgUrl
p6363
V/cgi-bin/mmwebwx-bin/webwxgeticon?seq=662693113&username=@c412fcff478fac5980af40f198433069&skey=@crypt_9c3dea4c_40bcca64877cc7f6d3ac377ba4298757
p6364
sVKeyWord
p6365
Vgh_
p6366
sVProvince
p6367
V\u5c71\u4e1c
p6368
sVPYInitial
p6369
VWHXXG
p6370
sVRemarkName
p6371
g56
sVIsOwner
p6372
I0
sVSex
p6373
I0
sVStarFriend
p6374
I0
sVHideInputBarFlag
p6375
I0
sVChatRoomId
p6376
I0
sVEncryChatRoomId
p6377
g56
sVAttrStatus
p6378
I0
sVStatues
p6379
I0
stp6380
Rp6381
I1
bag34
(g5995
g39
(dp6382
VUserName
p6383
V@6971550e2b1a7ce0c59541fa358f6dfc
p6384
sVCity
p6385
V\u897f\u57ce
p6386
sVSnsFlag
p6387
I0
sVDisplayName
p6388
g56
sVUniFriend
p6389
I0
sVMemberCount
p6390
I0
sVOwnerUin
p6391
I0
sVMemberList
p6392
g52
sVAlias
p6393
g56
sVPYQuanPin
p6394
Vmifenkazhushou
p6395
sVSignature
p6396
V\u7c73\u7c89\u5361\u7528\u6237\u7684\u4e13\u5c5e\u670d\u52a1\u52a9\u624b\uff0c\u53f7\u5361\u6fc0\u6d3b\u3001\u6d41\u91cf\u8d60\u9001\uff0c\u66f4\u591a\u4f18\u60e0\u60ca\u559c\u5c3d\u5728\u201c\u7c73\u7c89\u5361\u52a9\u624b\u201d\uff01
p6397
sVRemarkPYInitial
p6398
g56
sVContactFlag
p6399
I3
sVUin
p6400
I0
sVNickName
p6401
V\u7c73\u7c89\u5361\u52a9\u624b
p6402
sVAppAccountFlag
p6403
I0
sVVerifyFlag
p6404
I24
sVRemarkPYQuanPin
p6405
g56
sVHeadImgUrl
p6406
V/cgi-bin/mmwebwx-bin/webwxgeticon?seq=662708809&username=@6971550e2b1a7ce0c59541fa358f6dfc&skey=@crypt_9c3dea4c_40bcca64877cc7f6d3ac377ba4298757
p6407
sVKeyWord
p6408
Vgh_
p6409
sVProvince
p6410
V\u5317\u4eac
p6411
sVPYInitial
p6412
VMFKZS
p6413
sVRemarkName
p6414
g56
sVIsOwner
p6415
I0
sVSex
p6416
I0
sVStarFriend
p6417
I0
sVHideInputBarFlag
p6418
I0
sVChatRoomId
p6419
I0
sVEncryChatRoomId
p6420
g56
sVAttrStatus
p6421
I0
sVStatues
p6422
I0
stp6423
Rp6424
I1
bag34
(g5995
g39
(dp6425
VUserName
p6426
V@40589b284ffb1b4cb714e3ffaa1c919a
p6427
sVCity
p6428
V\u6df1\u5733
p6429
sVSnsFlag
p6430
I0
sVDisplayName
p6431
g56
sVUniFriend
p6432
I0
sVMemberCount
p6433
I0
sVOwnerUin
p6434
I0
sVMemberList
p6435
g52
sVAlias
p6436
g56
sVPYQuanPin
p6437
Vyankan
p6438
sVSignature
p6439
V\u6709\u6001\u5ea6\uff0c\u4e00\u4e2a\u5e74\u8f7b\u4eba\u7684\u805a\u96c6\u5730\u3002
p6440
sVRemarkPYInitial
p6441
g56
sVContactFlag
p6442
I3
sVUin
p6443
I0
sVNickName
p6444
V\u8a00\u520a
p6445
sVAppAccountFlag
p6446
I0
sVVerifyFlag
p6447
I24
sVRemarkPYQuanPin
p6448
g56
sVHeadImgUrl
p6449
V/cgi-bin/mmwebwx-bin/webwxgeticon?seq=662762618&username=@40589b284ffb1b4cb714e3ffaa1c919a&skey=@crypt_9c3dea4c_40bcca64877cc7f6d3ac377ba4298757
p6450
sVKeyWord
p6451
Vgh_
p6452
sVProvince
p6453
V\u5e7f\u4e1c
p6454
sVPYInitial
p6455
VYK
p6456
sVRemarkName
p6457
g56
sVIsOwner
p6458
I0
sVSex
p6459
I0
sVStarFriend
p6460
I0
sVHideInputBarFlag
p6461
I0
sVChatRoomId
p6462
I0
sVEncryChatRoomId
p6463
g56
sVAttrStatus
p6464
I0
sVStatues
p6465
I0
stp6466
Rp6467
I1
bag34
(g5995
g39
(dp6468
VUserName
p6469
V@27ffe96e6fd29ee6bd6f86bfdd6b114d
p6470
sVCity
p6471
V\u6e1d\u4e2d
p6472
sVSnsFlag
p6473
I0
sVDisplayName
p6474
g56
sVUniFriend
p6475
I0
sVMemberCount
p6476
I0
sVOwnerUin
p6477
I0
sVMemberList
p6478
g52
sVAlias
p6479
g56
sVPYQuanPin
p6480
Vsuwei
p6481
sVSignature
p6482
V\u8d85\u7ea7\u201c\u4e91\u98df\u5802\u201d\uff0c\u624b\u673a\u70b9\u9910\u5e76\u652f\u4ed8\uff0c\u9910\u5385\u5907\u9910\u653e\u5165\u9910\u683c\uff0c\u987e\u5ba2\u5230\u8fbe\u9910\u5385\u624b\u673a\u9065\u63a7\u5f00\u683c\u53d6\u9910\uff0c\u65e0\u9700\u6392\u961f\u7b49\u9910\uff0c\u4e09\u79d2\u5403\u5230\u6700\u65b0\u9c9c\u7684\u9910\u54c1\u3002\u6574\u5957\u7cfb\u7edf\u514d\u8d39\u4e13\u4f9b\u5feb\u9910\u5385\uff0c\u8be24008775571.\u6548\u7387\u518d\u63d0\u5347\u3002
p6483
sVRemarkPYInitial
p6484
g56
sVContactFlag
p6485
I3
sVUin
p6486
I0
sVNickName
p6487
V\u901f\u4f4d
p6488
sVAppAccountFlag
p6489
I0
sVVerifyFlag
p6490
I24
sVRemarkPYQuanPin
p6491
g56
sVHeadImgUrl
p6492
V/cgi-bin/mmwebwx-bin/webwxgeticon?seq=662764773&username=@27ffe96e6fd29ee6bd6f86bfdd6b114d&skey=@crypt_9c3dea4c_40bcca64877cc7f6d3ac377ba4298757
p6493
sVKeyWord
p6494
Vgh_
p6495
sVProvince
p6496
V\u91cd\u5e86
p6497
sVPYInitial
p6498
VSW
p6499
sVRemarkName
p6500
g56
sVIsOwner
p6501
I0
sVSex
p6502
I0
sVStarFriend
p6503
I0
sVHideInputBarFlag
p6504
I0
sVChatRoomId
p6505
I0
sVEncryChatRoomId
p6506
g56
sVAttrStatus
p6507
I0
sVStatues
p6508
I0
stp6509
Rp6510
I1
bag34
(g5995
g39
(dp6511
VUserName
p6512
V@57b6a1a53d769cd6508cbc402162ed32
p6513
sVCity
p6514
V\u5f90\u6c47
p6515
sVSnsFlag
p6516
I0
sVDisplayName
p6517
g56
sVUniFriend
p6518
I0
sVMemberCount
p6519
I0
sVOwnerUin
p6520
I0
sVMemberList
p6521
g52
sVAlias
p6522
g56
sVPYQuanPin
p6523
Vyijiajuyuebu
p6524
sVSignature
p6525
V\u5b9c\u5bb6\u4f1a\u5458\u4ff1\u4e50\u90e8\u4fe1\u606f
p6526
sVRemarkPYInitial
p6527
g56
sVContactFlag
p6528
I3
sVUin
p6529
I0
sVNickName
p6530
V\u5b9c\u5bb6\u4ff1\u4e50\u90e8
p6531
sVAppAccountFlag
p6532
I0
sVVerifyFlag
p6533
I24
sVRemarkPYQuanPin
p6534
g56
sVHeadImgUrl
p6535
V/cgi-bin/mmwebwx-bin/webwxgeticon?seq=662774012&username=@57b6a1a53d769cd6508cbc402162ed32&skey=@crypt_9c3dea4c_40bcca64877cc7f6d3ac377ba4298757
p6536
sVKeyWord
p6537
Vgh_
p6538
sVProvince
p6539
V\u4e0a\u6d77
p6540
sVPYInitial
p6541
VYJJYB
p6542
sVRemarkName
p6543
g56
sVIsOwner
p6544
I0
sVSex
p6545
I0
sVStarFriend
p6546
I0
sVHideInputBarFlag
p6547
I0
sVChatRoomId
p6548
I0
sVEncryChatRoomId
p6549
g56
sVAttrStatus
p6550
I0
sVStatues
p6551
I0
stp6552
Rp6553
I1
bag34
(g5995
g39
(dp6554
VUserName
p6555
V@1cf4af9f2feb77dd155c830adb328307
p6556
sVCity
p6557
V\u5e7f\u5dde
p6558
sVSnsFlag
p6559
I0
sVDisplayName
p6560
g56
sVUniFriend
p6561
I0
sVMemberCount
p6562
I0
sVOwnerUin
p6563
I0
sVMemberList
p6564
g52
sVAlias
p6565
g56
sVPYQuanPin
p6566
Vweixinyundong
p6567
sVSignature
p6568
V\u4e5f\u8bb8\u4f60\u65e9\u5df2\u4e60\u60ef\u4e00\u4e2a\u4eba\u8fd0\u52a8\u7684\u5b64\u72ec\uff0c\u5374\u4e5f\u5076\u5c14\u6e34\u671b\u5f97\u5230\u8d5e\u8d4f\u3002\u52a0\u5165\u5fae\u4fe1\u8fd0\u52a8\uff0c\u548c\u670b\u53cb\u4e00\u8d77\u70b9\u8d5e\u4e92\u52a8\u3001\u62a2\u5360\u5c01\u9762\uff0c\u5206\u4eab\u8fd0\u52a8\u7684\u5feb\u4e50\u3002
p6569
sVRemarkPYInitial
p6570
g56
sVContactFlag
p6571
I3
sVUin
p6572
I0
sVNickName
p6573
V\u5fae\u4fe1\u8fd0\u52a8
p6574
sVAppAccountFlag
p6575
I0
sVVerifyFlag
p6576
I24
sVRemarkPYQuanPin
p6577
g56
sVHeadImgUrl
p6578
V/cgi-bin/mmwebwx-bin/webwxgeticon?seq=647545046&username=@1cf4af9f2feb77dd155c830adb328307&skey=@crypt_9c3dea4c_40bcca64877cc7f6d3ac377ba4298757
p6579
sVKeyWord
p6580
Vgh_
p6581
sVProvince
p6582
V\u5e7f\u4e1c
p6583
sVPYInitial
p6584
VWXYD
p6585
sVRemarkName
p6586
g56
sVIsOwner
p6587
I0
sVSex
p6588
I0
sVStarFriend
p6589
I0
sVHideInputBarFlag
p6590
I0
sVChatRoomId
p6591
I0
sVEncryChatRoomId
p6592
g56
sVAttrStatus
p6593
I0
sVStatues
p6594
I0
stp6595
Rp6596
I1
bag34
(g5995
g39
(dp6597
VUserName
p6598
V@76d101377618773740aafd315a7d4f02
p6599
sVCity
p6600
V\u5e7f\u5dde
p6601
sVSnsFlag
p6602
I0
sVDisplayName
p6603
g56
sVUniFriend
p6604
I0
sVMemberCount
p6605
I0
sVOwnerUin
p6606
I0
sVMemberList
p6607
g52
sVAlias
p6608
g56
sVPYQuanPin
p6609
Vhulitan
p6610
sVSignature
p6611
V\u4e00\u4e2a\u4ea7\u54c1\u4eba\u7684\u5b66\u4e60\u3001\u6210\u957f\u548c\u81ea\u6211\u6574\u7406\uff0c\u6709\u5e72\u8d27\u4e5f\u6709\u89c2\u70b9\u3002
p6612
sVRemarkPYInitial
p6613
g56
sVContactFlag
p6614
I3
sVUin
p6615
I0
sVNickName
p6616
V\u72d0\u72f8\u8c08
p6617
sVAppAccountFlag
p6618
I0
sVVerifyFlag
p6619
I8
sVRemarkPYQuanPin
p6620
g56
sVHeadImgUrl
p6621
V/cgi-bin/mmwebwx-bin/webwxgeticon?seq=662798158&username=@76d101377618773740aafd315a7d4f02&skey=@crypt_9c3dea4c_40bcca64877cc7f6d3ac377ba4298757
p6622
sVKeyWord
p6623
Vgh_
p6624
sVProvince
p6625
V\u5e7f\u4e1c
p6626
sVPYInitial
p6627
VHLT
p6628
sVRemarkName
p6629
g56
sVIsOwner
p6630
I0
sVSex
p6631
I0
sVStarFriend
p6632
I0
sVHideInputBarFlag
p6633
I0
sVChatRoomId
p6634
I0
sVEncryChatRoomId
p6635
g56
sVAttrStatus
p6636
I1
sVStatues
p6637
I0
stp6638
Rp6639
I1
batp6640
Rp6641
I1
bssS'loginInfo'
p6642
(dp6643
S'SyncKey'
p6644
(dp6645
VCount
p6646
I8
sVList
p6647
(lp6648
(dp6649
VVal
p6650
I662800265
sVKey
p6651
I1
sa(dp6652
VVal
p6653
I662800333
sVKey
p6654
I2
sa(dp6655
VVal
p6656
I662800207
sVKey
p6657
I3
sa(dp6658
VVal
p6659
I662797210
sVKey
p6660
I11
sa(dp6661
VVal
p6662
I662690083
sVKey
p6663
I13
sa(dp6664
VVal
p6665
I1511527436
sVKey
p6666
I201
sa(dp6667
VVal
p6668
I1511526384
sVKey
p6669
I1000
sa(dp6670
VVal
p6671
I1511518093
sVKey
p6672
I1001
sassS'syncUrl'
p6673
S'https://webpush.wx.qq.com/cgi-bin/mmwebwx-bin'
p6674
sS'skey'
p6675
V@crypt_9c3dea4c_40bcca64877cc7f6d3ac377ba4298757
p6676
sS'wxuin'
p6677
V2693546021
p6678
sS'synckey'
p6679
S'1_662800265|2_662800333|3_662800207|11_662797210|13_662690083|201_1511527436|1000_1511526384|1001_1511518093'
p6680
sS'url'
p6681
Vhttps://wx.qq.com/cgi-bin/mmwebwx-bin
p6682
sS'pass_ticket'
p6683
V5r0ef18lQpEohL%2FvVHaUGc9gZ%2FWthWBTS1Vy6cSCfun9TDbj7N4DTtuxIZzwG5vt
p6684
sS'deviceid'
p6685
S'e836302279866584'
p6686
sS'wxsid'
p6687
VqSwKZK3FVmytbYpJ
p6688
sS'InviteStartCount'
p6689
I40
sS'fileUrl'
p6690
S'https://file.wx.qq.com/cgi-bin/mmwebwx-bin'
p6691
sS'BaseRequest'
p6692
(dp6693
g57
g6678
sS'Skey'
p6694
g6676
sS'DeviceID'
p6695
g6684
sS'Sid'
p6696
g6688
ssS'User'
p6697
g34
(g38
g39
(dp6698
g41
g31
sg43
g46
sg45
g46
sg47
I0
sg49
g52
sg53
g56
sg55
g56
sg83
I1
sg58
I0
sg59
I0
sg60
g46
sg62
g46
sg63
g56
sg64
g56
sg66
I0
sg68
I0
sg69
I1
sg70
g46
sg71
I0
sg74
I0
sg72
I17
sg73
I0
sg48
I0
sg75
g46
sg76
g56
sg77
I0
sg78
g5569
sg80
g56
sg81
g5570
sg57
I2693546021
sg84
I0
sg85
I0
stp6699
Rp6700
I1
bss.